
mu32-p-ld_st_shared:	file format elf32-littleriscv

Disassembly of section .shared_mem:

00000000 <tdat>:
...

Disassembly of section .text.init:

10000000 <_start>:
10000000: 6f 00 00 00 80 03 00 00      	j	0x10000038 <reset_vector>

10000008 <other_exception>:
10000008: 13 06 3c 00 90 53 00 00      	ori	gp, gp, 0x539

10000010 <write_tohost>:
10000010: 17 3c 00 00 00 00 00 00      	auipc	t5, 0x0
10000018: 23 00 e4 31 00 ff 01 00      	sw.global	gp, 0x1ff0(t5)
10000020: 17 3c 00 00 00 00 00 00      	auipc	t5, 0x0
10000028: 23 00 e4 01 40 fe 01 00      	sw.global	zero, 0x1fe4(t5)
10000030: 6f 00 00 f0 0f fe ff 0f      	j	0x10000010 <write_tohost>

10000038 <reset_vector>:
10000038: 13 0a 00 f0 ff ff ff 0f      	li	t0, -0x1
10000040: 0b 00 50 00 00 00 00 00      	vx_tmc	t0
10000048: 13 02 00 00 00 00 00 00      	li	ra, 0x0
10000050: 13 04 00 00 00 00 00 00      	li	sp, 0x0
10000058: 13 06 00 00 00 00 00 00      	li	gp, 0x0
10000060: 13 08 00 00 00 00 00 00      	li	tp, 0x0
10000068: 13 0a 00 00 00 00 00 00      	li	t0, 0x0
10000070: 13 0c 00 00 00 00 00 00      	li	t1, 0x0
10000078: 13 0e 00 00 00 00 00 00      	li	t2, 0x0
10000080: 13 10 00 00 00 00 00 00      	li	s0, 0x0
10000088: 13 12 00 00 00 00 00 00      	li	s1, 0x0
10000090: 13 14 00 00 00 00 00 00      	li	a0, 0x0
10000098: 13 16 00 00 00 00 00 00      	li	a1, 0x0
100000a0: 13 18 00 00 00 00 00 00      	li	a2, 0x0
100000a8: 13 1a 00 00 00 00 00 00      	li	a3, 0x0
100000b0: 13 1c 00 00 00 00 00 00      	li	a4, 0x0
100000b8: 13 1e 00 00 00 00 00 00      	li	a5, 0x0
100000c0: 13 20 00 00 00 00 00 00      	li	a6, 0x0
100000c8: 13 22 00 00 00 00 00 00      	li	a7, 0x0
100000d0: 13 24 00 00 00 00 00 00      	li	s2, 0x0
100000d8: 13 26 00 00 00 00 00 00      	li	s3, 0x0
100000e0: 13 28 00 00 00 00 00 00      	li	s4, 0x0
100000e8: 13 2a 00 00 00 00 00 00      	li	s5, 0x0
100000f0: 13 2c 00 00 00 00 00 00      	li	s6, 0x0
100000f8: 13 2e 00 00 00 00 00 00      	li	s7, 0x0
10000100: 13 30 00 00 00 00 00 00      	li	s8, 0x0
10000108: 13 32 00 00 00 00 00 00      	li	s9, 0x0
10000110: 13 34 00 00 00 00 00 00      	li	s10, 0x0
10000118: 13 36 00 00 00 00 00 00      	li	s11, 0x0
10000120: 13 38 00 00 00 00 00 00      	li	t3, 0x0
10000128: 13 3a 00 00 00 00 00 00      	li	t4, 0x0
10000130: 13 3c 00 00 00 00 00 00      	li	t5, 0x0
10000138: 13 3e 00 00 00 00 00 00      	li	t6, 0x0
10000140: 13 40 00 00 00 00 00 00      	li	a8, 0x0
10000148: 13 42 00 00 00 00 00 00      	li	a9, 0x0
10000150: 13 44 00 00 00 00 00 00      	li	a10, 0x0
10000158: 13 46 00 00 00 00 00 00      	li	a11, 0x0
10000160: 13 48 00 00 00 00 00 00      	li	a12, 0x0
10000168: 13 4a 00 00 00 00 00 00      	li	a13, 0x0
10000170: 13 4c 00 00 00 00 00 00      	li	a14, 0x0
10000178: 13 4e 00 00 00 00 00 00      	li	a15, 0x0
10000180: 13 50 00 00 00 00 00 00      	li	a16, 0x0
10000188: 13 52 00 00 00 00 00 00      	li	a17, 0x0
10000190: 13 54 00 00 00 00 00 00      	li	a18, 0x0
10000198: 13 56 00 00 00 00 00 00      	li	a19, 0x0
100001a0: 13 58 00 00 00 00 00 00      	li	a20, 0x0
100001a8: 13 5a 00 00 00 00 00 00      	li	a21, 0x0
100001b0: 13 5c 00 00 00 00 00 00      	li	a22, 0x0
100001b8: 13 5e 00 00 00 00 00 00      	li	a23, 0x0
100001c0: 13 60 00 00 00 00 00 00      	li	s12, 0x0
100001c8: 13 62 00 00 00 00 00 00      	li	s13, 0x0
100001d0: 13 64 00 00 00 00 00 00      	li	s14, 0x0
100001d8: 13 66 00 00 00 00 00 00      	li	s15, 0x0
100001e0: 13 68 00 00 00 00 00 00      	li	s16, 0x0
100001e8: 13 6a 00 00 00 00 00 00      	li	s17, 0x0
100001f0: 13 6c 00 00 00 00 00 00      	li	s18, 0x0
100001f8: 13 6e 00 00 00 00 00 00      	li	s19, 0x0
10000200: 13 70 00 00 00 00 00 00      	li	s20, 0x0
10000208: 13 72 00 00 00 00 00 00      	li	s21, 0x0
10000210: 13 74 00 00 00 00 00 00      	li	s22, 0x0
10000218: 13 76 00 00 00 00 00 00      	li	s23, 0x0
10000220: 13 78 00 00 00 00 00 00      	li	s24, 0x0
10000228: 13 7a 00 00 00 00 00 00      	li	s25, 0x0
10000230: 13 7c 00 00 00 00 00 00      	li	s26, 0x0
10000238: 13 7e 00 00 00 00 00 00      	li	s27, 0x0
10000240: 13 80 00 00 00 00 00 00      	li	s28, 0x0
10000248: 13 82 00 00 00 00 00 00      	li	s29, 0x0
10000250: 13 84 00 00 00 00 00 00      	li	s30, 0x0
10000258: 13 86 00 00 00 00 00 00      	li	s31, 0x0
10000260: 13 88 00 00 00 00 00 00      	li	s32, 0x0
10000268: 13 8a 00 00 00 00 00 00      	li	s33, 0x0
10000270: 13 8c 00 00 00 00 00 00      	li	s34, 0x0
10000278: 13 8e 00 00 00 00 00 00      	li	s35, 0x0
10000280: 13 90 00 00 00 00 00 00      	li	s36, 0x0
10000288: 13 92 00 00 00 00 00 00      	li	s37, 0x0
10000290: 13 94 00 00 00 00 00 00      	li	s38, 0x0
10000298: 13 96 00 00 00 00 00 00      	li	s39, 0x0
100002a0: 13 98 00 00 00 00 00 00      	li	s40, 0x0
100002a8: 13 9a 00 00 00 00 00 00      	li	s41, 0x0
100002b0: 13 9c 00 00 00 00 00 00      	li	s42, 0x0
100002b8: 13 9e 00 00 00 00 00 00      	li	s43, 0x0
100002c0: 13 a0 00 00 00 00 00 00      	li	s44, 0x0
100002c8: 13 a2 00 00 00 00 00 00      	li	s45, 0x0
100002d0: 13 a4 00 00 00 00 00 00      	li	s46, 0x0
100002d8: 13 a6 00 00 00 00 00 00      	li	s47, 0x0
100002e0: 13 a8 00 00 00 00 00 00      	li	s48, 0x0
100002e8: 13 aa 00 00 00 00 00 00      	li	s49, 0x0
100002f0: 13 ac 00 00 00 00 00 00      	li	s50, 0x0
100002f8: 13 ae 00 00 00 00 00 00      	li	s51, 0x0
10000300: 13 b0 00 00 00 00 00 00      	li	s52, 0x0
10000308: 13 b2 00 00 00 00 00 00      	li	s53, 0x0
10000310: 13 b4 00 00 00 00 00 00      	li	s54, 0x0
10000318: 13 b6 00 00 00 00 00 00      	li	s55, 0x0
10000320: 13 b8 00 00 00 00 00 00      	li	s56, 0x0
10000328: 13 ba 00 00 00 00 00 00      	li	s57, 0x0
10000330: 13 bc 00 00 00 00 00 00      	li	s58, 0x0
10000338: 13 be 00 00 00 00 00 00      	li	s59, 0x0
10000340: 13 c0 00 00 00 00 00 00      	li	t7, 0x0
10000348: 13 c2 00 00 00 00 00 00      	li	t8, 0x0
10000350: 13 c4 00 00 00 00 00 00      	li	t9, 0x0
10000358: 13 c6 00 00 00 00 00 00      	li	t10, 0x0
10000360: 13 c8 00 00 00 00 00 00      	li	t11, 0x0
10000368: 13 ca 00 00 00 00 00 00      	li	t12, 0x0
10000370: 13 cc 00 00 00 00 00 00      	li	t13, 0x0
10000378: 13 ce 00 00 00 00 00 00      	li	t14, 0x0
10000380: 13 d0 00 00 00 00 00 00      	li	t15, 0x0
10000388: 13 d2 00 00 00 00 00 00      	li	t16, 0x0
10000390: 13 d4 00 00 00 00 00 00      	li	t17, 0x0
10000398: 13 d6 00 00 00 00 00 00      	li	t18, 0x0
100003a0: 13 d8 00 00 00 00 00 00      	li	t19, 0x0
100003a8: 13 da 00 00 00 00 00 00      	li	t20, 0x0
100003b0: 13 dc 00 00 00 00 00 00      	li	t21, 0x0
100003b8: 13 de 00 00 00 00 00 00      	li	t22, 0x0
100003c0: 13 e0 00 00 00 00 00 00      	li	t23, 0x0
100003c8: 13 e2 00 00 00 00 00 00      	li	t24, 0x0
100003d0: 13 e4 00 00 00 00 00 00      	li	t25, 0x0
100003d8: 13 e6 00 00 00 00 00 00      	li	t26, 0x0
100003e0: 13 e8 00 00 00 00 00 00      	li	t27, 0x0
100003e8: 13 ea 00 00 00 00 00 00      	li	t28, 0x0
100003f0: 13 ec 00 00 00 00 00 00      	li	t29, 0x0
100003f8: 13 ee 00 00 00 00 00 00      	li	t30, 0x0
10000400: 13 f0 00 00 00 00 00 00      	li	t31, 0x0
10000408: 13 f2 00 00 00 00 00 00      	li	t32, 0x0
10000410: 13 f4 00 00 00 00 00 00      	li	t33, 0x0
10000418: 13 f6 00 00 00 00 00 00      	li	t34, 0x0
10000420: 13 f8 00 00 00 00 00 00      	li	t35, 0x0
10000428: 13 fa 00 00 00 00 00 00      	li	t36, 0x0
10000430: 13 fc 00 00 00 00 00 00      	li	t37, 0x0
10000438: 13 fe 00 00 00 00 00 00      	li	t38, 0x0
10000440: 13 06 00 00 00 00 00 00      	li	gp, 0x0
10000448: 13 14 00 00 10 00 00 00      	li	a0, 0x1
10000450: 13 14 a2 00 f0 01 00 00      	slli	a0, a0, 0x1f
10000458: 63 00 a8 00 80 03 00 00      	bltz	a0, 0x10000490 <reset_vector+0x458>
10000460: 0f 00 00 00 f0 0f 00 00      	fence
10000468: 13 06 00 00 10 00 00 00      	li	gp, 0x1
10000470: 13 14 00 00 00 00 00 00      	li	a0, 0x0
10000478: 73 00 a0 00 20 00 00 00      	tohost	a0
10000480: 13 00 00 00 00 00 00 00      	nop
10000488: 13 00 00 00 00 00 00 00      	nop
10000490: 6f 00 00 00 80 00 00 00      	j	0x10000498 <reset_vector+0x460>
10000498: 17 16 00 00 80 b6 02 00      	auipc	a1, 0x2b68
100004a0: 17 18 00 f0 0e b6 ff 0f      	auipc	a2, 0xeffffb60
100004a8: 13 1a 00 00 00 05 00 00      	li	a3, 0x50

100004b0 <loop>:
100004b0: 03 14 b8 00 00 00 00 00      	lbu.global	a0, 0x0(a1)
100004b8: a3 00 c0 a0 00 00 00 00      	sb.shared	a0, 0x0(a2)
100004c0: 13 16 b0 00 10 00 00 00      	addi	a1, a1, 0x1
100004c8: 13 18 c0 00 10 00 00 00      	addi	a2, a2, 0x1
100004d0: 13 1a d0 f0 ff ff ff 0f      	addi	a3, a3, -0x1
100004d8: 63 fe d3 00 80 fd ff 0f      	bnez	a3, 0x100004b0 <loop>

100004e0 <test_2>:
100004e0: 13 06 00 00 20 00 00 00      	li	gp, 0x2
100004e8: 17 04 00 f0 8e b1 ff 0f      	auipc	sp, 0xeffffb18
100004f0: 13 02 00 f0 df fd ff 0f      	li	ra, -0x23
100004f8: a3 00 20 10 00 00 00 00      	sb.shared	ra, 0x0(sp)
10000500: 83 1c 20 00 00 00 00 00      	lb.shared	a4, 0x0(sp)
10000508: a3 00 20 e0 00 00 00 00      	sb.shared	a4, 0x0(sp)
10000510: 83 04 20 00 00 00 00 00      	lb.shared	sp, 0x0(sp)
10000518: 13 0e 00 f0 df fd ff 0f      	li	t2, -0x23
10000520: 63 00 22 70 80 7e 01 00      	bne	sp, t2, 0x10001d08 <fail>
10000528: 17 04 00 f0 8e ad ff 0f      	auipc	sp, 0xeffffad8
10000530: a3 00 24 20 80 00 00 00      	sw.shared	sp, 0x8(sp)
10000538: 83 08 24 00 80 00 00 00      	lw.shared	tp, 0x8(sp)
10000540: a3 00 40 10 00 00 00 00      	sb.shared	ra, 0x0(tp)
10000548: 63 00 42 20 00 7c 01 00      	bne	tp, sp, 0x10001d08 <fail>
10000550: 83 1c 40 00 00 00 00 00      	lb.shared	a4, 0x0(tp)
10000558: 63 00 e2 70 00 7b 01 00      	bne	a4, t2, 0x10001d08 <fail>

10000560 <test_3>:
10000560: 13 06 00 00 30 00 00 00      	li	gp, 0x3
10000568: 17 04 00 f0 8e a9 ff 0f      	auipc	sp, 0xeffffa98
10000570: 13 02 00 f0 df fc ff 0f      	li	ra, -0x33
10000578: a3 00 20 10 10 00 00 00      	sb.shared	ra, 0x1(sp)
10000580: 83 1c 20 00 10 00 00 00      	lb.shared	a4, 0x1(sp)
10000588: a3 00 20 e0 10 00 00 00      	sb.shared	a4, 0x1(sp)
10000590: 83 04 20 00 10 00 00 00      	lb.shared	sp, 0x1(sp)
10000598: 13 0e 00 f0 df fc ff 0f      	li	t2, -0x33
100005a0: 63 00 22 70 80 76 01 00      	bne	sp, t2, 0x10001d08 <fail>
100005a8: 17 04 00 f0 8e a5 ff 0f      	auipc	sp, 0xeffffa58
100005b0: a3 00 24 20 80 00 00 00      	sw.shared	sp, 0x8(sp)
100005b8: 83 08 24 00 80 00 00 00      	lw.shared	tp, 0x8(sp)
100005c0: a3 00 40 10 10 00 00 00      	sb.shared	ra, 0x1(tp)
100005c8: 63 00 42 20 00 74 01 00      	bne	tp, sp, 0x10001d08 <fail>
100005d0: 83 1c 40 00 10 00 00 00      	lb.shared	a4, 0x1(tp)
100005d8: 63 00 e2 70 00 73 01 00      	bne	a4, t2, 0x10001d08 <fail>

100005e0 <test_4>:
100005e0: 13 06 00 00 40 00 00 00      	li	gp, 0x4
100005e8: 17 04 00 f0 8e a1 ff 0f      	auipc	sp, 0xeffffa18
100005f0: 13 02 00 f0 cf fc ff 0f      	li	ra, -0x34
100005f8: a3 00 20 10 20 00 00 00      	sb.shared	ra, 0x2(sp)
10000600: 83 1c 20 00 20 00 00 00      	lb.shared	a4, 0x2(sp)
10000608: a3 00 20 e0 20 00 00 00      	sb.shared	a4, 0x2(sp)
10000610: 83 04 20 00 20 00 00 00      	lb.shared	sp, 0x2(sp)
10000618: 13 0e 00 f0 cf fc ff 0f      	li	t2, -0x34
10000620: 63 00 22 70 80 6e 01 00      	bne	sp, t2, 0x10001d08 <fail>
10000628: 17 04 00 f0 8e 9d ff 0f      	auipc	sp, 0xeffff9d8
10000630: a3 00 24 20 80 00 00 00      	sw.shared	sp, 0x8(sp)
10000638: 83 08 24 00 80 00 00 00      	lw.shared	tp, 0x8(sp)
10000640: a3 00 40 10 20 00 00 00      	sb.shared	ra, 0x2(tp)
10000648: 63 00 42 20 00 6c 01 00      	bne	tp, sp, 0x10001d08 <fail>
10000650: 83 1c 40 00 20 00 00 00      	lb.shared	a4, 0x2(tp)
10000658: 63 00 e2 70 00 6b 01 00      	bne	a4, t2, 0x10001d08 <fail>

10000660 <test_5>:
10000660: 13 06 00 00 50 00 00 00      	li	gp, 0x5
10000668: 17 04 00 f0 8e 99 ff 0f      	auipc	sp, 0xeffff998
10000670: 13 02 00 f0 cf fb ff 0f      	li	ra, -0x44
10000678: a3 00 20 10 30 00 00 00      	sb.shared	ra, 0x3(sp)
10000680: 83 1c 20 00 30 00 00 00      	lb.shared	a4, 0x3(sp)
10000688: a3 00 20 e0 30 00 00 00      	sb.shared	a4, 0x3(sp)
10000690: 83 04 20 00 30 00 00 00      	lb.shared	sp, 0x3(sp)
10000698: 13 0e 00 f0 cf fb ff 0f      	li	t2, -0x44
100006a0: 63 00 22 70 80 66 01 00      	bne	sp, t2, 0x10001d08 <fail>
100006a8: 17 04 00 f0 8e 95 ff 0f      	auipc	sp, 0xeffff958
100006b0: a3 00 24 20 80 00 00 00      	sw.shared	sp, 0x8(sp)
100006b8: 83 08 24 00 80 00 00 00      	lw.shared	tp, 0x8(sp)
100006c0: a3 00 40 10 30 00 00 00      	sb.shared	ra, 0x3(tp)
100006c8: 63 00 42 20 00 64 01 00      	bne	tp, sp, 0x10001d08 <fail>
100006d0: 83 1c 40 00 30 00 00 00      	lb.shared	a4, 0x3(tp)
100006d8: 63 00 e2 70 00 63 01 00      	bne	a4, t2, 0x10001d08 <fail>

100006e0 <test_6>:
100006e0: 13 06 00 00 60 00 00 00      	li	gp, 0x6
100006e8: 17 04 00 f0 8e 91 ff 0f      	auipc	sp, 0xeffff918
100006f0: 13 02 00 f0 bf fb ff 0f      	li	ra, -0x45
100006f8: a3 00 20 10 40 00 00 00      	sb.shared	ra, 0x4(sp)
10000700: 83 1c 20 00 40 00 00 00      	lb.shared	a4, 0x4(sp)
10000708: a3 00 20 e0 40 00 00 00      	sb.shared	a4, 0x4(sp)
10000710: 83 04 20 00 40 00 00 00      	lb.shared	sp, 0x4(sp)
10000718: 13 0e 00 f0 bf fb ff 0f      	li	t2, -0x45
10000720: 63 00 22 70 80 5e 01 00      	bne	sp, t2, 0x10001d08 <fail>
10000728: 17 04 00 f0 8e 8d ff 0f      	auipc	sp, 0xeffff8d8
10000730: a3 00 24 20 80 00 00 00      	sw.shared	sp, 0x8(sp)
10000738: 83 08 24 00 80 00 00 00      	lw.shared	tp, 0x8(sp)
10000740: a3 00 40 10 40 00 00 00      	sb.shared	ra, 0x4(tp)
10000748: 63 00 42 20 00 5c 01 00      	bne	tp, sp, 0x10001d08 <fail>
10000750: 83 1c 40 00 40 00 00 00      	lb.shared	a4, 0x4(tp)
10000758: 63 00 e2 70 00 5b 01 00      	bne	a4, t2, 0x10001d08 <fail>

10000760 <test_7>:
10000760: 13 06 00 00 70 00 00 00      	li	gp, 0x7
10000768: 17 04 00 f0 8e 89 ff 0f      	auipc	sp, 0xeffff898
10000770: 13 02 00 f0 bf fa ff 0f      	li	ra, -0x55
10000778: a3 00 20 10 50 00 00 00      	sb.shared	ra, 0x5(sp)
10000780: 83 1c 20 00 50 00 00 00      	lb.shared	a4, 0x5(sp)
10000788: a3 00 20 e0 50 00 00 00      	sb.shared	a4, 0x5(sp)
10000790: 83 04 20 00 50 00 00 00      	lb.shared	sp, 0x5(sp)
10000798: 13 0e 00 f0 bf fa ff 0f      	li	t2, -0x55
100007a0: 63 00 22 70 80 56 01 00      	bne	sp, t2, 0x10001d08 <fail>
100007a8: 17 04 00 f0 8e 85 ff 0f      	auipc	sp, 0xeffff858
100007b0: a3 00 24 20 80 00 00 00      	sw.shared	sp, 0x8(sp)
100007b8: 83 08 24 00 80 00 00 00      	lw.shared	tp, 0x8(sp)
100007c0: a3 00 40 10 50 00 00 00      	sb.shared	ra, 0x5(tp)
100007c8: 63 00 42 20 00 54 01 00      	bne	tp, sp, 0x10001d08 <fail>
100007d0: 83 1c 40 00 50 00 00 00      	lb.shared	a4, 0x5(tp)
100007d8: 63 00 e2 70 00 53 01 00      	bne	a4, t2, 0x10001d08 <fail>

100007e0 <test_8>:
100007e0: 13 06 00 00 80 00 00 00      	li	gp, 0x8
100007e8: 17 04 00 f0 8e 81 ff 0f      	auipc	sp, 0xeffff818
100007f0: 13 02 00 00 30 03 00 00      	li	ra, 0x33
100007f8: a3 00 20 10 00 00 00 00      	sb.shared	ra, 0x0(sp)
10000800: 83 1c 20 00 00 00 00 00      	lb.shared	a4, 0x0(sp)
10000808: a3 00 20 e0 00 00 00 00      	sb.shared	a4, 0x0(sp)
10000810: 83 04 20 00 00 00 00 00      	lb.shared	sp, 0x0(sp)
10000818: 13 0e 00 00 30 03 00 00      	li	t2, 0x33
10000820: 63 00 22 70 80 4e 01 00      	bne	sp, t2, 0x10001d08 <fail>
10000828: 17 04 00 f0 8e 7d ff 0f      	auipc	sp, 0xeffff7d8
10000830: a3 00 24 20 80 00 00 00      	sw.shared	sp, 0x8(sp)
10000838: 83 08 24 00 80 00 00 00      	lw.shared	tp, 0x8(sp)
10000840: a3 00 40 10 00 00 00 00      	sb.shared	ra, 0x0(tp)
10000848: 63 00 42 20 00 4c 01 00      	bne	tp, sp, 0x10001d08 <fail>
10000850: 83 1c 40 00 00 00 00 00      	lb.shared	a4, 0x0(tp)
10000858: 63 00 e2 70 00 4b 01 00      	bne	a4, t2, 0x10001d08 <fail>

10000860 <test_9>:
10000860: 13 06 00 00 90 00 00 00      	li	gp, 0x9
10000868: 17 04 00 f0 8e 79 ff 0f      	auipc	sp, 0xeffff798
10000870: 13 02 00 00 30 02 00 00      	li	ra, 0x23
10000878: a3 00 20 10 10 00 00 00      	sb.shared	ra, 0x1(sp)
10000880: 83 1c 20 00 10 00 00 00      	lb.shared	a4, 0x1(sp)
10000888: a3 00 20 e0 10 00 00 00      	sb.shared	a4, 0x1(sp)
10000890: 83 04 20 00 10 00 00 00      	lb.shared	sp, 0x1(sp)
10000898: 13 0e 00 00 30 02 00 00      	li	t2, 0x23
100008a0: 63 00 22 70 80 46 01 00      	bne	sp, t2, 0x10001d08 <fail>
100008a8: 17 04 00 f0 8e 75 ff 0f      	auipc	sp, 0xeffff758
100008b0: a3 00 24 20 80 00 00 00      	sw.shared	sp, 0x8(sp)
100008b8: 83 08 24 00 80 00 00 00      	lw.shared	tp, 0x8(sp)
100008c0: a3 00 40 10 10 00 00 00      	sb.shared	ra, 0x1(tp)
100008c8: 63 00 42 20 00 44 01 00      	bne	tp, sp, 0x10001d08 <fail>
100008d0: 83 1c 40 00 10 00 00 00      	lb.shared	a4, 0x1(tp)
100008d8: 63 00 e2 70 00 43 01 00      	bne	a4, t2, 0x10001d08 <fail>

100008e0 <test_10>:
100008e0: 13 06 00 00 a0 00 00 00      	li	gp, 0xa
100008e8: 17 04 00 f0 8e 71 ff 0f      	auipc	sp, 0xeffff718
100008f0: 13 02 00 00 20 02 00 00      	li	ra, 0x22
100008f8: a3 00 20 10 20 00 00 00      	sb.shared	ra, 0x2(sp)
10000900: 83 1c 20 00 20 00 00 00      	lb.shared	a4, 0x2(sp)
10000908: a3 00 20 e0 20 00 00 00      	sb.shared	a4, 0x2(sp)
10000910: 83 04 20 00 20 00 00 00      	lb.shared	sp, 0x2(sp)
10000918: 13 0e 00 00 20 02 00 00      	li	t2, 0x22
10000920: 63 00 22 70 80 3e 01 00      	bne	sp, t2, 0x10001d08 <fail>
10000928: 17 04 00 f0 8e 6d ff 0f      	auipc	sp, 0xeffff6d8
10000930: a3 00 24 20 80 00 00 00      	sw.shared	sp, 0x8(sp)
10000938: 83 08 24 00 80 00 00 00      	lw.shared	tp, 0x8(sp)
10000940: a3 00 40 10 20 00 00 00      	sb.shared	ra, 0x2(tp)
10000948: 63 00 42 20 00 3c 01 00      	bne	tp, sp, 0x10001d08 <fail>
10000950: 83 1c 40 00 20 00 00 00      	lb.shared	a4, 0x2(tp)
10000958: 63 00 e2 70 00 3b 01 00      	bne	a4, t2, 0x10001d08 <fail>

10000960 <test_11>:
10000960: 13 06 00 00 b0 00 00 00      	li	gp, 0xb
10000968: 17 04 00 f0 8e 69 ff 0f      	auipc	sp, 0xeffff698
10000970: 13 02 00 00 20 01 00 00      	li	ra, 0x12
10000978: a3 00 20 10 30 00 00 00      	sb.shared	ra, 0x3(sp)
10000980: 83 1c 20 00 30 00 00 00      	lb.shared	a4, 0x3(sp)
10000988: a3 00 20 e0 30 00 00 00      	sb.shared	a4, 0x3(sp)
10000990: 83 04 20 00 30 00 00 00      	lb.shared	sp, 0x3(sp)
10000998: 13 0e 00 00 20 01 00 00      	li	t2, 0x12
100009a0: 63 00 22 70 80 36 01 00      	bne	sp, t2, 0x10001d08 <fail>
100009a8: 17 04 00 f0 8e 65 ff 0f      	auipc	sp, 0xeffff658
100009b0: a3 00 24 20 80 00 00 00      	sw.shared	sp, 0x8(sp)
100009b8: 83 08 24 00 80 00 00 00      	lw.shared	tp, 0x8(sp)
100009c0: a3 00 40 10 30 00 00 00      	sb.shared	ra, 0x3(tp)
100009c8: 63 00 42 20 00 34 01 00      	bne	tp, sp, 0x10001d08 <fail>
100009d0: 83 1c 40 00 30 00 00 00      	lb.shared	a4, 0x3(tp)
100009d8: 63 00 e2 70 00 33 01 00      	bne	a4, t2, 0x10001d08 <fail>

100009e0 <test_12>:
100009e0: 13 06 00 00 c0 00 00 00      	li	gp, 0xc
100009e8: 17 04 00 f0 8e 61 ff 0f      	auipc	sp, 0xeffff618
100009f0: 13 02 00 00 10 01 00 00      	li	ra, 0x11
100009f8: a3 00 20 10 40 00 00 00      	sb.shared	ra, 0x4(sp)
10000a00: 83 1c 20 00 40 00 00 00      	lb.shared	a4, 0x4(sp)
10000a08: a3 00 20 e0 40 00 00 00      	sb.shared	a4, 0x4(sp)
10000a10: 83 04 20 00 40 00 00 00      	lb.shared	sp, 0x4(sp)
10000a18: 13 0e 00 00 10 01 00 00      	li	t2, 0x11
10000a20: 63 00 22 70 80 2e 01 00      	bne	sp, t2, 0x10001d08 <fail>
10000a28: 17 04 00 f0 8e 5d ff 0f      	auipc	sp, 0xeffff5d8
10000a30: a3 00 24 20 80 00 00 00      	sw.shared	sp, 0x8(sp)
10000a38: 83 08 24 00 80 00 00 00      	lw.shared	tp, 0x8(sp)
10000a40: a3 00 40 10 40 00 00 00      	sb.shared	ra, 0x4(tp)
10000a48: 63 00 42 20 00 2c 01 00      	bne	tp, sp, 0x10001d08 <fail>
10000a50: 83 1c 40 00 40 00 00 00      	lb.shared	a4, 0x4(tp)
10000a58: 63 00 e2 70 00 2b 01 00      	bne	a4, t2, 0x10001d08 <fail>

10000a60 <test_13>:
10000a60: 13 06 00 00 d0 00 00 00      	li	gp, 0xd
10000a68: 17 04 00 f0 8e 59 ff 0f      	auipc	sp, 0xeffff598
10000a70: 13 02 00 00 10 00 00 00      	li	ra, 0x1
10000a78: a3 00 20 10 50 00 00 00      	sb.shared	ra, 0x5(sp)
10000a80: 83 1c 20 00 50 00 00 00      	lb.shared	a4, 0x5(sp)
10000a88: a3 00 20 e0 50 00 00 00      	sb.shared	a4, 0x5(sp)
10000a90: 83 04 20 00 50 00 00 00      	lb.shared	sp, 0x5(sp)
10000a98: 13 0e 00 00 10 00 00 00      	li	t2, 0x1
10000aa0: 63 00 22 70 80 26 01 00      	bne	sp, t2, 0x10001d08 <fail>
10000aa8: 17 04 00 f0 8e 55 ff 0f      	auipc	sp, 0xeffff558
10000ab0: a3 00 24 20 80 00 00 00      	sw.shared	sp, 0x8(sp)
10000ab8: 83 08 24 00 80 00 00 00      	lw.shared	tp, 0x8(sp)
10000ac0: a3 00 40 10 50 00 00 00      	sb.shared	ra, 0x5(tp)
10000ac8: 63 00 42 20 00 24 01 00      	bne	tp, sp, 0x10001d08 <fail>
10000ad0: 83 1c 40 00 50 00 00 00      	lb.shared	a4, 0x5(tp)
10000ad8: 63 00 e2 70 00 23 01 00      	bne	a4, t2, 0x10001d08 <fail>

10000ae0 <test_14>:
10000ae0: 13 06 00 00 e0 00 00 00      	li	gp, 0xe
10000ae8: 17 04 00 f0 8e 51 ff 0f      	auipc	sp, 0xeffff518
10000af0: 13 02 00 00 30 03 00 00      	li	ra, 0x33
10000af8: a3 00 20 10 00 00 00 00      	sb.shared	ra, 0x0(sp)
10000b00: 83 1c 28 00 00 00 00 00      	lbu.shared	a4, 0x0(sp)
10000b08: a3 00 20 e0 00 00 00 00      	sb.shared	a4, 0x0(sp)
10000b10: 83 04 28 00 00 00 00 00      	lbu.shared	sp, 0x0(sp)
10000b18: 13 0e 00 00 30 03 00 00      	li	t2, 0x33
10000b20: 63 00 22 70 80 1e 01 00      	bne	sp, t2, 0x10001d08 <fail>
10000b28: 17 04 00 f0 8e 4d ff 0f      	auipc	sp, 0xeffff4d8
10000b30: a3 00 24 20 80 00 00 00      	sw.shared	sp, 0x8(sp)
10000b38: 83 08 24 00 80 00 00 00      	lw.shared	tp, 0x8(sp)
10000b40: a3 00 40 10 00 00 00 00      	sb.shared	ra, 0x0(tp)
10000b48: 63 00 42 20 00 1c 01 00      	bne	tp, sp, 0x10001d08 <fail>
10000b50: 83 1c 48 00 00 00 00 00      	lbu.shared	a4, 0x0(tp)
10000b58: 63 00 e2 70 00 1b 01 00      	bne	a4, t2, 0x10001d08 <fail>

10000b60 <test_15>:
10000b60: 13 06 00 00 f0 00 00 00      	li	gp, 0xf
10000b68: 17 04 00 f0 8e 49 ff 0f      	auipc	sp, 0xeffff498
10000b70: 13 02 00 00 30 02 00 00      	li	ra, 0x23
10000b78: a3 00 20 10 10 00 00 00      	sb.shared	ra, 0x1(sp)
10000b80: 83 1c 28 00 10 00 00 00      	lbu.shared	a4, 0x1(sp)
10000b88: a3 00 20 e0 10 00 00 00      	sb.shared	a4, 0x1(sp)
10000b90: 83 04 28 00 10 00 00 00      	lbu.shared	sp, 0x1(sp)
10000b98: 13 0e 00 00 30 02 00 00      	li	t2, 0x23
10000ba0: 63 00 22 70 80 16 01 00      	bne	sp, t2, 0x10001d08 <fail>
10000ba8: 17 04 00 f0 8e 45 ff 0f      	auipc	sp, 0xeffff458
10000bb0: a3 00 24 20 80 00 00 00      	sw.shared	sp, 0x8(sp)
10000bb8: 83 08 24 00 80 00 00 00      	lw.shared	tp, 0x8(sp)
10000bc0: a3 00 40 10 10 00 00 00      	sb.shared	ra, 0x1(tp)
10000bc8: 63 00 42 20 00 14 01 00      	bne	tp, sp, 0x10001d08 <fail>
10000bd0: 83 1c 48 00 10 00 00 00      	lbu.shared	a4, 0x1(tp)
10000bd8: 63 00 e2 70 00 13 01 00      	bne	a4, t2, 0x10001d08 <fail>

10000be0 <test_16>:
10000be0: 13 06 00 00 00 01 00 00      	li	gp, 0x10
10000be8: 17 04 00 f0 8e 41 ff 0f      	auipc	sp, 0xeffff418
10000bf0: 13 02 00 00 20 02 00 00      	li	ra, 0x22
10000bf8: a3 00 20 10 20 00 00 00      	sb.shared	ra, 0x2(sp)
10000c00: 83 1c 28 00 20 00 00 00      	lbu.shared	a4, 0x2(sp)
10000c08: a3 00 20 e0 20 00 00 00      	sb.shared	a4, 0x2(sp)
10000c10: 83 04 28 00 20 00 00 00      	lbu.shared	sp, 0x2(sp)
10000c18: 13 0e 00 00 20 02 00 00      	li	t2, 0x22
10000c20: 63 00 22 70 80 0e 01 00      	bne	sp, t2, 0x10001d08 <fail>
10000c28: 17 04 00 f0 8e 3d ff 0f      	auipc	sp, 0xeffff3d8
10000c30: a3 00 24 20 80 00 00 00      	sw.shared	sp, 0x8(sp)
10000c38: 83 08 24 00 80 00 00 00      	lw.shared	tp, 0x8(sp)
10000c40: a3 00 40 10 20 00 00 00      	sb.shared	ra, 0x2(tp)
10000c48: 63 00 42 20 00 0c 01 00      	bne	tp, sp, 0x10001d08 <fail>
10000c50: 83 1c 48 00 20 00 00 00      	lbu.shared	a4, 0x2(tp)
10000c58: 63 00 e2 70 00 0b 01 00      	bne	a4, t2, 0x10001d08 <fail>

10000c60 <test_17>:
10000c60: 13 06 00 00 10 01 00 00      	li	gp, 0x11
10000c68: 17 04 00 f0 8e 39 ff 0f      	auipc	sp, 0xeffff398
10000c70: 13 02 00 00 20 01 00 00      	li	ra, 0x12
10000c78: a3 00 20 10 30 00 00 00      	sb.shared	ra, 0x3(sp)
10000c80: 83 1c 28 00 30 00 00 00      	lbu.shared	a4, 0x3(sp)
10000c88: a3 00 20 e0 30 00 00 00      	sb.shared	a4, 0x3(sp)
10000c90: 83 04 28 00 30 00 00 00      	lbu.shared	sp, 0x3(sp)
10000c98: 13 0e 00 00 20 01 00 00      	li	t2, 0x12
10000ca0: 63 00 22 70 80 06 01 00      	bne	sp, t2, 0x10001d08 <fail>
10000ca8: 17 04 00 f0 8e 35 ff 0f      	auipc	sp, 0xeffff358
10000cb0: a3 00 24 20 80 00 00 00      	sw.shared	sp, 0x8(sp)
10000cb8: 83 08 24 00 80 00 00 00      	lw.shared	tp, 0x8(sp)
10000cc0: a3 00 40 10 30 00 00 00      	sb.shared	ra, 0x3(tp)
10000cc8: 63 00 42 20 00 04 01 00      	bne	tp, sp, 0x10001d08 <fail>
10000cd0: 83 1c 48 00 30 00 00 00      	lbu.shared	a4, 0x3(tp)
10000cd8: 63 00 e2 70 00 03 01 00      	bne	a4, t2, 0x10001d08 <fail>

10000ce0 <test_18>:
10000ce0: 13 06 00 00 20 01 00 00      	li	gp, 0x12
10000ce8: 17 04 00 f0 8e 31 ff 0f      	auipc	sp, 0xeffff318
10000cf0: 13 02 00 00 10 01 00 00      	li	ra, 0x11
10000cf8: a3 00 20 10 40 00 00 00      	sb.shared	ra, 0x4(sp)
10000d00: 83 1c 28 00 40 00 00 00      	lbu.shared	a4, 0x4(sp)
10000d08: a3 00 20 e0 40 00 00 00      	sb.shared	a4, 0x4(sp)
10000d10: 83 04 28 00 40 00 00 00      	lbu.shared	sp, 0x4(sp)
10000d18: 13 0e 00 00 10 01 00 00      	li	t2, 0x11
10000d20: 63 00 22 70 80 fe 00 00      	bne	sp, t2, 0x10001d08 <fail>
10000d28: 17 04 00 f0 8e 2d ff 0f      	auipc	sp, 0xeffff2d8
10000d30: a3 00 24 20 80 00 00 00      	sw.shared	sp, 0x8(sp)
10000d38: 83 08 24 00 80 00 00 00      	lw.shared	tp, 0x8(sp)
10000d40: a3 00 40 10 40 00 00 00      	sb.shared	ra, 0x4(tp)
10000d48: 63 00 42 20 00 fc 00 00      	bne	tp, sp, 0x10001d08 <fail>
10000d50: 83 1c 48 00 40 00 00 00      	lbu.shared	a4, 0x4(tp)
10000d58: 63 00 e2 70 00 fb 00 00      	bne	a4, t2, 0x10001d08 <fail>

10000d60 <test_19>:
10000d60: 13 06 00 00 30 01 00 00      	li	gp, 0x13
10000d68: 17 04 00 f0 8e 29 ff 0f      	auipc	sp, 0xeffff298
10000d70: 13 02 00 00 10 00 00 00      	li	ra, 0x1
10000d78: a3 00 20 10 50 00 00 00      	sb.shared	ra, 0x5(sp)
10000d80: 83 1c 28 00 50 00 00 00      	lbu.shared	a4, 0x5(sp)
10000d88: a3 00 20 e0 50 00 00 00      	sb.shared	a4, 0x5(sp)
10000d90: 83 04 28 00 50 00 00 00      	lbu.shared	sp, 0x5(sp)
10000d98: 13 0e 00 00 10 00 00 00      	li	t2, 0x1
10000da0: 63 00 22 70 80 f6 00 00      	bne	sp, t2, 0x10001d08 <fail>
10000da8: 17 04 00 f0 8e 25 ff 0f      	auipc	sp, 0xeffff258
10000db0: a3 00 24 20 80 00 00 00      	sw.shared	sp, 0x8(sp)
10000db8: 83 08 24 00 80 00 00 00      	lw.shared	tp, 0x8(sp)
10000dc0: a3 00 40 10 50 00 00 00      	sb.shared	ra, 0x5(tp)
10000dc8: 63 00 42 20 00 f4 00 00      	bne	tp, sp, 0x10001d08 <fail>
10000dd0: 83 1c 48 00 50 00 00 00      	lbu.shared	a4, 0x5(tp)
10000dd8: 63 00 e2 70 00 f3 00 00      	bne	a4, t2, 0x10001d08 <fail>

10000de0 <test_20>:
10000de0: 13 06 00 00 40 01 00 00      	li	gp, 0x14
10000de8: 17 04 00 f0 8e 21 ff 0f      	auipc	sp, 0xeffff218
10000df0: 13 02 00 a0 da cd bc 0b      	li	ra, -0x55443323
10000df8: a3 00 24 10 00 00 00 00      	sw.shared	ra, 0x0(sp)
10000e00: 83 1c 24 00 00 00 00 00      	lw.shared	a4, 0x0(sp)
10000e08: a3 00 24 e0 00 00 00 00      	sw.shared	a4, 0x0(sp)
10000e10: 83 04 24 00 00 00 00 00      	lw.shared	sp, 0x0(sp)
10000e18: 13 0e 00 a0 da cd bc 0b      	li	t2, -0x55443323
10000e20: 63 00 22 70 80 ee 00 00      	bne	sp, t2, 0x10001d08 <fail>
10000e28: 17 04 00 f0 8e 1d ff 0f      	auipc	sp, 0xeffff1d8
10000e30: a3 00 24 20 80 00 00 00      	sw.shared	sp, 0x8(sp)
10000e38: 83 08 24 00 80 00 00 00      	lw.shared	tp, 0x8(sp)
10000e40: a3 00 44 10 00 00 00 00      	sw.shared	ra, 0x0(tp)
10000e48: 63 00 42 20 00 ec 00 00      	bne	tp, sp, 0x10001d08 <fail>
10000e50: 83 1c 44 00 00 00 00 00      	lw.shared	a4, 0x0(tp)
10000e58: 63 00 e2 70 00 eb 00 00      	bne	a4, t2, 0x10001d08 <fail>

10000e60 <test_21>:
10000e60: 13 06 00 00 50 01 00 00      	li	gp, 0x15
10000e68: 17 04 00 f0 8e 19 ff 0f      	auipc	sp, 0xeffff198
10000e70: 13 02 00 a0 dd cc bb 0a      	li	ra, -0x25544333
10000e78: a3 00 24 10 40 00 00 00      	sw.shared	ra, 0x4(sp)
10000e80: 83 1c 24 00 40 00 00 00      	lw.shared	a4, 0x4(sp)
10000e88: a3 00 24 e0 40 00 00 00      	sw.shared	a4, 0x4(sp)
10000e90: 83 04 24 00 40 00 00 00      	lw.shared	sp, 0x4(sp)
10000e98: 13 0e 00 a0 dd cc bb 0a      	li	t2, -0x25544333
10000ea0: 63 00 22 70 80 e6 00 00      	bne	sp, t2, 0x10001d08 <fail>
10000ea8: 17 04 00 f0 8e 15 ff 0f      	auipc	sp, 0xeffff158
10000eb0: a3 00 24 20 80 00 00 00      	sw.shared	sp, 0x8(sp)
10000eb8: 83 08 24 00 80 00 00 00      	lw.shared	tp, 0x8(sp)
10000ec0: a3 00 44 10 40 00 00 00      	sw.shared	ra, 0x4(tp)
10000ec8: 63 00 42 20 00 e4 00 00      	bne	tp, sp, 0x10001d08 <fail>
10000ed0: 83 1c 44 00 40 00 00 00      	lw.shared	a4, 0x4(tp)
10000ed8: 63 00 e2 70 00 e3 00 00      	bne	a4, t2, 0x10001d08 <fail>

10000ee0 <test_22>:
10000ee0: 13 06 00 00 60 01 00 00      	li	gp, 0x16
10000ee8: 17 04 00 f0 8e 11 ff 0f      	auipc	sp, 0xeffff118
10000ef0: 13 02 00 d0 cd bc ab 0a      	li	ra, -0x22554434
10000ef8: a3 00 24 10 80 00 00 00      	sw.shared	ra, 0x8(sp)
10000f00: 83 1c 24 00 80 00 00 00      	lw.shared	a4, 0x8(sp)
10000f08: a3 00 24 e0 80 00 00 00      	sw.shared	a4, 0x8(sp)
10000f10: 83 04 24 00 80 00 00 00      	lw.shared	sp, 0x8(sp)
10000f18: 13 0e 00 d0 cd bc ab 0a      	li	t2, -0x22554434
10000f20: 63 00 22 70 80 de 00 00      	bne	sp, t2, 0x10001d08 <fail>
10000f28: 17 04 00 f0 8e 0d ff 0f      	auipc	sp, 0xeffff0d8
10000f30: a3 00 24 20 80 00 00 00      	sw.shared	sp, 0x8(sp)
10000f38: 83 08 24 00 80 00 00 00      	lw.shared	tp, 0x8(sp)
10000f40: a3 00 44 10 80 00 00 00      	sw.shared	ra, 0x8(tp)
10000f48: 63 00 42 20 00 dc 00 00      	bne	tp, sp, 0x10001d08 <fail>
10000f50: 83 1c 44 00 80 00 00 00      	lw.shared	a4, 0x8(tp)
10000f58: 63 00 e2 70 00 db 00 00      	bne	a4, t2, 0x10001d08 <fail>

10000f60 <test_23>:
10000f60: 13 06 00 00 70 01 00 00      	li	gp, 0x17
10000f68: 17 04 00 f0 8e 09 ff 0f      	auipc	sp, 0xeffff098
10000f70: 13 02 00 d0 cc bb aa 0d      	li	ra, -0x32255444
10000f78: a3 00 24 10 c0 00 00 00      	sw.shared	ra, 0xc(sp)
10000f80: 83 1c 24 00 c0 00 00 00      	lw.shared	a4, 0xc(sp)
10000f88: a3 00 24 e0 c0 00 00 00      	sw.shared	a4, 0xc(sp)
10000f90: 83 04 24 00 c0 00 00 00      	lw.shared	sp, 0xc(sp)
10000f98: 13 0e 00 d0 cc bb aa 0d      	li	t2, -0x32255444
10000fa0: 63 00 22 70 80 d6 00 00      	bne	sp, t2, 0x10001d08 <fail>
10000fa8: 17 04 00 f0 8e 05 ff 0f      	auipc	sp, 0xeffff058
10000fb0: a3 00 24 20 80 00 00 00      	sw.shared	sp, 0x8(sp)
10000fb8: 83 08 24 00 80 00 00 00      	lw.shared	tp, 0x8(sp)
10000fc0: a3 00 44 10 c0 00 00 00      	sw.shared	ra, 0xc(tp)
10000fc8: 63 00 42 20 00 d4 00 00      	bne	tp, sp, 0x10001d08 <fail>
10000fd0: 83 1c 44 00 c0 00 00 00      	lw.shared	a4, 0xc(tp)
10000fd8: 63 00 e2 70 00 d3 00 00      	bne	a4, t2, 0x10001d08 <fail>

10000fe0 <test_24>:
10000fe0: 13 06 00 00 80 01 00 00      	li	gp, 0x18
10000fe8: 17 04 00 f0 8e 01 ff 0f      	auipc	sp, 0xeffff018
10000ff0: 13 02 00 c0 bc ab da 0d      	li	ra, -0x33225545
10000ff8: a3 00 24 10 00 01 00 00      	sw.shared	ra, 0x10(sp)
10001000: 83 1c 24 00 00 01 00 00      	lw.shared	a4, 0x10(sp)
10001008: a3 00 24 e0 00 01 00 00      	sw.shared	a4, 0x10(sp)
10001010: 83 04 24 00 00 01 00 00      	lw.shared	sp, 0x10(sp)
10001018: 13 0e 00 c0 bc ab da 0d      	li	t2, -0x33225545
10001020: 63 00 22 70 80 ce 00 00      	bne	sp, t2, 0x10001d08 <fail>
10001028: 17 04 00 f0 8e fd fe 0f      	auipc	sp, 0xefffefd8
10001030: a3 00 24 20 80 00 00 00      	sw.shared	sp, 0x8(sp)
10001038: 83 08 24 00 80 00 00 00      	lw.shared	tp, 0x8(sp)
10001040: a3 00 44 10 00 01 00 00      	sw.shared	ra, 0x10(tp)
10001048: 63 00 42 20 00 cc 00 00      	bne	tp, sp, 0x10001d08 <fail>
10001050: 83 1c 44 00 00 01 00 00      	lw.shared	a4, 0x10(tp)
10001058: 63 00 e2 70 00 cb 00 00      	bne	a4, t2, 0x10001d08 <fail>

10001060 <test_25>:
10001060: 13 06 00 00 90 01 00 00      	li	gp, 0x19
10001068: 17 04 00 f0 8e f9 fe 0f      	auipc	sp, 0xefffef98
10001070: 13 02 00 c0 bb aa dd 0c      	li	ra, -0x43322555
10001078: a3 00 24 10 40 01 00 00      	sw.shared	ra, 0x14(sp)
10001080: 83 1c 24 00 40 01 00 00      	lw.shared	a4, 0x14(sp)
10001088: a3 00 24 e0 40 01 00 00      	sw.shared	a4, 0x14(sp)
10001090: 83 04 24 00 40 01 00 00      	lw.shared	sp, 0x14(sp)
10001098: 13 0e 00 c0 bb aa dd 0c      	li	t2, -0x43322555
100010a0: 63 00 22 70 80 c6 00 00      	bne	sp, t2, 0x10001d08 <fail>
100010a8: 17 04 00 f0 8e f5 fe 0f      	auipc	sp, 0xefffef58
100010b0: a3 00 24 20 80 00 00 00      	sw.shared	sp, 0x8(sp)
100010b8: 83 08 24 00 80 00 00 00      	lw.shared	tp, 0x8(sp)
100010c0: a3 00 44 10 40 01 00 00      	sw.shared	ra, 0x14(tp)
100010c8: 63 00 42 20 00 c4 00 00      	bne	tp, sp, 0x10001d08 <fail>
100010d0: 83 1c 44 00 40 01 00 00      	lw.shared	a4, 0x14(tp)
100010d8: 63 00 e2 70 00 c3 00 00      	bne	a4, t2, 0x10001d08 <fail>

100010e0 <test_26>:
100010e0: 13 06 00 00 a0 01 00 00      	li	gp, 0x1a
100010e8: 17 04 00 f0 8e f1 fe 0f      	auipc	sp, 0xefffef18
100010f0: 13 02 00 00 30 23 12 01      	li	ra, 0x112233
100010f8: a3 00 24 10 00 00 00 00      	sw.shared	ra, 0x0(sp)
10001100: 83 1c 24 00 00 00 00 00      	lw.shared	a4, 0x0(sp)
10001108: a3 00 24 e0 00 00 00 00      	sw.shared	a4, 0x0(sp)
10001110: 83 04 24 00 00 00 00 00      	lw.shared	sp, 0x0(sp)
10001118: 13 0e 00 00 30 23 12 01      	li	t2, 0x112233
10001120: 63 00 22 70 80 be 00 00      	bne	sp, t2, 0x10001d08 <fail>
10001128: 17 04 00 f0 8e ed fe 0f      	auipc	sp, 0xefffeed8
10001130: a3 00 24 20 80 00 00 00      	sw.shared	sp, 0x8(sp)
10001138: 83 08 24 00 80 00 00 00      	lw.shared	tp, 0x8(sp)
10001140: a3 00 44 10 00 00 00 00      	sw.shared	ra, 0x0(tp)
10001148: 63 00 42 20 00 bc 00 00      	bne	tp, sp, 0x10001d08 <fail>
10001150: 83 1c 44 00 00 00 00 00      	lw.shared	a4, 0x0(tp)
10001158: 63 00 e2 70 00 bb 00 00      	bne	a4, t2, 0x10001d08 <fail>

10001160 <test_27>:
10001160: 13 06 00 00 b0 01 00 00      	li	gp, 0x1b
10001168: 17 04 00 f0 8e e9 fe 0f      	auipc	sp, 0xefffee98
10001170: 13 02 00 00 33 22 11 00      	li	ra, 0x30011223
10001178: a3 00 24 10 40 00 00 00      	sw.shared	ra, 0x4(sp)
10001180: 83 1c 24 00 40 00 00 00      	lw.shared	a4, 0x4(sp)
10001188: a3 00 24 e0 40 00 00 00      	sw.shared	a4, 0x4(sp)
10001190: 83 04 24 00 40 00 00 00      	lw.shared	sp, 0x4(sp)
10001198: 13 0e 00 00 33 22 11 00      	li	t2, 0x30011223
100011a0: 63 00 22 70 80 b6 00 00      	bne	sp, t2, 0x10001d08 <fail>
100011a8: 17 04 00 f0 8e e5 fe 0f      	auipc	sp, 0xefffee58
100011b0: a3 00 24 20 80 00 00 00      	sw.shared	sp, 0x8(sp)
100011b8: 83 08 24 00 80 00 00 00      	lw.shared	tp, 0x8(sp)
100011c0: a3 00 44 10 40 00 00 00      	sw.shared	ra, 0x4(tp)
100011c8: 63 00 42 20 00 b4 00 00      	bne	tp, sp, 0x10001d08 <fail>
100011d0: 83 1c 44 00 40 00 00 00      	lw.shared	a4, 0x4(tp)
100011d8: 63 00 e2 70 00 b3 00 00      	bne	a4, t2, 0x10001d08 <fail>

100011e0 <test_28>:
100011e0: 13 06 00 00 c0 01 00 00      	li	gp, 0x1c
100011e8: 17 04 00 f0 8e e1 fe 0f      	auipc	sp, 0xefffee18
100011f0: 13 02 00 30 23 12 01 00      	li	ra, 0x33001122
100011f8: a3 00 24 10 80 00 00 00      	sw.shared	ra, 0x8(sp)
10001200: 83 1c 24 00 80 00 00 00      	lw.shared	a4, 0x8(sp)
10001208: a3 00 24 e0 80 00 00 00      	sw.shared	a4, 0x8(sp)
10001210: 83 04 24 00 80 00 00 00      	lw.shared	sp, 0x8(sp)
10001218: 13 0e 00 30 23 12 01 00      	li	t2, 0x33001122
10001220: 63 00 22 70 80 ae 00 00      	bne	sp, t2, 0x10001d08 <fail>
10001228: 17 04 00 f0 8e dd fe 0f      	auipc	sp, 0xefffedd8
10001230: a3 00 24 20 80 00 00 00      	sw.shared	sp, 0x8(sp)
10001238: 83 08 24 00 80 00 00 00      	lw.shared	tp, 0x8(sp)
10001240: a3 00 44 10 80 00 00 00      	sw.shared	ra, 0x8(tp)
10001248: 63 00 42 20 00 ac 00 00      	bne	tp, sp, 0x10001d08 <fail>
10001250: 83 1c 44 00 80 00 00 00      	lw.shared	a4, 0x8(tp)
10001258: 63 00 e2 70 00 ab 00 00      	bne	a4, t2, 0x10001d08 <fail>

10001260 <test_29>:
10001260: 13 06 00 00 d0 01 00 00      	li	gp, 0x1d
10001268: 17 04 00 f0 8e d9 fe 0f      	auipc	sp, 0xefffed98
10001270: 13 02 00 30 22 11 00 03      	li	ra, 0x23300112
10001278: a3 00 24 10 c0 00 00 00      	sw.shared	ra, 0xc(sp)
10001280: 83 1c 24 00 c0 00 00 00      	lw.shared	a4, 0xc(sp)
10001288: a3 00 24 e0 c0 00 00 00      	sw.shared	a4, 0xc(sp)
10001290: 83 04 24 00 c0 00 00 00      	lw.shared	sp, 0xc(sp)
10001298: 13 0e 00 30 22 11 00 03      	li	t2, 0x23300112
100012a0: 63 00 22 70 80 a6 00 00      	bne	sp, t2, 0x10001d08 <fail>
100012a8: 17 04 00 f0 8e d5 fe 0f      	auipc	sp, 0xefffed58
100012b0: a3 00 24 20 80 00 00 00      	sw.shared	sp, 0x8(sp)
100012b8: 83 08 24 00 80 00 00 00      	lw.shared	tp, 0x8(sp)
100012c0: a3 00 44 10 c0 00 00 00      	sw.shared	ra, 0xc(tp)
100012c8: 63 00 42 20 00 a4 00 00      	bne	tp, sp, 0x10001d08 <fail>
100012d0: 83 1c 44 00 c0 00 00 00      	lw.shared	a4, 0xc(tp)
100012d8: 63 00 e2 70 00 a3 00 00      	bne	a4, t2, 0x10001d08 <fail>

100012e0 <test_30>:
100012e0: 13 06 00 00 e0 01 00 00      	li	gp, 0x1e
100012e8: 17 04 00 f0 8e d1 fe 0f      	auipc	sp, 0xefffed18
100012f0: 13 02 00 20 12 01 30 03      	li	ra, 0x22330011
100012f8: a3 00 24 10 00 01 00 00      	sw.shared	ra, 0x10(sp)
10001300: 83 1c 24 00 00 01 00 00      	lw.shared	a4, 0x10(sp)
10001308: a3 00 24 e0 00 01 00 00      	sw.shared	a4, 0x10(sp)
10001310: 83 04 24 00 00 01 00 00      	lw.shared	sp, 0x10(sp)
10001318: 13 0e 00 20 12 01 30 03      	li	t2, 0x22330011
10001320: 63 00 22 70 80 9e 00 00      	bne	sp, t2, 0x10001d08 <fail>
10001328: 17 04 00 f0 8e cd fe 0f      	auipc	sp, 0xefffecd8
10001330: a3 00 24 20 80 00 00 00      	sw.shared	sp, 0x8(sp)
10001338: 83 08 24 00 80 00 00 00      	lw.shared	tp, 0x8(sp)
10001340: a3 00 44 10 00 01 00 00      	sw.shared	ra, 0x10(tp)
10001348: 63 00 42 20 00 9c 00 00      	bne	tp, sp, 0x10001d08 <fail>
10001350: 83 1c 44 00 00 01 00 00      	lw.shared	a4, 0x10(tp)
10001358: 63 00 e2 70 00 9b 00 00      	bne	a4, t2, 0x10001d08 <fail>

10001360 <test_31>:
10001360: 13 06 00 00 f0 01 00 00      	li	gp, 0x1f
10001368: 17 04 00 f0 8e c9 fe 0f      	auipc	sp, 0xefffec98
10001370: 13 02 00 20 11 00 33 02      	li	ra, 0x12233001
10001378: a3 00 24 10 40 01 00 00      	sw.shared	ra, 0x14(sp)
10001380: 83 1c 24 00 40 01 00 00      	lw.shared	a4, 0x14(sp)
10001388: a3 00 24 e0 40 01 00 00      	sw.shared	a4, 0x14(sp)
10001390: 83 04 24 00 40 01 00 00      	lw.shared	sp, 0x14(sp)
10001398: 13 0e 00 20 11 00 33 02      	li	t2, 0x12233001
100013a0: 63 00 22 70 80 96 00 00      	bne	sp, t2, 0x10001d08 <fail>
100013a8: 17 04 00 f0 8e c5 fe 0f      	auipc	sp, 0xefffec58
100013b0: a3 00 24 20 80 00 00 00      	sw.shared	sp, 0x8(sp)
100013b8: 83 08 24 00 80 00 00 00      	lw.shared	tp, 0x8(sp)
100013c0: a3 00 44 10 40 01 00 00      	sw.shared	ra, 0x14(tp)
100013c8: 63 00 42 20 00 94 00 00      	bne	tp, sp, 0x10001d08 <fail>
100013d0: 83 1c 44 00 40 01 00 00      	lw.shared	a4, 0x14(tp)
100013d8: 63 00 e2 70 00 93 00 00      	bne	a4, t2, 0x10001d08 <fail>

100013e0 <test_32>:
100013e0: 13 06 00 00 00 02 00 00      	li	gp, 0x20
100013e8: 17 04 00 f0 8e c1 fe 0f      	auipc	sp, 0xefffec18
100013f0: 13 02 00 f0 df cd fc 0f      	li	ra, -0x3323
100013f8: a3 00 22 10 00 00 00 00      	sh.shared	ra, 0x0(sp)
10001400: 83 1c 22 00 00 00 00 00      	lh.shared	a4, 0x0(sp)
10001408: a3 00 22 e0 00 00 00 00      	sh.shared	a4, 0x0(sp)
10001410: 83 04 22 00 00 00 00 00      	lh.shared	sp, 0x0(sp)
10001418: 13 0e 00 f0 df cd fc 0f      	li	t2, -0x3323
10001420: 63 00 22 70 80 8e 00 00      	bne	sp, t2, 0x10001d08 <fail>
10001428: 17 04 00 f0 8e bd fe 0f      	auipc	sp, 0xefffebd8
10001430: a3 00 24 20 80 00 00 00      	sw.shared	sp, 0x8(sp)
10001438: 83 08 24 00 80 00 00 00      	lw.shared	tp, 0x8(sp)
10001440: a3 00 42 10 00 00 00 00      	sh.shared	ra, 0x0(tp)
10001448: 63 00 42 20 00 8c 00 00      	bne	tp, sp, 0x10001d08 <fail>
10001450: 83 1c 42 00 00 00 00 00      	lh.shared	a4, 0x0(tp)
10001458: 63 00 e2 70 00 8b 00 00      	bne	a4, t2, 0x10001d08 <fail>

10001460 <test_33>:
10001460: 13 06 00 00 10 02 00 00      	li	gp, 0x21
10001468: 17 04 00 f0 8e b9 fe 0f      	auipc	sp, 0xefffeb98
10001470: 13 02 00 f0 df cc fb 0f      	li	ra, -0x4333
10001478: a3 00 22 10 20 00 00 00      	sh.shared	ra, 0x2(sp)
10001480: 83 1c 22 00 20 00 00 00      	lh.shared	a4, 0x2(sp)
10001488: a3 00 22 e0 20 00 00 00      	sh.shared	a4, 0x2(sp)
10001490: 83 04 22 00 20 00 00 00      	lh.shared	sp, 0x2(sp)
10001498: 13 0e 00 f0 df cc fb 0f      	li	t2, -0x4333
100014a0: 63 00 22 70 80 86 00 00      	bne	sp, t2, 0x10001d08 <fail>
100014a8: 17 04 00 f0 8e b5 fe 0f      	auipc	sp, 0xefffeb58
100014b0: a3 00 24 20 80 00 00 00      	sw.shared	sp, 0x8(sp)
100014b8: 83 08 24 00 80 00 00 00      	lw.shared	tp, 0x8(sp)
100014c0: a3 00 42 10 20 00 00 00      	sh.shared	ra, 0x2(tp)
100014c8: 63 00 42 20 00 84 00 00      	bne	tp, sp, 0x10001d08 <fail>
100014d0: 83 1c 42 00 20 00 00 00      	lh.shared	a4, 0x2(tp)
100014d8: 63 00 e2 70 00 83 00 00      	bne	a4, t2, 0x10001d08 <fail>

100014e0 <test_34>:
100014e0: 13 06 00 00 20 02 00 00      	li	gp, 0x22
100014e8: 17 04 00 f0 8e b1 fe 0f      	auipc	sp, 0xefffeb18
100014f0: 13 02 00 f0 cf bc fb 0f      	li	ra, -0x4434
100014f8: a3 00 22 10 40 00 00 00      	sh.shared	ra, 0x4(sp)
10001500: 83 1c 22 00 40 00 00 00      	lh.shared	a4, 0x4(sp)
10001508: a3 00 22 e0 40 00 00 00      	sh.shared	a4, 0x4(sp)
10001510: 83 04 22 00 40 00 00 00      	lh.shared	sp, 0x4(sp)
10001518: 13 0e 00 f0 cf bc fb 0f      	li	t2, -0x4434
10001520: 63 00 22 70 80 7e 00 00      	bne	sp, t2, 0x10001d08 <fail>
10001528: 17 04 00 f0 8e ad fe 0f      	auipc	sp, 0xefffead8
10001530: a3 00 24 20 80 00 00 00      	sw.shared	sp, 0x8(sp)
10001538: 83 08 24 00 80 00 00 00      	lw.shared	tp, 0x8(sp)
10001540: a3 00 42 10 40 00 00 00      	sh.shared	ra, 0x4(tp)
10001548: 63 00 42 20 00 7c 00 00      	bne	tp, sp, 0x10001d08 <fail>
10001550: 83 1c 42 00 40 00 00 00      	lh.shared	a4, 0x4(tp)
10001558: 63 00 e2 70 00 7b 00 00      	bne	a4, t2, 0x10001d08 <fail>

10001560 <test_35>:
10001560: 13 06 00 00 30 02 00 00      	li	gp, 0x23
10001568: 17 04 00 f0 8e a9 fe 0f      	auipc	sp, 0xefffea98
10001570: 13 02 00 f0 cf bb fa 0f      	li	ra, -0x5444
10001578: a3 00 22 10 60 00 00 00      	sh.shared	ra, 0x6(sp)
10001580: 83 1c 22 00 60 00 00 00      	lh.shared	a4, 0x6(sp)
10001588: a3 00 22 e0 60 00 00 00      	sh.shared	a4, 0x6(sp)
10001590: 83 04 22 00 60 00 00 00      	lh.shared	sp, 0x6(sp)
10001598: 13 0e 00 f0 cf bb fa 0f      	li	t2, -0x5444
100015a0: 63 00 22 70 80 76 00 00      	bne	sp, t2, 0x10001d08 <fail>
100015a8: 17 04 00 f0 8e a5 fe 0f      	auipc	sp, 0xefffea58
100015b0: a3 00 24 20 80 00 00 00      	sw.shared	sp, 0x8(sp)
100015b8: 83 08 24 00 80 00 00 00      	lw.shared	tp, 0x8(sp)
100015c0: a3 00 42 10 60 00 00 00      	sh.shared	ra, 0x6(tp)
100015c8: 63 00 42 20 00 74 00 00      	bne	tp, sp, 0x10001d08 <fail>
100015d0: 83 1c 42 00 60 00 00 00      	lh.shared	a4, 0x6(tp)
100015d8: 63 00 e2 70 00 73 00 00      	bne	a4, t2, 0x10001d08 <fail>

100015e0 <test_36>:
100015e0: 13 06 00 00 40 02 00 00      	li	gp, 0x24
100015e8: 17 04 00 f0 8e a1 fe 0f      	auipc	sp, 0xefffea18
100015f0: 13 02 00 f0 bf ab fa 0f      	li	ra, -0x5545
100015f8: a3 00 22 10 80 00 00 00      	sh.shared	ra, 0x8(sp)
10001600: 83 1c 22 00 80 00 00 00      	lh.shared	a4, 0x8(sp)
10001608: a3 00 22 e0 80 00 00 00      	sh.shared	a4, 0x8(sp)
10001610: 83 04 22 00 80 00 00 00      	lh.shared	sp, 0x8(sp)
10001618: 13 0e 00 f0 bf ab fa 0f      	li	t2, -0x5545
10001620: 63 00 22 70 80 6e 00 00      	bne	sp, t2, 0x10001d08 <fail>
10001628: 17 04 00 f0 8e 9d fe 0f      	auipc	sp, 0xefffe9d8
10001630: a3 00 24 20 80 00 00 00      	sw.shared	sp, 0x8(sp)
10001638: 83 08 24 00 80 00 00 00      	lw.shared	tp, 0x8(sp)
10001640: a3 00 42 10 80 00 00 00      	sh.shared	ra, 0x8(tp)
10001648: 63 00 42 20 00 6c 00 00      	bne	tp, sp, 0x10001d08 <fail>
10001650: 83 1c 42 00 80 00 00 00      	lh.shared	a4, 0x8(tp)
10001658: 63 00 e2 70 00 6b 00 00      	bne	a4, t2, 0x10001d08 <fail>

10001660 <test_37>:
10001660: 13 06 00 00 50 02 00 00      	li	gp, 0x25
10001668: 17 04 00 f0 8e 99 fe 0f      	auipc	sp, 0xefffe998
10001670: 13 02 00 f0 bf aa fd 0f      	li	ra, -0x2555
10001678: a3 00 22 10 a0 00 00 00      	sh.shared	ra, 0xa(sp)
10001680: 83 1c 22 00 a0 00 00 00      	lh.shared	a4, 0xa(sp)
10001688: a3 00 22 e0 a0 00 00 00      	sh.shared	a4, 0xa(sp)
10001690: 83 04 22 00 a0 00 00 00      	lh.shared	sp, 0xa(sp)
10001698: 13 0e 00 f0 bf aa fd 0f      	li	t2, -0x2555
100016a0: 63 00 22 70 80 66 00 00      	bne	sp, t2, 0x10001d08 <fail>
100016a8: 17 04 00 f0 8e 95 fe 0f      	auipc	sp, 0xefffe958
100016b0: a3 00 24 20 80 00 00 00      	sw.shared	sp, 0x8(sp)
100016b8: 83 08 24 00 80 00 00 00      	lw.shared	tp, 0x8(sp)
100016c0: a3 00 42 10 a0 00 00 00      	sh.shared	ra, 0xa(tp)
100016c8: 63 00 42 20 00 64 00 00      	bne	tp, sp, 0x10001d08 <fail>
100016d0: 83 1c 42 00 a0 00 00 00      	lh.shared	a4, 0xa(tp)
100016d8: 63 00 e2 70 00 63 00 00      	bne	a4, t2, 0x10001d08 <fail>

100016e0 <test_38>:
100016e0: 13 06 00 00 60 02 00 00      	li	gp, 0x26
100016e8: 17 04 00 f0 8e 91 fe 0f      	auipc	sp, 0xefffe918
100016f0: 13 02 00 00 30 23 02 00      	li	ra, 0x2233
100016f8: a3 00 22 10 00 00 00 00      	sh.shared	ra, 0x0(sp)
10001700: 83 1c 22 00 00 00 00 00      	lh.shared	a4, 0x0(sp)
10001708: a3 00 22 e0 00 00 00 00      	sh.shared	a4, 0x0(sp)
10001710: 83 04 22 00 00 00 00 00      	lh.shared	sp, 0x0(sp)
10001718: 13 0e 00 00 30 23 02 00      	li	t2, 0x2233
10001720: 63 00 22 70 80 5e 00 00      	bne	sp, t2, 0x10001d08 <fail>
10001728: 17 04 00 f0 8e 8d fe 0f      	auipc	sp, 0xefffe8d8
10001730: a3 00 24 20 80 00 00 00      	sw.shared	sp, 0x8(sp)
10001738: 83 08 24 00 80 00 00 00      	lw.shared	tp, 0x8(sp)
10001740: a3 00 42 10 00 00 00 00      	sh.shared	ra, 0x0(tp)
10001748: 63 00 42 20 00 5c 00 00      	bne	tp, sp, 0x10001d08 <fail>
10001750: 83 1c 42 00 00 00 00 00      	lh.shared	a4, 0x0(tp)
10001758: 63 00 e2 70 00 5b 00 00      	bne	a4, t2, 0x10001d08 <fail>

10001760 <test_39>:
10001760: 13 06 00 00 70 02 00 00      	li	gp, 0x27
10001768: 17 04 00 f0 8e 89 fe 0f      	auipc	sp, 0xefffe898
10001770: 13 02 00 00 30 22 01 00      	li	ra, 0x1223
10001778: a3 00 22 10 20 00 00 00      	sh.shared	ra, 0x2(sp)
10001780: 83 1c 22 00 20 00 00 00      	lh.shared	a4, 0x2(sp)
10001788: a3 00 22 e0 20 00 00 00      	sh.shared	a4, 0x2(sp)
10001790: 83 04 22 00 20 00 00 00      	lh.shared	sp, 0x2(sp)
10001798: 13 0e 00 00 30 22 01 00      	li	t2, 0x1223
100017a0: 63 00 22 70 80 56 00 00      	bne	sp, t2, 0x10001d08 <fail>
100017a8: 17 04 00 f0 8e 85 fe 0f      	auipc	sp, 0xefffe858
100017b0: a3 00 24 20 80 00 00 00      	sw.shared	sp, 0x8(sp)
100017b8: 83 08 24 00 80 00 00 00      	lw.shared	tp, 0x8(sp)
100017c0: a3 00 42 10 20 00 00 00      	sh.shared	ra, 0x2(tp)
100017c8: 63 00 42 20 00 54 00 00      	bne	tp, sp, 0x10001d08 <fail>
100017d0: 83 1c 42 00 20 00 00 00      	lh.shared	a4, 0x2(tp)
100017d8: 63 00 e2 70 00 53 00 00      	bne	a4, t2, 0x10001d08 <fail>

100017e0 <test_40>:
100017e0: 13 06 00 00 80 02 00 00      	li	gp, 0x28
100017e8: 17 04 00 f0 8e 81 fe 0f      	auipc	sp, 0xefffe818
100017f0: 13 02 00 00 20 12 01 00      	li	ra, 0x1122
100017f8: a3 00 22 10 40 00 00 00      	sh.shared	ra, 0x4(sp)
10001800: 83 1c 22 00 40 00 00 00      	lh.shared	a4, 0x4(sp)
10001808: a3 00 22 e0 40 00 00 00      	sh.shared	a4, 0x4(sp)
10001810: 83 04 22 00 40 00 00 00      	lh.shared	sp, 0x4(sp)
10001818: 13 0e 00 00 20 12 01 00      	li	t2, 0x1122
10001820: 63 00 22 70 80 4e 00 00      	bne	sp, t2, 0x10001d08 <fail>
10001828: 17 04 00 f0 8e 7d fe 0f      	auipc	sp, 0xefffe7d8
10001830: a3 00 24 20 80 00 00 00      	sw.shared	sp, 0x8(sp)
10001838: 83 08 24 00 80 00 00 00      	lw.shared	tp, 0x8(sp)
10001840: a3 00 42 10 40 00 00 00      	sh.shared	ra, 0x4(tp)
10001848: 63 00 42 20 00 4c 00 00      	bne	tp, sp, 0x10001d08 <fail>
10001850: 83 1c 42 00 40 00 00 00      	lh.shared	a4, 0x4(tp)
10001858: 63 00 e2 70 00 4b 00 00      	bne	a4, t2, 0x10001d08 <fail>

10001860 <test_41>:
10001860: 13 06 00 00 90 02 00 00      	li	gp, 0x29
10001868: 17 04 00 f0 8e 79 fe 0f      	auipc	sp, 0xefffe798
10001870: 13 02 00 00 20 11 00 00      	li	ra, 0x112
10001878: a3 00 22 10 60 00 00 00      	sh.shared	ra, 0x6(sp)
10001880: 83 1c 22 00 60 00 00 00      	lh.shared	a4, 0x6(sp)
10001888: a3 00 22 e0 60 00 00 00      	sh.shared	a4, 0x6(sp)
10001890: 83 04 22 00 60 00 00 00      	lh.shared	sp, 0x6(sp)
10001898: 13 0e 00 00 20 11 00 00      	li	t2, 0x112
100018a0: 63 00 22 70 80 46 00 00      	bne	sp, t2, 0x10001d08 <fail>
100018a8: 17 04 00 f0 8e 75 fe 0f      	auipc	sp, 0xefffe758
100018b0: a3 00 24 20 80 00 00 00      	sw.shared	sp, 0x8(sp)
100018b8: 83 08 24 00 80 00 00 00      	lw.shared	tp, 0x8(sp)
100018c0: a3 00 42 10 60 00 00 00      	sh.shared	ra, 0x6(tp)
100018c8: 63 00 42 20 00 44 00 00      	bne	tp, sp, 0x10001d08 <fail>
100018d0: 83 1c 42 00 60 00 00 00      	lh.shared	a4, 0x6(tp)
100018d8: 63 00 e2 70 00 43 00 00      	bne	a4, t2, 0x10001d08 <fail>

100018e0 <test_42>:
100018e0: 13 06 00 00 a0 02 00 00      	li	gp, 0x2a
100018e8: 17 04 00 f0 8e 71 fe 0f      	auipc	sp, 0xefffe718
100018f0: 13 02 00 00 10 01 00 00      	li	ra, 0x11
100018f8: a3 00 22 10 80 00 00 00      	sh.shared	ra, 0x8(sp)
10001900: 83 1c 22 00 80 00 00 00      	lh.shared	a4, 0x8(sp)
10001908: a3 00 22 e0 80 00 00 00      	sh.shared	a4, 0x8(sp)
10001910: 83 04 22 00 80 00 00 00      	lh.shared	sp, 0x8(sp)
10001918: 13 0e 00 00 10 01 00 00      	li	t2, 0x11
10001920: 63 00 22 70 80 3e 00 00      	bne	sp, t2, 0x10001d08 <fail>
10001928: 17 04 00 f0 8e 6d fe 0f      	auipc	sp, 0xefffe6d8
10001930: a3 00 24 20 80 00 00 00      	sw.shared	sp, 0x8(sp)
10001938: 83 08 24 00 80 00 00 00      	lw.shared	tp, 0x8(sp)
10001940: a3 00 42 10 80 00 00 00      	sh.shared	ra, 0x8(tp)
10001948: 63 00 42 20 00 3c 00 00      	bne	tp, sp, 0x10001d08 <fail>
10001950: 83 1c 42 00 80 00 00 00      	lh.shared	a4, 0x8(tp)
10001958: 63 00 e2 70 00 3b 00 00      	bne	a4, t2, 0x10001d08 <fail>

10001960 <test_43>:
10001960: 13 06 00 00 b0 02 00 00      	li	gp, 0x2b
10001968: 17 04 00 f0 8e 69 fe 0f      	auipc	sp, 0xefffe698
10001970: 13 02 00 00 10 00 03 00      	li	ra, 0x3001
10001978: a3 00 22 10 a0 00 00 00      	sh.shared	ra, 0xa(sp)
10001980: 83 1c 22 00 a0 00 00 00      	lh.shared	a4, 0xa(sp)
10001988: a3 00 22 e0 a0 00 00 00      	sh.shared	a4, 0xa(sp)
10001990: 83 04 22 00 a0 00 00 00      	lh.shared	sp, 0xa(sp)
10001998: 13 0e 00 00 10 00 03 00      	li	t2, 0x3001
100019a0: 63 00 22 70 80 36 00 00      	bne	sp, t2, 0x10001d08 <fail>
100019a8: 17 04 00 f0 8e 65 fe 0f      	auipc	sp, 0xefffe658
100019b0: a3 00 24 20 80 00 00 00      	sw.shared	sp, 0x8(sp)
100019b8: 83 08 24 00 80 00 00 00      	lw.shared	tp, 0x8(sp)
100019c0: a3 00 42 10 a0 00 00 00      	sh.shared	ra, 0xa(tp)
100019c8: 63 00 42 20 00 34 00 00      	bne	tp, sp, 0x10001d08 <fail>
100019d0: 83 1c 42 00 a0 00 00 00      	lh.shared	a4, 0xa(tp)
100019d8: 63 00 e2 70 00 33 00 00      	bne	a4, t2, 0x10001d08 <fail>

100019e0 <test_44>:
100019e0: 13 06 00 00 c0 02 00 00      	li	gp, 0x2c
100019e8: 17 04 00 f0 8e 61 fe 0f      	auipc	sp, 0xefffe618
100019f0: 13 02 00 00 30 23 02 00      	li	ra, 0x2233
100019f8: a3 00 22 10 00 00 00 00      	sh.shared	ra, 0x0(sp)
10001a00: 83 1c 2a 00 00 00 00 00      	lhu.shared	a4, 0x0(sp)
10001a08: a3 00 22 e0 00 00 00 00      	sh.shared	a4, 0x0(sp)
10001a10: 83 04 2a 00 00 00 00 00      	lhu.shared	sp, 0x0(sp)
10001a18: 13 0e 00 00 30 23 02 00      	li	t2, 0x2233
10001a20: 63 00 22 70 80 2e 00 00      	bne	sp, t2, 0x10001d08 <fail>
10001a28: 17 04 00 f0 8e 5d fe 0f      	auipc	sp, 0xefffe5d8
10001a30: a3 00 24 20 80 00 00 00      	sw.shared	sp, 0x8(sp)
10001a38: 83 08 24 00 80 00 00 00      	lw.shared	tp, 0x8(sp)
10001a40: a3 00 42 10 00 00 00 00      	sh.shared	ra, 0x0(tp)
10001a48: 63 00 42 20 00 2c 00 00      	bne	tp, sp, 0x10001d08 <fail>
10001a50: 83 1c 4a 00 00 00 00 00      	lhu.shared	a4, 0x0(tp)
10001a58: 63 00 e2 70 00 2b 00 00      	bne	a4, t2, 0x10001d08 <fail>

10001a60 <test_45>:
10001a60: 13 06 00 00 d0 02 00 00      	li	gp, 0x2d
10001a68: 17 04 00 f0 8e 59 fe 0f      	auipc	sp, 0xefffe598
10001a70: 13 02 00 00 30 22 01 00      	li	ra, 0x1223
10001a78: a3 00 22 10 20 00 00 00      	sh.shared	ra, 0x2(sp)
10001a80: 83 1c 2a 00 20 00 00 00      	lhu.shared	a4, 0x2(sp)
10001a88: a3 00 22 e0 20 00 00 00      	sh.shared	a4, 0x2(sp)
10001a90: 83 04 2a 00 20 00 00 00      	lhu.shared	sp, 0x2(sp)
10001a98: 13 0e 00 00 30 22 01 00      	li	t2, 0x1223
10001aa0: 63 00 22 70 80 26 00 00      	bne	sp, t2, 0x10001d08 <fail>
10001aa8: 17 04 00 f0 8e 55 fe 0f      	auipc	sp, 0xefffe558
10001ab0: a3 00 24 20 80 00 00 00      	sw.shared	sp, 0x8(sp)
10001ab8: 83 08 24 00 80 00 00 00      	lw.shared	tp, 0x8(sp)
10001ac0: a3 00 42 10 20 00 00 00      	sh.shared	ra, 0x2(tp)
10001ac8: 63 00 42 20 00 24 00 00      	bne	tp, sp, 0x10001d08 <fail>
10001ad0: 83 1c 4a 00 20 00 00 00      	lhu.shared	a4, 0x2(tp)
10001ad8: 63 00 e2 70 00 23 00 00      	bne	a4, t2, 0x10001d08 <fail>

10001ae0 <test_46>:
10001ae0: 13 06 00 00 e0 02 00 00      	li	gp, 0x2e
10001ae8: 17 04 00 f0 8e 51 fe 0f      	auipc	sp, 0xefffe518
10001af0: 13 02 00 00 20 12 01 00      	li	ra, 0x1122
10001af8: a3 00 22 10 40 00 00 00      	sh.shared	ra, 0x4(sp)
10001b00: 83 1c 2a 00 40 00 00 00      	lhu.shared	a4, 0x4(sp)
10001b08: a3 00 22 e0 40 00 00 00      	sh.shared	a4, 0x4(sp)
10001b10: 83 04 2a 00 40 00 00 00      	lhu.shared	sp, 0x4(sp)
10001b18: 13 0e 00 00 20 12 01 00      	li	t2, 0x1122
10001b20: 63 00 22 70 80 1e 00 00      	bne	sp, t2, 0x10001d08 <fail>
10001b28: 17 04 00 f0 8e 4d fe 0f      	auipc	sp, 0xefffe4d8
10001b30: a3 00 24 20 80 00 00 00      	sw.shared	sp, 0x8(sp)
10001b38: 83 08 24 00 80 00 00 00      	lw.shared	tp, 0x8(sp)
10001b40: a3 00 42 10 40 00 00 00      	sh.shared	ra, 0x4(tp)
10001b48: 63 00 42 20 00 1c 00 00      	bne	tp, sp, 0x10001d08 <fail>
10001b50: 83 1c 4a 00 40 00 00 00      	lhu.shared	a4, 0x4(tp)
10001b58: 63 00 e2 70 00 1b 00 00      	bne	a4, t2, 0x10001d08 <fail>

10001b60 <test_47>:
10001b60: 13 06 00 00 f0 02 00 00      	li	gp, 0x2f
10001b68: 17 04 00 f0 8e 49 fe 0f      	auipc	sp, 0xefffe498
10001b70: 13 02 00 00 20 11 00 00      	li	ra, 0x112
10001b78: a3 00 22 10 60 00 00 00      	sh.shared	ra, 0x6(sp)
10001b80: 83 1c 2a 00 60 00 00 00      	lhu.shared	a4, 0x6(sp)
10001b88: a3 00 22 e0 60 00 00 00      	sh.shared	a4, 0x6(sp)
10001b90: 83 04 2a 00 60 00 00 00      	lhu.shared	sp, 0x6(sp)
10001b98: 13 0e 00 00 20 11 00 00      	li	t2, 0x112
10001ba0: 63 00 22 70 80 16 00 00      	bne	sp, t2, 0x10001d08 <fail>
10001ba8: 17 04 00 f0 8e 45 fe 0f      	auipc	sp, 0xefffe458
10001bb0: a3 00 24 20 80 00 00 00      	sw.shared	sp, 0x8(sp)
10001bb8: 83 08 24 00 80 00 00 00      	lw.shared	tp, 0x8(sp)
10001bc0: a3 00 42 10 60 00 00 00      	sh.shared	ra, 0x6(tp)
10001bc8: 63 00 42 20 00 14 00 00      	bne	tp, sp, 0x10001d08 <fail>
10001bd0: 83 1c 4a 00 60 00 00 00      	lhu.shared	a4, 0x6(tp)
10001bd8: 63 00 e2 70 00 13 00 00      	bne	a4, t2, 0x10001d08 <fail>

10001be0 <test_48>:
10001be0: 13 06 00 00 00 03 00 00      	li	gp, 0x30
10001be8: 17 04 00 f0 8e 41 fe 0f      	auipc	sp, 0xefffe418
10001bf0: 13 02 00 00 10 01 00 00      	li	ra, 0x11
10001bf8: a3 00 22 10 80 00 00 00      	sh.shared	ra, 0x8(sp)
10001c00: 83 1c 2a 00 80 00 00 00      	lhu.shared	a4, 0x8(sp)
10001c08: a3 00 22 e0 80 00 00 00      	sh.shared	a4, 0x8(sp)
10001c10: 83 04 2a 00 80 00 00 00      	lhu.shared	sp, 0x8(sp)
10001c18: 13 0e 00 00 10 01 00 00      	li	t2, 0x11
10001c20: 63 00 22 70 80 0e 00 00      	bne	sp, t2, 0x10001d08 <fail>
10001c28: 17 04 00 f0 8e 3d fe 0f      	auipc	sp, 0xefffe3d8
10001c30: a3 00 24 20 80 00 00 00      	sw.shared	sp, 0x8(sp)
10001c38: 83 08 24 00 80 00 00 00      	lw.shared	tp, 0x8(sp)
10001c40: a3 00 42 10 80 00 00 00      	sh.shared	ra, 0x8(tp)
10001c48: 63 00 42 20 00 0c 00 00      	bne	tp, sp, 0x10001d08 <fail>
10001c50: 83 1c 4a 00 80 00 00 00      	lhu.shared	a4, 0x8(tp)
10001c58: 63 00 e2 70 00 0b 00 00      	bne	a4, t2, 0x10001d08 <fail>

10001c60 <test_49>:
10001c60: 13 06 00 00 10 03 00 00      	li	gp, 0x31
10001c68: 17 04 00 f0 8e 39 fe 0f      	auipc	sp, 0xefffe398
10001c70: 13 02 00 00 10 00 03 00      	li	ra, 0x3001
10001c78: a3 00 22 10 a0 00 00 00      	sh.shared	ra, 0xa(sp)
10001c80: 83 1c 2a 00 a0 00 00 00      	lhu.shared	a4, 0xa(sp)
10001c88: a3 00 22 e0 a0 00 00 00      	sh.shared	a4, 0xa(sp)
10001c90: 83 04 2a 00 a0 00 00 00      	lhu.shared	sp, 0xa(sp)
10001c98: 13 0e 00 00 10 00 03 00      	li	t2, 0x3001
10001ca0: 63 00 22 70 80 06 00 00      	bne	sp, t2, 0x10001d08 <fail>
10001ca8: 17 04 00 f0 8e 35 fe 0f      	auipc	sp, 0xefffe358
10001cb0: a3 00 24 20 80 00 00 00      	sw.shared	sp, 0x8(sp)
10001cb8: 83 08 24 00 80 00 00 00      	lw.shared	tp, 0x8(sp)
10001cc0: a3 00 42 10 a0 00 00 00      	sh.shared	ra, 0xa(tp)
10001cc8: 63 00 42 20 00 04 00 00      	bne	tp, sp, 0x10001d08 <fail>
10001cd0: 83 1c 4a 00 a0 00 00 00      	lhu.shared	a4, 0xa(tp)
10001cd8: 63 00 e2 70 00 03 00 00      	bne	a4, t2, 0x10001d08 <fail>
10001ce0: 13 14 00 00 f0 0e 00 00      	li	a0, 0xef
10001ce8: 17 16 00 f0 8e 31 fe 0f      	auipc	a1, 0xefffe318
10001cf0: a3 00 b0 a0 30 00 00 00      	sb.shared	a0, 0x3(a1)
10001cf8: 83 18 b0 00 30 00 00 00      	lb.shared	a2, 0x3(a1)
10001d00: 63 00 02 30 80 03 00 00      	bne	zero, gp, 0x10001d38 <pass>

10001d08 <fail>:
10001d08: 0f 00 00 00 f0 0f 00 00      	fence
10001d10: 63 00 30 00 00 00 00 00      	beqz	gp, 0x10001d10 <fail+0x8>
10001d18: 13 06 32 00 10 00 00 00      	slli	gp, gp, 0x1
10001d20: 13 06 3c 00 10 00 00 00      	ori	gp, gp, 0x1
10001d28: 13 14 30 00 00 00 00 00      	mv	a0, gp
10001d30: 73 00 a0 00 20 00 00 00      	tohost	a0

10001d38 <pass>:
10001d38: 0f 00 00 00 f0 0f 00 00      	fence
10001d40: 13 06 00 00 10 00 00 00      	li	gp, 0x1
10001d48: 13 14 00 00 00 00 00 00      	li	a0, 0x0
10001d50: 73 00 a0 00 20 00 00 00      	tohost	a0
10001d58: 13 00 00 00 00 00 00 00      	nop
10001d60: 13 00 00 00 00 00 00 00      	nop
10001d68: 73 00 02 00 00 c0 00 00      	unimp

Disassembly of section .tohost:

10002000 <tohost>:
		...

10002040 <fromhost>:
		...

Disassembly of section .data:

10003000 <tdat_global>:
10003000: ef be ad de ef be ad de      	<unknown>
10003008: ef be ad de ef be ad de      	<unknown>
10003010: ef be ad de ef be ad de      	<unknown>
10003018: ef be ad de ef be ad de      	<unknown>
10003020: ef be ad de ef be ad de      	<unknown>
10003028: ef be ad de ef be ad de      	<unknown>
10003030: ef be ad de ef be ad de      	<unknown>
10003038: ef be ad de ef be ad de      	<unknown>
10003040: ef be ad de ef be ad de      	<unknown>
10003048: ef be ad de ef be ad de      	<unknown>

Disassembly of section .riscv.attributes:

00000000 <.riscv.attributes>:
       0: 41 30        	<unknown>
       2: 00 00        	<unknown>
       4: 00 72        	<unknown>
       6: 69 73        	<unknown>
       8: 63 76 00 01 26 00 00 00      	beq	a6, t7, 0x3b00000a <_end+0x2affc00a>
      10: 05 72        	<unknown>
      12: 76 33        	<unknown>
      14: 32 69        	<unknown>
      16: 32 70        	<unknown>
      18: 31 5f        	<unknown>
      1a: 6d 32        	<unknown>
      1c: 70 30        	<unknown>
      1e: 5f 7a 69 63 73 72 32 70      	<unknown>
      26: 30 5f        	<unknown>
      28: 7a 66        	<unknown>
      2a: 69 6e        	<unknown>
      2c: 78 31        	<unknown>
      2e: 70 30        	<unknown>
      30: 00           	<unknown>

Disassembly of section .comment:

00000000 <.comment>:
       0: 4c 69        	<unknown>
       2: 6e 6b        	<unknown>
       4: 65 72        	<unknown>
       6: 3a 20        	<unknown>
       8: 4c 4c        	<unknown>
       a: 44 20        	<unknown>
       c: 31 38        	<unknown>
       e: 2e 31        	<unknown>
      10: 2e 37        	<unknown>
      12: 00           	<unknown>

Disassembly of section .symtab:

00000000 <.symtab>:
		...
      10: 01 00        	<unknown>
      12: 00 00        	<unknown>
      14: 00 00        	<unknown>
      16: 00 10        	<unknown>
      18: 00 00        	<unknown>
      1a: 00 00        	<unknown>
      1c: 00 00        	<unknown>
      1e: 02 00        	<unknown>
      20: 06 00        	<unknown>
      22: 00 00        	<unknown>
      24: 38 00        	<unknown>
      26: 00 10        	<unknown>
      28: 00 00        	<unknown>
      2a: 00 00        	<unknown>
      2c: 00 00        	<unknown>
      2e: 02 00        	<unknown>
      30: 13 00 00 00 08 00 00 10      	<unknown>
      38: 00 00        	<unknown>
      3a: 00 00        	<unknown>
      3c: 00 00        	<unknown>
      3e: 02 00        	<unknown>
      40: 24 00        	<unknown>
      42: 00 00        	<unknown>
      44: 08 00        	<unknown>
      46: 00 10        	<unknown>
      48: 00 00        	<unknown>
      4a: 00 00        	<unknown>
      4c: 00 00        	<unknown>
      4e: 02 00        	<unknown>
      50: 34 00        	<unknown>
      52: 00 00        	<unknown>
      54: 10 00        	<unknown>
      56: 00 10        	<unknown>
      58: 00 00        	<unknown>
      5a: 00 00        	<unknown>
      5c: 00 00        	<unknown>
      5e: 02 00        	<unknown>
      60: 41 00        	<unknown>
      62: 00 00        	<unknown>
      64: 00 30        	<unknown>
      66: 00 10        	<unknown>
      68: 00 00        	<unknown>
      6a: 00 00        	<unknown>
      6c: 00 00        	<unknown>
      6e: 05 00        	<unknown>
      70: 4d 00        	<unknown>
		...
      7e: 01 00        	<unknown>
      80: 52 00        	<unknown>
      82: 00 00        	<unknown>
      84: b0 04        	<unknown>
      86: 00 10        	<unknown>
      88: 00 00        	<unknown>
      8a: 00 00        	<unknown>
      8c: 00 00        	<unknown>
      8e: 02 00        	<unknown>
      90: 57 00 00 00 e0 04 00 10      	<unknown>
      98: 00 00        	<unknown>
      9a: 00 00        	<unknown>
      9c: 00 00        	<unknown>
      9e: 02 00        	<unknown>
      a0: 5e 00        	<unknown>
      a2: 00 00        	<unknown>
      a4: 08 1d        	<unknown>
      a6: 00 10        	<unknown>
      a8: 00 00        	<unknown>
      aa: 00 00        	<unknown>
      ac: 00 00        	<unknown>
      ae: 02 00        	<unknown>
      b0: 63 00 00 00 60 05 00 10      	<unknown>
      b8: 00 00        	<unknown>
      ba: 00 00        	<unknown>
      bc: 00 00        	<unknown>
      be: 02 00        	<unknown>
      c0: 6a 00        	<unknown>
      c2: 00 00        	<unknown>
      c4: e0 05        	<unknown>
      c6: 00 10        	<unknown>
      c8: 00 00        	<unknown>
      ca: 00 00        	<unknown>
      cc: 00 00        	<unknown>
      ce: 02 00        	<unknown>
      d0: 71 00        	<unknown>
      d2: 00 00        	<unknown>
      d4: 60 06        	<unknown>
      d6: 00 10        	<unknown>
      d8: 00 00        	<unknown>
      da: 00 00        	<unknown>
      dc: 00 00        	<unknown>
      de: 02 00        	<unknown>
      e0: 78 00        	<unknown>
      e2: 00 00        	<unknown>
      e4: e0 06        	<unknown>
      e6: 00 10        	<unknown>
      e8: 00 00        	<unknown>
      ea: 00 00        	<unknown>
      ec: 00 00        	<unknown>
      ee: 02 00        	<unknown>
      f0: 7f 00 00 00 60 07 00 10      	<unknown>
      f8: 00 00        	<unknown>
      fa: 00 00        	<unknown>
      fc: 00 00        	<unknown>
      fe: 02 00        	<unknown>
     100: 86 00        	<unknown>
     102: 00 00        	<unknown>
     104: e0 07        	<unknown>
     106: 00 10        	<unknown>
     108: 00 00        	<unknown>
     10a: 00 00        	<unknown>
     10c: 00 00        	<unknown>
     10e: 02 00        	<unknown>
     110: 8d 00        	<unknown>
     112: 00 00        	<unknown>
     114: 60 08        	<unknown>
     116: 00 10        	<unknown>
     118: 00 00        	<unknown>
     11a: 00 00        	<unknown>
     11c: 00 00        	<unknown>
     11e: 02 00        	<unknown>
     120: 94 00        	<unknown>
     122: 00 00        	<unknown>
     124: e0 08        	<unknown>
     126: 00 10        	<unknown>
     128: 00 00        	<unknown>
     12a: 00 00        	<unknown>
     12c: 00 00        	<unknown>
     12e: 02 00        	<unknown>
     130: 9c 00        	<unknown>
     132: 00 00        	<unknown>
     134: 60 09        	<unknown>
     136: 00 10        	<unknown>
     138: 00 00        	<unknown>
     13a: 00 00        	<unknown>
     13c: 00 00        	<unknown>
     13e: 02 00        	<unknown>
     140: a4 00        	<unknown>
     142: 00 00        	<unknown>
     144: e0 09        	<unknown>
     146: 00 10        	<unknown>
     148: 00 00        	<unknown>
     14a: 00 00        	<unknown>
     14c: 00 00        	<unknown>
     14e: 02 00        	<unknown>
     150: ac 00        	<unknown>
     152: 00 00        	<unknown>
     154: 60 0a        	<unknown>
     156: 00 10        	<unknown>
     158: 00 00        	<unknown>
     15a: 00 00        	<unknown>
     15c: 00 00        	<unknown>
     15e: 02 00        	<unknown>
     160: b4 00        	<unknown>
     162: 00 00        	<unknown>
     164: e0 0a        	<unknown>
     166: 00 10        	<unknown>
     168: 00 00        	<unknown>
     16a: 00 00        	<unknown>
     16c: 00 00        	<unknown>
     16e: 02 00        	<unknown>
     170: bc 00        	<unknown>
     172: 00 00        	<unknown>
     174: 60 0b        	<unknown>
     176: 00 10        	<unknown>
     178: 00 00        	<unknown>
     17a: 00 00        	<unknown>
     17c: 00 00        	<unknown>
     17e: 02 00        	<unknown>
     180: c4 00        	<unknown>
     182: 00 00        	<unknown>
     184: e0 0b        	<unknown>
     186: 00 10        	<unknown>
     188: 00 00        	<unknown>
     18a: 00 00        	<unknown>
     18c: 00 00        	<unknown>
     18e: 02 00        	<unknown>
     190: cc 00        	<unknown>
     192: 00 00        	<unknown>
     194: 60 0c        	<unknown>
     196: 00 10        	<unknown>
     198: 00 00        	<unknown>
     19a: 00 00        	<unknown>
     19c: 00 00        	<unknown>
     19e: 02 00        	<unknown>
     1a0: d4 00        	<unknown>
     1a2: 00 00        	<unknown>
     1a4: e0 0c        	<unknown>
     1a6: 00 10        	<unknown>
     1a8: 00 00        	<unknown>
     1aa: 00 00        	<unknown>
     1ac: 00 00        	<unknown>
     1ae: 02 00        	<unknown>
     1b0: dc 00        	<unknown>
     1b2: 00 00        	<unknown>
     1b4: 60 0d        	<unknown>
     1b6: 00 10        	<unknown>
     1b8: 00 00        	<unknown>
     1ba: 00 00        	<unknown>
     1bc: 00 00        	<unknown>
     1be: 02 00        	<unknown>
     1c0: e4 00        	<unknown>
     1c2: 00 00        	<unknown>
     1c4: e0 0d        	<unknown>
     1c6: 00 10        	<unknown>
     1c8: 00 00        	<unknown>
     1ca: 00 00        	<unknown>
     1cc: 00 00        	<unknown>
     1ce: 02 00        	<unknown>
     1d0: ec 00        	<unknown>
     1d2: 00 00        	<unknown>
     1d4: 60 0e        	<unknown>
     1d6: 00 10        	<unknown>
     1d8: 00 00        	<unknown>
     1da: 00 00        	<unknown>
     1dc: 00 00        	<unknown>
     1de: 02 00        	<unknown>
     1e0: f4 00        	<unknown>
     1e2: 00 00        	<unknown>
     1e4: e0 0e        	<unknown>
     1e6: 00 10        	<unknown>
     1e8: 00 00        	<unknown>
     1ea: 00 00        	<unknown>
     1ec: 00 00        	<unknown>
     1ee: 02 00        	<unknown>
     1f0: fc 00        	<unknown>
     1f2: 00 00        	<unknown>
     1f4: 60 0f        	<unknown>
     1f6: 00 10        	<unknown>
     1f8: 00 00        	<unknown>
     1fa: 00 00        	<unknown>
     1fc: 00 00        	<unknown>
     1fe: 02 00        	<unknown>
     200: 04 01        	<unknown>
     202: 00 00        	<unknown>
     204: e0 0f        	<unknown>
     206: 00 10        	<unknown>
     208: 00 00        	<unknown>
     20a: 00 00        	<unknown>
     20c: 00 00        	<unknown>
     20e: 02 00        	<unknown>
     210: 0c 01        	<unknown>
     212: 00 00        	<unknown>
     214: 60 10        	<unknown>
     216: 00 10        	<unknown>
     218: 00 00        	<unknown>
     21a: 00 00        	<unknown>
     21c: 00 00        	<unknown>
     21e: 02 00        	<unknown>
     220: 14 01        	<unknown>
     222: 00 00        	<unknown>
     224: e0 10        	<unknown>
     226: 00 10        	<unknown>
     228: 00 00        	<unknown>
     22a: 00 00        	<unknown>
     22c: 00 00        	<unknown>
     22e: 02 00        	<unknown>
     230: 1c 01        	<unknown>
     232: 00 00        	<unknown>
     234: 60 11        	<unknown>
     236: 00 10        	<unknown>
     238: 00 00        	<unknown>
     23a: 00 00        	<unknown>
     23c: 00 00        	<unknown>
     23e: 02 00        	<unknown>
     240: 24 01        	<unknown>
     242: 00 00        	<unknown>
     244: e0 11        	<unknown>
     246: 00 10        	<unknown>
     248: 00 00        	<unknown>
     24a: 00 00        	<unknown>
     24c: 00 00        	<unknown>
     24e: 02 00        	<unknown>
     250: 2c 01        	<unknown>
     252: 00 00        	<unknown>
     254: 60 12        	<unknown>
     256: 00 10        	<unknown>
     258: 00 00        	<unknown>
     25a: 00 00        	<unknown>
     25c: 00 00        	<unknown>
     25e: 02 00        	<unknown>
     260: 34 01        	<unknown>
     262: 00 00        	<unknown>
     264: e0 12        	<unknown>
     266: 00 10        	<unknown>
     268: 00 00        	<unknown>
     26a: 00 00        	<unknown>
     26c: 00 00        	<unknown>
     26e: 02 00        	<unknown>
     270: 3c 01        	<unknown>
     272: 00 00        	<unknown>
     274: 60 13        	<unknown>
     276: 00 10        	<unknown>
     278: 00 00        	<unknown>
     27a: 00 00        	<unknown>
     27c: 00 00        	<unknown>
     27e: 02 00        	<unknown>
     280: 44 01        	<unknown>
     282: 00 00        	<unknown>
     284: e0 13        	<unknown>
     286: 00 10        	<unknown>
     288: 00 00        	<unknown>
     28a: 00 00        	<unknown>
     28c: 00 00        	<unknown>
     28e: 02 00        	<unknown>
     290: 4c 01        	<unknown>
     292: 00 00        	<unknown>
     294: 60 14        	<unknown>
     296: 00 10        	<unknown>
     298: 00 00        	<unknown>
     29a: 00 00        	<unknown>
     29c: 00 00        	<unknown>
     29e: 02 00        	<unknown>
     2a0: 54 01        	<unknown>
     2a2: 00 00        	<unknown>
     2a4: e0 14        	<unknown>
     2a6: 00 10        	<unknown>
     2a8: 00 00        	<unknown>
     2aa: 00 00        	<unknown>
     2ac: 00 00        	<unknown>
     2ae: 02 00        	<unknown>
     2b0: 5c 01        	<unknown>
     2b2: 00 00        	<unknown>
     2b4: 60 15        	<unknown>
     2b6: 00 10        	<unknown>
     2b8: 00 00        	<unknown>
     2ba: 00 00        	<unknown>
     2bc: 00 00        	<unknown>
     2be: 02 00        	<unknown>
     2c0: 64 01        	<unknown>
     2c2: 00 00        	<unknown>
     2c4: e0 15        	<unknown>
     2c6: 00 10        	<unknown>
     2c8: 00 00        	<unknown>
     2ca: 00 00        	<unknown>
     2cc: 00 00        	<unknown>
     2ce: 02 00        	<unknown>
     2d0: 6c 01        	<unknown>
     2d2: 00 00        	<unknown>
     2d4: 60 16        	<unknown>
     2d6: 00 10        	<unknown>
     2d8: 00 00        	<unknown>
     2da: 00 00        	<unknown>
     2dc: 00 00        	<unknown>
     2de: 02 00        	<unknown>
     2e0: 74 01        	<unknown>
     2e2: 00 00        	<unknown>
     2e4: e0 16        	<unknown>
     2e6: 00 10        	<unknown>
     2e8: 00 00        	<unknown>
     2ea: 00 00        	<unknown>
     2ec: 00 00        	<unknown>
     2ee: 02 00        	<unknown>
     2f0: 7c 01        	<unknown>
     2f2: 00 00        	<unknown>
     2f4: 60 17        	<unknown>
     2f6: 00 10        	<unknown>
     2f8: 00 00        	<unknown>
     2fa: 00 00        	<unknown>
     2fc: 00 00        	<unknown>
     2fe: 02 00        	<unknown>
     300: 84 01        	<unknown>
     302: 00 00        	<unknown>
     304: e0 17        	<unknown>
     306: 00 10        	<unknown>
     308: 00 00        	<unknown>
     30a: 00 00        	<unknown>
     30c: 00 00        	<unknown>
     30e: 02 00        	<unknown>
     310: 8c 01        	<unknown>
     312: 00 00        	<unknown>
     314: 60 18        	<unknown>
     316: 00 10        	<unknown>
     318: 00 00        	<unknown>
     31a: 00 00        	<unknown>
     31c: 00 00        	<unknown>
     31e: 02 00        	<unknown>
     320: 94 01        	<unknown>
     322: 00 00        	<unknown>
     324: e0 18        	<unknown>
     326: 00 10        	<unknown>
     328: 00 00        	<unknown>
     32a: 00 00        	<unknown>
     32c: 00 00        	<unknown>
     32e: 02 00        	<unknown>
     330: 9c 01        	<unknown>
     332: 00 00        	<unknown>
     334: 60 19        	<unknown>
     336: 00 10        	<unknown>
     338: 00 00        	<unknown>
     33a: 00 00        	<unknown>
     33c: 00 00        	<unknown>
     33e: 02 00        	<unknown>
     340: a4 01        	<unknown>
     342: 00 00        	<unknown>
     344: e0 19        	<unknown>
     346: 00 10        	<unknown>
     348: 00 00        	<unknown>
     34a: 00 00        	<unknown>
     34c: 00 00        	<unknown>
     34e: 02 00        	<unknown>
     350: ac 01        	<unknown>
     352: 00 00        	<unknown>
     354: 60 1a        	<unknown>
     356: 00 10        	<unknown>
     358: 00 00        	<unknown>
     35a: 00 00        	<unknown>
     35c: 00 00        	<unknown>
     35e: 02 00        	<unknown>
     360: b4 01        	<unknown>
     362: 00 00        	<unknown>
     364: e0 1a        	<unknown>
     366: 00 10        	<unknown>
     368: 00 00        	<unknown>
     36a: 00 00        	<unknown>
     36c: 00 00        	<unknown>
     36e: 02 00        	<unknown>
     370: bc 01        	<unknown>
     372: 00 00        	<unknown>
     374: 60 1b        	<unknown>
     376: 00 10        	<unknown>
     378: 00 00        	<unknown>
     37a: 00 00        	<unknown>
     37c: 00 00        	<unknown>
     37e: 02 00        	<unknown>
     380: c4 01        	<unknown>
     382: 00 00        	<unknown>
     384: e0 1b        	<unknown>
     386: 00 10        	<unknown>
     388: 00 00        	<unknown>
     38a: 00 00        	<unknown>
     38c: 00 00        	<unknown>
     38e: 02 00        	<unknown>
     390: cc 01        	<unknown>
     392: 00 00        	<unknown>
     394: 60 1c        	<unknown>
     396: 00 10        	<unknown>
     398: 00 00        	<unknown>
     39a: 00 00        	<unknown>
     39c: 00 00        	<unknown>
     39e: 02 00        	<unknown>
     3a0: d4 01        	<unknown>
     3a2: 00 00        	<unknown>
     3a4: 38 1d        	<unknown>
     3a6: 00 10        	<unknown>
     3a8: 00 00        	<unknown>
     3aa: 00 00        	<unknown>
     3ac: 00 00        	<unknown>
     3ae: 02 00        	<unknown>
     3b0: d9 01        	<unknown>
     3b2: 00 00        	<unknown>
     3b4: 00 20        	<unknown>
     3b6: 00 10        	<unknown>
     3b8: 00 00        	<unknown>
     3ba: 00 00        	<unknown>
     3bc: 00 00        	<unknown>
     3be: 03 00 de 01 00 00 00 00      	<unknown>
		...
     3ce: 01 00        	<unknown>
     3d0: e3 01 00 00 00 00 00 00      	<unknown>
     3d8: 00 00        	<unknown>
     3da: 00 00        	<unknown>
     3dc: 00 00        	<unknown>
     3de: f1 ff        	<unknown>
     3e0: e8 01        	<unknown>
     3e2: 00 00        	<unknown>
     3e4: 00 00        	<unknown>
     3e6: 00 10        	<unknown>
     3e8: 00 00        	<unknown>
     3ea: 00 00        	<unknown>
     3ec: 10 00        	<unknown>
     3ee: 02 00        	<unknown>
     3f0: ef 01 00 00 00 20 00 10      	<unknown>
     3f8: 08 00        	<unknown>
     3fa: 00 00        	<unknown>
     3fc: 10 00        	<unknown>
     3fe: 03 00 f6 01 00 00 40 20      	<unknown>
     406: 00 10        	<unknown>
     408: 08 00        	<unknown>
     40a: 00 00        	<unknown>
     40c: 10 00        	<unknown>
     40e: 03 00 ff 01 00 00 00 30      	<unknown>
     416: 00 10        	<unknown>
     418: 00 00        	<unknown>
     41a: 00 00        	<unknown>
     41c: 10 00        	<unknown>
     41e: 05 00        	<unknown>
     420: 0f 02 00 00 50 30 00 10      	<unknown>
     428: 00 00        	<unknown>
     42a: 00 00        	<unknown>
     42c: 10 00        	<unknown>
     42e: 05 00        	<unknown>
     430: 1d 02        	<unknown>
     432: 00 00        	<unknown>
     434: 00 40        	<unknown>
     436: 00 10        	<unknown>
     438: 00 00        	<unknown>
     43a: 00 00        	<unknown>
     43c: 10 00        	<unknown>
     43e: 05 00        	<unknown>
     440: 2e 02        	<unknown>
     442: 00 00        	<unknown>
     444: 00 40        	<unknown>
     446: 00 10        	<unknown>
     448: 00 00        	<unknown>
     44a: 00 00        	<unknown>
     44c: 10 00        	<unknown>
     44e: 05 00        	<unknown>

Disassembly of section .shstrtab:

00000000 <.shstrtab>:
       0: 00 2e        	<unknown>
       2: 73 68 61 72 65 64 5f 6d      	<unknown>
       a: 65 6d        	<unknown>
       c: 00 2e        	<unknown>
       e: 74 65        	<unknown>
      10: 78 74        	<unknown>
      12: 2e 69        	<unknown>
      14: 6e 69        	<unknown>
      16: 74 00        	<unknown>
      18: 2e 74        	<unknown>
      1a: 6f 68 6f 73 74 00 2e 74      	<unknown>
      22: 65 78        	<unknown>
      24: 74 00        	<unknown>
      26: 2e 64        	<unknown>
      28: 61 74        	<unknown>
      2a: 61 00        	<unknown>
      2c: 2e 72        	<unknown>
      2e: 69 73        	<unknown>
      30: 63 76 2e 61 74 74 72 69      	<unknown>
      38: 62 75        	<unknown>
      3a: 74 65        	<unknown>
      3c: 73 00 2e 63 6f 6d 6d 65      	<unknown>
      44: 6e 74        	<unknown>
      46: 00 2e        	<unknown>
      48: 73 79 6d 74 61 62 00 2e      	<unknown>
      50: 73 68 73 74 72 74 61 62      	<unknown>
      58: 00 2e        	<unknown>
      5a: 73           	<unknown>
      5b: 74 72        	<unknown>
      5d: 74 61        	<unknown>
      5f: 62 00        	<unknown>

Disassembly of section .strtab:

00000000 <.strtab>:
       0: 00 24        	<unknown>
       2: 78 2e        	<unknown>
       4: 30 00        	<unknown>
       6: 72 65        	<unknown>
       8: 73 65 74 5f 76 65 63 74      	<unknown>
      10: 6f 72 00 68 61 6e 64 6c      	<unknown>
      18: 65 5f        	<unknown>
      1a: 65 78        	<unknown>
      1c: 63 65 70 74 69 6f 6e 00      	<unknown>
      24: 6f 74 68 65 72 5f 65 78      	<unknown>
      2c: 63 65 70 74 69 6f 6e 00      	<unknown>
      34: 77 72 69 74 65 5f 74 6f      	<unknown>
      3c: 68 6f        	<unknown>
      3e: 73 74 00 74 64 61 74 5f      	<unknown>
      46: 67 6c 6f 62 61 6c 00 74      	<unknown>
      4e: 64 61        	<unknown>
      50: 74 00        	<unknown>
      52: 6c 6f        	<unknown>
      54: 6f 70 00 74 65 73 74 5f      	<unknown>
      5c: 32 00        	<unknown>
      5e: 66 61        	<unknown>
      60: 69 6c        	<unknown>
      62: 00 74        	<unknown>
      64: 65 73        	<unknown>
      66: 74 5f        	<unknown>
      68: 33 00 74 65 73 74 5f 34      	<unknown>
      70: 00 74        	<unknown>
      72: 65 73        	<unknown>
      74: 74 5f        	<unknown>
      76: 35 00        	<unknown>
      78: 74 65        	<unknown>
      7a: 73 74 5f 36 00 74 65 73      	<unknown>
      82: 74 5f        	<unknown>
      84: 37 00 74 65 73 74 5f 38      	<unknown>
      8c: 00 74        	<unknown>
      8e: 65 73        	<unknown>
      90: 74 5f        	<unknown>
      92: 39 00        	<unknown>
      94: 74 65        	<unknown>
      96: 73 74 5f 31 30 00 74 65      	<unknown>
      9e: 73 74 5f 31 31 00 74 65      	<unknown>
      a6: 73 74 5f 31 32 00 74 65      	<unknown>
      ae: 73 74 5f 31 33 00 74 65      	<unknown>
      b6: 73 74 5f 31 34 00 74 65      	<unknown>
      be: 73 74 5f 31 35 00 74 65      	<unknown>
      c6: 73 74 5f 31 36 00 74 65      	<unknown>
      ce: 73 74 5f 31 37 00 74 65      	<unknown>
      d6: 73 74 5f 31 38 00 74 65      	<unknown>
      de: 73 74 5f 31 39 00 74 65      	<unknown>
      e6: 73 74 5f 32 30 00 74 65      	<unknown>
      ee: 73 74 5f 32 31 00 74 65      	<unknown>
      f6: 73 74 5f 32 32 00 74 65      	<unknown>
      fe: 73 74 5f 32 33 00 74 65      	<unknown>
     106: 73 74 5f 32 34 00 74 65      	<unknown>
     10e: 73 74 5f 32 35 00 74 65      	<unknown>
     116: 73 74 5f 32 36 00 74 65      	<unknown>
     11e: 73 74 5f 32 37 00 74 65      	<unknown>
     126: 73 74 5f 32 38 00 74 65      	<unknown>
     12e: 73 74 5f 32 39 00 74 65      	<unknown>
     136: 73 74 5f 33 30 00 74 65      	<unknown>
     13e: 73 74 5f 33 31 00 74 65      	<unknown>
     146: 73 74 5f 33 32 00 74 65      	<unknown>
     14e: 73 74 5f 33 33 00 74 65      	<unknown>
     156: 73 74 5f 33 34 00 74 65      	<unknown>
     15e: 73 74 5f 33 35 00 74 65      	<unknown>
     166: 73 74 5f 33 36 00 74 65      	<unknown>
     16e: 73 74 5f 33 37 00 74 65      	<unknown>
     176: 73 74 5f 33 38 00 74 65      	<unknown>
     17e: 73 74 5f 33 39 00 74 65      	<unknown>
     186: 73 74 5f 34 30 00 74 65      	<unknown>
     18e: 73 74 5f 34 31 00 74 65      	<unknown>
     196: 73 74 5f 34 32 00 74 65      	<unknown>
     19e: 73 74 5f 34 33 00 74 65      	<unknown>
     1a6: 73 74 5f 34 34 00 74 65      	<unknown>
     1ae: 73 74 5f 34 35 00 74 65      	<unknown>
     1b6: 73 74 5f 34 36 00 74 65      	<unknown>
     1be: 73 74 5f 34 37 00 74 65      	<unknown>
     1c6: 73 74 5f 34 38 00 74 65      	<unknown>
     1ce: 73 74 5f 34 39 00 70 61      	<unknown>
     1d6: 73 73 00 24 64 2e 31 00      	<unknown>
     1de: 24 64        	<unknown>
     1e0: 2e 32        	<unknown>
     1e2: 00 24        	<unknown>
     1e4: 64 2e        	<unknown>
     1e6: 33 00 5f 73 74 61 72 74      	<unknown>
     1ee: 00 74        	<unknown>
     1f0: 6f 68 6f 73 74 00 66 72      	<unknown>
     1f8: 6f 6d 68 6f 73 74 00 62      	<unknown>
     200: 65 67        	<unknown>
     202: 69 6e        	<unknown>
     204: 5f 73 69 67 6e 61 74 75      	<unknown>
     20c: 72 65        	<unknown>
     20e: 00 65        	<unknown>
     210: 6e 64        	<unknown>
     212: 5f 73 69 67 6e 61 74 75      	<unknown>
     21a: 72 65        	<unknown>
     21c: 00 5f        	<unknown>
     21e: 5f 67 6c 6f 62 61 6c 5f      	<unknown>
     226: 70 6f        	<unknown>
     228: 69 6e        	<unknown>
     22a: 74 65        	<unknown>
     22c: 72 00        	<unknown>
     22e: 5f           	<unknown>
     22f: 65 6e        	<unknown>
     231: 64 00        	<unknown>
