
kernels/softmax/softmax:	file format elf32-littleriscv

Disassembly of section .init:

10000000 <_start>:
10000000: 73 0a 04 00 10 fc 00 00      	csrr	t0, nw
10000008: 17 0c 00 00 80 b2 04 00      	auipc	t1, 0x4b28
10000010: 0b 00 52 60 00 00 00 00      	vx_wspawn	t0, t1
10000018: 13 0a 00 f0 ff ff ff 0f      	li	t0, -0x1
10000020: 0b 00 50 00 00 00 00 00      	vx_tmc	t0
10000028: 6f 02 00 00 80 a9 04 00      	jal	0x10004ac0 <init_regs>
10000030: 13 0a 00 00 10 00 00 00      	li	t0, 0x1
10000038: 0b 00 50 00 00 00 00 00      	vx_tmc	t0
10000040: 6f 02 00 00 00 85 04 00      	jal	0x10004890 <main>
10000048: 6f 00 00 00 00 a7 04 00      	j	0x10004ab8 <_exit>

Disassembly of section .tohost:

10001000 <tohost>:
		...

10001040 <fromhost>:
		...

Disassembly of section .bss.softmax_args:

10001048 <softmax_args>:
...

Disassembly of section .bss._ZL16schedule_context:

10001054 <_ZL16schedule_context>:
...

Disassembly of section .text:

10004000 <_Z7softmaxPvjjj>:
10004000: 03 18 a4 00 40 00 00 00      	lw.global	a2, 0x4(a0)
10004008: 33 1c d6 c0 00 00 00 00      	sltu	a4, a3, a2
10004010: 0b 18 e4 10 00 00 00 00      	vx_split_n	a2, a4
10004018: 63 00 e0 00 80 86 00 00      	beqz	a4, 0x10004880 <_Z7softmaxPvjjj+0x880>
10004020: 13 04 20 f0 0f ff ff 0f      	addi	sp, sp, -0x10
10004028: 23 00 24 10 c0 00 00 00      	sw.global	ra, 0xc(sp)
10004030: 03 1e a4 00 80 00 00 00      	lw.global	a5, 0x8(a0)
10004038: 13 42 00 00 00 00 00 00      	li	a9, 0x0
10004040: 13 20 f0 00 f0 0f 00 00      	addi	a6, a5, 0xff
10004048: 13 1c 0e f1 0f ff ff 0f      	andi	a4, a6, -0x10
10004050: 03 20 a4 00 00 00 00 00      	lw.global	a6, 0x0(a0)
10004058: 13 14 f2 00 10 00 00 00      	slli	a0, a5, 0x1
10004060: 33 22 06 e0 00 00 00 00      	snez	a7, a4
10004068: 0b 44 14 11 00 00 00 00      	vx_split_n	a10, a7
10004070: 13 4a 00 f0 0f c0 ff 0f      	li	a13, -0x400
10004078: 33 40 f0 d0 00 00 10 00      	mul	a8, a5, a3
10004080: 63 00 10 01 00 13 00 00      	beqz	a7, 0x100041b0 <_Z7softmaxPvjjj+0x1b0>
10004088: 13 42 00 00 00 00 00 00      	li	a9, 0x0
10004090: 13 1a e0 f0 ff ff ff 0f      	addi	a3, a4, -0x1
10004098: 13 4a 02 02 10 00 00 00      	slli	a13, a8, 0x1
100040a0: 13 4c b2 00 10 00 00 00      	slli	a14, a1, 0x1
100040a8: 33 02 00 61 02 00 00 00      	add	ra, a6, a14
100040b0: 33 46 10 50 02 00 00 00      	add	a11, ra, a13
100040b8: 73 48 04 00 40 cc 00 00      	csrr	a12, tmask
100040c0: 13 4a 00 f0 0f c0 ff 0f      	li	a13, -0x400
100040c8: 13 50 b0 00 00 00 00 00      	mv	a16, a1
100040d0: 6f 00 00 00 00 04 00 00      	j	0x10004110 <_Z7softmaxPvjjj+0x110>
100040d8: 0b 00 96 02 00 00 00 00      	vx_join	a17
100040e0: 13 1a d0 f0 ff ff ff 0f      	addi	a3, a3, -0x1
100040e8: 13 46 30 02 00 20 00 00      	addi	a11, a11, 0x200
100040f0: 13 4c 60 02 00 20 00 00      	addi	a14, a14, 0x200
100040f8: 13 50 80 02 00 10 00 00      	addi	a16, a16, 0x100
10004100: 0b 02 7a 42 02 00 00 00      	vx_pred_n	a15, a12
10004108: 63 00 72 02 80 0a 00 00      	bnez	a15, 0x100041b0 <_Z7softmaxPvjjj+0x1b0>
10004110: 33 52 86 f2 00 00 00 00      	sltu	a17, a16, a5
10004118: 0b 4e 94 12 00 00 00 00      	vx_split_n	a15, a17
10004120: 63 00 90 02 80 05 00 00      	beqz	a17, 0x10004178 <_Z7softmaxPvjjj+0x178>
10004128: 03 58 32 02 00 00 00 00      	lh.global	a20, 0x0(a11)
10004130: a3 00 62 c2 02 00 00 00      	sh.shared	a20, 0x0(a14)
10004138: 53 54 c2 52 02 00 60 01      	fmax.h	a18, a20, a13
10004140: 53 56 ae 52 02 00 60 00      	fsub.h	a19, a18, a13
10004148: fb 58 be 12 00 00 e0 02      	fexp.h	a20, a19
10004150: 83 4a 62 02 00 00 00 00      	lh.shared	a13, 0x0(a14)
10004158: 53 56 5e a2 02 00 60 00      	fsub.h	a19, a13, a18
10004160: fb 5c be 12 00 00 e0 02      	fexp.h	a22, a19
10004168: 43 42 1e c2 e2 02 20 00      	fmadd.h	a9, a9, a20, a22
10004170: 13 4a a0 02 00 00 00 00      	mv	a13, a18
10004178: 0b 00 76 02 00 00 00 00      	vx_join	a15
10004180: 13 54 98 02 10 00 00 00      	xori	a18, a17, 0x1
10004188: 13 4e d6 00 10 00 00 00      	seqz	a15, a3
10004190: 0b 52 a4 12 00 00 00 00      	vx_split_n	a17, a18
10004198: 63 fe a1 02 00 f4 ff 0f      	beqz	a18, 0x100040d8 <_Z7softmaxPvjjj+0xd8>
100041a0: 13 4e 00 00 10 00 00 00      	li	a15, 0x1
100041a8: 6f 00 00 f0 0f f3 ff 0f      	j	0x100040d8 <_Z7softmaxPvjjj+0xd8>
100041b0: 13 58 be 00 f0 00 00 00      	andi	a20, a1, 0xf
100041b8: 13 50 ba 00 40 00 00 00      	srli	a16, a1, 0x4
100041c0: 13 48 a0 00 00 20 00 00      	addi	a12, a0, 0x200
100041c8: 13 1a b2 00 10 00 00 00      	slli	a3, a1, 0x1
100041d0: 0b 00 26 02 00 00 00 00      	vx_join	a10
100041d8: 33 44 40 d2 00 00 00 00      	add	a10, a12, a3
100041e0: a3 00 22 12 02 00 00 00      	sh.shared	a9, 0x0(a10)
100041e8: 33 46 a0 d0 00 00 00 00      	add	a11, a0, a3
100041f0: a3 00 32 52 02 00 00 00      	sh.shared	a13, 0x0(a11)
100041f8: 13 52 be 00 10 00 00 00      	andi	a17, a1, 0x1
10004200: 13 4c 96 02 10 00 00 00      	seqz	a14, a17
10004208: 0b 4e 64 12 00 00 00 00      	vx_split_n	a15, a14
10004210: 63 00 60 02 80 08 00 00      	beqz	a14, 0x10004298 <_Z7softmaxPvjjj+0x298>
10004218: 13 52 b2 00 10 00 00 00      	slli	a17, a1, 0x1
10004220: 13 56 9c 02 20 00 00 00      	ori	a19, a17, 0x2
10004228: 33 52 a0 b0 02 00 00 00      	add	a17, a0, a19
10004230: 83 54 92 02 00 00 00 00      	lh.shared	a18, 0x0(a17)
10004238: 53 38 52 a2 02 00 60 01      	fmax.h	t3, a13, a18
10004240: 53 5c ce 51 02 00 60 00      	fsub.h	a22, t3, a13
10004248: fb 5e ee 12 00 00 e0 02      	fexp.h	a23, a22
10004250: 33 4a 40 b2 02 00 00 00      	add	a13, a12, a19
10004258: 83 56 52 02 00 00 00 00      	lh.shared	a19, 0x0(a13)
10004260: 53 4a ce a1 02 00 60 00      	fsub.h	a13, t3, a18
10004268: fb 54 5e 12 00 00 e0 02      	fexp.h	a18, a13
10004270: 53 c0 be a2 02 00 a0 00      	fmul.h	t7, a19, a18
10004278: 43 42 1e f2 02 06 20 00      	fmadd.h	a9, a9, a23, t7
10004280: a3 00 22 12 02 00 00 00      	sh.shared	a9, 0x0(a10)
10004288: a3 00 32 c2 01 00 00 00      	sh.shared	t3, 0x0(a11)
10004290: 13 4a c0 01 00 00 00 00      	mv	a13, t3
10004298: 0b 00 76 02 00 00 00 00      	vx_join	a15
100042a0: 13 52 be 00 30 00 00 00      	andi	a17, a1, 0x3
100042a8: 13 4e 96 02 10 00 00 00      	seqz	a15, a17
100042b0: 0b 52 74 12 00 00 00 00      	vx_split_n	a17, a15
100042b8: 63 00 70 02 80 08 00 00      	beqz	a15, 0x10004340 <_Z7softmaxPvjjj+0x340>
100042c0: 13 54 b2 00 10 00 00 00      	slli	a18, a1, 0x1
100042c8: 13 56 ac 02 40 00 00 00      	ori	a19, a18, 0x4
100042d0: 33 5a a0 b0 02 00 00 00      	add	a21, a0, a19
100042d8: 83 54 d2 02 00 00 00 00      	lh.shared	a18, 0x0(a21)
100042e0: 53 38 52 a2 02 00 60 01      	fmax.h	t3, a13, a18
100042e8: 53 5c ce 51 02 00 60 00      	fsub.h	a22, t3, a13
100042f0: fb 5e ee 12 00 00 e0 02      	fexp.h	a23, a22
100042f8: 33 4a 40 b2 02 00 00 00      	add	a13, a12, a19
10004300: 83 56 52 02 00 00 00 00      	lh.shared	a19, 0x0(a13)
10004308: 53 4a ce a1 02 00 60 00      	fsub.h	a13, t3, a18
10004310: fb 54 5e 12 00 00 e0 02      	fexp.h	a18, a13
10004318: 53 c0 be a2 02 00 a0 00      	fmul.h	t7, a19, a18
10004320: 43 42 1e f2 02 06 20 00      	fmadd.h	a9, a9, a23, t7
10004328: a3 00 22 12 02 00 00 00      	sh.shared	a9, 0x0(a10)
10004330: a3 00 32 c2 01 00 00 00      	sh.shared	t3, 0x0(a11)
10004338: 13 4a c0 01 00 00 00 00      	mv	a13, t3
10004340: 0b 00 96 02 00 00 00 00      	vx_join	a17
10004348: 13 54 be 00 70 00 00 00      	andi	a18, a1, 0x7
10004350: 13 52 a6 02 10 00 00 00      	seqz	a17, a18
10004358: 0b 54 94 12 00 00 00 00      	vx_split_n	a18, a17
10004360: 63 00 90 02 80 08 00 00      	beqz	a17, 0x100043e8 <_Z7softmaxPvjjj+0x3e8>
10004368: 13 5a b2 00 10 00 00 00      	slli	a21, a1, 0x1
10004370: 13 56 dc 02 80 00 00 00      	ori	a19, a21, 0x8
10004378: 33 5a a0 b0 02 00 00 00      	add	a21, a0, a19
10004380: 83 5c d2 02 00 00 00 00      	lh.shared	a22, 0x0(a21)
10004388: 53 38 52 e2 02 00 60 01      	fmax.h	t3, a13, a22
10004390: 53 5e ce 51 02 00 60 00      	fsub.h	a23, t3, a13
10004398: fb 0c fe 12 00 00 e0 02      	fexp.h	t1, a23
100043a0: 33 4a 40 b2 02 00 00 00      	add	a13, a12, a19
100043a8: 83 56 52 02 00 00 00 00      	lh.shared	a19, 0x0(a13)
100043b0: 53 4a ce e1 02 00 60 00      	fsub.h	a13, t3, a22
100043b8: fb 5c 5e 12 00 00 e0 02      	fexp.h	a22, a13
100043c0: 53 c0 be e2 02 00 a0 00      	fmul.h	t7, a19, a22
100043c8: 43 42 1e 62 00 06 20 00      	fmadd.h	a9, a9, t1, t7
100043d0: a3 00 22 12 02 00 00 00      	sh.shared	a9, 0x0(a10)
100043d8: a3 00 32 c2 01 00 00 00      	sh.shared	t3, 0x0(a11)
100043e0: 13 4a c0 01 00 00 00 00      	mv	a13, t3
100043e8: 0b 00 a6 02 00 00 00 00      	vx_join	a18
100043f0: 13 54 c6 02 10 00 00 00      	seqz	a18, a20
100043f8: 0b 56 a4 12 00 00 00 00      	vx_split_n	a19, a18
10004400: 63 00 a0 02 00 0b 00 00      	beqz	a18, 0x100044b0 <_Z7softmaxPvjjj+0x4b0>
10004408: 13 58 b2 00 10 00 00 00      	slli	a20, a1, 0x1
10004410: 13 5a cc 02 00 01 00 00      	ori	a21, a20, 0x10
10004418: 33 58 a0 d0 02 00 00 00      	add	a20, a0, a21
10004420: 83 5c c2 02 00 00 00 00      	lh.shared	a22, 0x0(a20)
10004428: 53 58 52 e2 02 00 60 01      	fmax.h	a20, a13, a22
10004430: 53 5e ce 52 02 00 60 00      	fsub.h	a23, a20, a13
10004438: fb 0c fe 12 00 00 e0 02      	fexp.h	t1, a23
10004440: 33 5e 40 d2 02 00 00 00      	add	a23, a12, a21
10004448: 83 4a f2 02 00 00 00 00      	lh.shared	a13, 0x0(a23)
10004450: 53 5a ce e2 02 00 60 00      	fsub.h	a21, a20, a22
10004458: fb 5c de 12 00 00 e0 02      	fexp.h	a22, a21
10004460: 53 5e 5e e2 02 00 a0 00      	fmul.h	a23, a13, a22
10004468: 43 38 1e 62 f0 02 20 00      	fmadd.h	t3, a9, t1, a23
10004470: a3 00 22 c2 01 00 00 00      	sh.shared	t3, 0x0(a10)
10004478: a3 00 32 c2 02 00 00 00      	sh.shared	a20, 0x0(a11)
10004480: 13 42 82 02 10 00 00 00      	slli	a9, a16, 0x1
10004488: 33 5c 40 12 02 00 00 00      	add	a22, a12, a9
10004490: a3 00 e2 c2 01 00 00 00      	sh.shared	t3, 0x0(a22)
10004498: 83 4a 32 02 00 00 00 00      	lh.shared	a13, 0x0(a11)
100044a0: 33 50 a0 10 02 00 00 00      	add	a16, a0, a9
100044a8: a3 00 82 52 02 00 00 00      	sh.shared	a13, 0x0(a16)
100044b0: 0b 00 b6 02 00 00 00 00      	vx_join	a19
100044b8: 13 42 00 00 00 00 00 00      	li	a9, 0x0
100044c0: 13 50 00 00 00 01 00 00      	li	a16, 0x10
100044c8: 0b 00 18 82 02 00 00 00      	<unknown>
100044d0: 13 50 b6 00 00 01 00 00      	sltiu	a16, a1, 0x10
100044d8: 0b 42 84 12 00 00 00 00      	vx_split_n	a9, a16
100044e0: 63 00 80 02 80 28 00 00      	beqz	a16, 0x10004768 <_Z7softmaxPvjjj+0x768>
100044e8: 0b 4a 64 12 00 00 00 00      	vx_split_n	a13, a14
100044f0: 63 00 60 02 00 09 00 00      	beqz	a14, 0x10004580 <_Z7softmaxPvjjj+0x580>
100044f8: 13 4c b2 00 10 00 00 00      	slli	a14, a1, 0x1
10004500: 83 50 32 02 00 00 00 00      	lh.shared	a16, 0x0(a11)
10004508: 13 56 6c 02 20 00 00 00      	ori	a19, a14, 0x2
10004510: 33 58 a0 b0 02 00 00 00      	add	a20, a0, a19
10004518: 83 4c c2 02 00 00 00 00      	lh.shared	a14, 0x0(a20)
10004520: 53 5a 82 62 02 00 60 01      	fmax.h	a21, a16, a14
10004528: 83 58 22 02 00 00 00 00      	lh.shared	a20, 0x0(a10)
10004530: 53 5c de 82 02 00 60 00      	fsub.h	a22, a21, a16
10004538: fb 5e ee 12 00 00 e0 02      	fexp.h	a23, a22
10004540: 33 5c 40 b2 02 00 00 00      	add	a22, a12, a19
10004548: 83 50 e2 02 00 00 00 00      	lh.shared	a16, 0x0(a22)
10004550: 53 56 de 62 02 00 60 00      	fsub.h	a19, a21, a14
10004558: fb 4c be 12 00 00 e0 02      	fexp.h	a14, a19
10004560: 53 0a 8e 62 02 00 a0 00      	fmul.h	t0, a16, a14
10004568: 43 02 ce f2 52 00 20 00      	fmadd.h	ra, a20, a23, t0
10004570: a3 00 22 12 00 00 00 00      	sh.shared	ra, 0x0(a10)
10004578: a3 00 32 d2 02 00 00 00      	sh.shared	a21, 0x0(a11)
10004580: 0b 00 56 02 00 00 00 00      	vx_join	a13
10004588: 0b 4a 74 12 00 00 00 00      	vx_split_n	a13, a15
10004590: 63 00 70 02 00 09 00 00      	beqz	a15, 0x10004620 <_Z7softmaxPvjjj+0x620>
10004598: 13 4c b2 00 10 00 00 00      	slli	a14, a1, 0x1
100045a0: 83 50 32 02 00 00 00 00      	lh.shared	a16, 0x0(a11)
100045a8: 13 4e 6c 02 40 00 00 00      	ori	a15, a14, 0x4
100045b0: 33 58 a0 70 02 00 00 00      	add	a20, a0, a15
100045b8: 83 4c c2 02 00 00 00 00      	lh.shared	a14, 0x0(a20)
100045c0: 53 5a 82 62 02 00 60 01      	fmax.h	a21, a16, a14
100045c8: 83 56 22 02 00 00 00 00      	lh.shared	a19, 0x0(a10)
100045d0: 53 5c de 82 02 00 60 00      	fsub.h	a22, a21, a16
100045d8: fb 50 ee 12 00 00 e0 02      	fexp.h	a16, a22
100045e0: 33 5c 40 72 02 00 00 00      	add	a22, a12, a15
100045e8: 83 4e e2 02 00 00 00 00      	lh.shared	a15, 0x0(a22)
100045f0: 53 58 de 62 02 00 60 00      	fsub.h	a20, a21, a14
100045f8: fb 4c ce 12 00 00 e0 02      	fexp.h	a14, a20
10004600: 53 0a 7e 62 02 00 a0 00      	fmul.h	t0, a15, a14
10004608: 43 02 be 82 52 00 20 00      	fmadd.h	ra, a19, a16, t0
10004610: a3 00 22 12 00 00 00 00      	sh.shared	ra, 0x0(a10)
10004618: a3 00 32 d2 02 00 00 00      	sh.shared	a21, 0x0(a11)
10004620: 0b 00 56 02 00 00 00 00      	vx_join	a13
10004628: 0b 4c 94 12 00 00 00 00      	vx_split_n	a14, a17
10004630: 63 00 90 02 00 09 00 00      	beqz	a17, 0x100046c0 <_Z7softmaxPvjjj+0x6c0>
10004638: 13 4a b2 00 10 00 00 00      	slli	a13, a1, 0x1
10004640: 83 50 32 02 00 00 00 00      	lh.shared	a16, 0x0(a11)
10004648: 13 4e 5c 02 80 00 00 00      	ori	a15, a13, 0x8
10004650: 33 4a a0 70 02 00 00 00      	add	a13, a0, a15
10004658: 83 56 52 02 00 00 00 00      	lh.shared	a19, 0x0(a13)
10004660: 53 4a 82 b2 02 00 60 01      	fmax.h	a13, a16, a19
10004668: 83 52 22 02 00 00 00 00      	lh.shared	a17, 0x0(a10)
10004670: 53 5c 5e 82 02 00 60 00      	fsub.h	a22, a13, a16
10004678: fb 50 ee 12 00 00 e0 02      	fexp.h	a16, a22
10004680: 33 5a 40 72 02 00 00 00      	add	a21, a12, a15
10004688: 83 48 d2 02 00 00 00 00      	lh.shared	a12, 0x0(a21)
10004690: 53 58 5e b2 02 00 60 00      	fsub.h	a20, a13, a19
10004698: fb 4e ce 12 00 00 e0 02      	fexp.h	a15, a20
100046a0: 53 5c 4e 72 02 00 a0 00      	fmul.h	a22, a12, a15
100046a8: 43 4e 9e 82 e2 02 20 00      	fmadd.h	a15, a17, a16, a22
100046b0: a3 00 22 72 02 00 00 00      	sh.shared	a15, 0x0(a10)
100046b8: a3 00 32 52 02 00 00 00      	sh.shared	a13, 0x0(a11)
100046c0: 0b 00 66 02 00 00 00 00      	vx_join	a14
100046c8: 0b 48 a4 12 00 00 00 00      	vx_split_n	a12, a18
100046d0: 63 00 a0 02 00 09 00 00      	beqz	a18, 0x10004760 <_Z7softmaxPvjjj+0x760>
100046d8: 83 4a 32 02 00 00 00 00      	lh.shared	a13, 0x0(a11)
100046e0: 83 4e a2 00 00 01 00 00      	lh.shared	a15, 0x10(a0)
100046e8: 53 4c 52 72 02 00 60 01      	fmax.h	a14, a13, a15
100046f0: 83 50 22 02 00 00 00 00      	lh.shared	a16, 0x0(a10)
100046f8: 53 56 6e 52 02 00 60 00      	fsub.h	a19, a14, a13
10004700: fb 4a be 12 00 00 e0 02      	fexp.h	a13, a19
10004708: 83 52 a2 00 00 21 00 00      	lh.shared	a17, 0x210(a0)
10004710: 53 58 6e 72 02 00 60 00      	fsub.h	a20, a14, a15
10004718: fb 4e ce 12 00 00 e0 02      	fexp.h	a15, a20
10004720: 53 54 9e 72 02 00 a0 00      	fmul.h	a18, a17, a15
10004728: 43 4e 8e 52 a2 02 20 00      	fmadd.h	a15, a16, a13, a18
10004730: a3 00 22 72 02 00 00 00      	sh.shared	a15, 0x0(a10)
10004738: a3 00 32 62 02 00 00 00      	sh.shared	a14, 0x0(a11)
10004740: 83 46 a2 00 00 20 00 00      	lh.shared	a11, 0x200(a0)
10004748: 13 44 00 00 00 c0 03 00      	li	a10, 0x3c00
10004750: 53 4a 2e 32 02 00 e0 00      	fdiv.h	a13, a10, a11
10004758: a3 00 a2 50 02 20 00 00      	sh.shared	a13, 0x200(a0)
10004760: 0b 00 46 02 00 00 00 00      	vx_join	a12
10004768: 0b 00 16 02 00 00 00 00      	vx_join	a9
10004770: 13 42 00 00 00 00 00 00      	li	a9, 0x0
10004778: 13 44 00 00 00 01 00 00      	li	a10, 0x10
10004780: 0b 00 18 22 02 00 00 00      	<unknown>
10004788: 0b 44 14 11 00 00 00 00      	vx_split_n	a10, a7
10004790: 63 00 10 01 80 0d 00 00      	beqz	a7, 0x10004868 <_Z7softmaxPvjjj+0x868>
10004798: 83 22 a2 00 00 00 00 00      	lh.shared	a7, 0x0(a0)
100047a0: 83 42 a2 00 00 20 00 00      	lh.shared	a9, 0x200(a0)
100047a8: 13 14 02 02 10 00 00 00      	slli	a0, a8, 0x1
100047b0: 33 46 00 d1 00 00 00 00      	add	a11, a6, a3
100047b8: 33 20 30 a2 00 00 00 00      	add	a6, a11, a0
100047c0: 13 14 b0 f0 0f f0 ff 0f      	addi	a0, a1, -0x100
100047c8: 73 16 04 00 40 cc 00 00      	csrr	a1, tmask
100047d0: 6f 00 00 00 00 02 00 00      	j	0x100047f0 <_Z7softmaxPvjjj+0x7f0>
100047d8: 0b 00 06 02 00 00 00 00      	vx_join	a8
100047e0: 0b 02 4a b2 00 00 00 00      	vx_pred_n	a12, a1
100047e8: 63 00 42 02 00 08 00 00      	bnez	a12, 0x10004868 <_Z7softmaxPvjjj+0x868>
100047f0: 13 14 a0 00 00 10 00 00      	addi	a0, a0, 0x100
100047f8: 33 4a a6 f0 00 00 00 00      	sltu	a13, a0, a5
10004800: 0b 40 54 12 00 00 00 00      	vx_split_n	a8, a13
10004808: 13 48 00 00 10 00 00 00      	li	a12, 0x1
10004810: 63 fe 51 02 80 fc ff 0f      	beqz	a13, 0x100047d8 <_Z7softmaxPvjjj+0x7d8>
10004818: 83 46 d2 00 00 00 00 00      	lh.shared	a11, 0x0(a3)
10004820: 13 1c e0 f0 ff ff ff 0f      	addi	a4, a4, -0x1
10004828: 13 1a d0 00 00 20 00 00      	addi	a3, a3, 0x200
10004830: 53 48 3e 12 01 00 60 00      	fsub.h	a12, a11, a7
10004838: fb 46 4e 12 00 00 e0 02      	fexp.h	a11, a12
10004840: 53 4c 1e 32 02 00 a0 00      	fmul.h	a14, a9, a11
10004848: 23 00 02 61 02 00 00 00      	sh.global	a14, 0x0(a6)
10004850: 13 20 00 01 00 20 00 00      	addi	a6, a6, 0x200
10004858: 13 48 e6 00 10 00 00 00      	seqz	a12, a4
10004860: 6f 00 00 f0 8f f7 ff 0f      	j	0x100047d8 <_Z7softmaxPvjjj+0x7d8>
10004868: 0b 00 26 02 00 00 00 00      	vx_join	a10
10004870: 03 02 24 00 c0 00 00 00      	lw.global	ra, 0xc(sp)
10004878: 13 04 20 00 00 01 00 00      	addi	sp, sp, 0x10
10004880: 0b 00 c6 00 00 00 00 00      	vx_join	a2
10004888: 67 00 10 00 00 00 00 00      	ret

10004890 <main>:
10004890: 13 04 20 f0 0f ff ff 0f      	addi	sp, sp, -0x10
10004898: 23 00 24 10 c0 00 00 00      	sw.global	ra, 0xc(sp)
100048a0: 17 14 00 00 00 00 00 00      	auipc	a0, 0x0
100048a8: 13 16 a0 f0 8f 7a fc 0f      	addi	a1, a0, -0x3858
100048b0: 17 14 00 00 00 00 00 00      	auipc	a0, 0x0
100048b8: 13 18 a0 00 00 75 00 00      	addi	a2, a0, 0x750
100048c0: 23 00 b4 c0 00 00 00 00      	sw.global	a2, 0x0(a1)
100048c8: 13 14 00 00 40 00 00 00      	li	a0, 0x4
100048d0: 23 00 b4 a0 40 00 00 00      	sw.global	a0, 0x4(a1)
100048d8: 13 14 00 00 00 10 00 00      	li	a0, 0x100
100048e0: 23 00 b4 a0 80 00 00 00      	sw.global	a0, 0x8(a1)
100048e8: 17 18 00 00 00 00 00 00      	auipc	a2, 0x0
100048f0: 13 14 c0 f0 8f 71 ff 0f      	addi	a0, a2, -0x8e8
100048f8: 6f 02 00 00 80 02 00 00      	jal	0x10004920 <mu_schedule>
10004900: 13 14 00 00 00 00 00 00      	li	a0, 0x0
10004908: 03 02 24 00 c0 00 00 00      	lw.global	ra, 0xc(sp)
10004910: 13 04 20 00 00 01 00 00      	addi	sp, sp, 0x10
10004918: 67 00 10 00 00 00 00 00      	ret

10004920 <mu_schedule>:
10004920: 13 04 20 f0 0f ff ff 0f      	addi	sp, sp, -0x10
10004928: 23 00 24 10 c0 00 00 00      	sw.global	ra, 0xc(sp)
10004930: 73 18 04 00 10 fc 00 00      	csrr	a2, nw
10004938: 73 1a 04 00 20 cc 00 00      	csrr	a3, cid
10004940: 13 1c d2 00 30 00 00 00      	slli	a4, a3, 0x3
10004948: 17 1a 00 00 00 00 00 00      	auipc	a3, 0x0
10004950: 13 1e d0 f0 cf 70 fc 0f      	addi	a5, a3, -0x38f4
10004958: 33 1a f0 e0 00 00 00 00      	add	a3, a5, a4
10004960: 23 00 d4 a0 00 00 00 00      	sw.global	a0, 0x0(a3)
10004968: 23 00 d4 b0 40 00 00 00      	sw.global	a1, 0x4(a3)
10004970: 17 14 00 00 00 00 00 00      	auipc	a0, 0x0
10004978: 13 16 a0 00 80 05 00 00      	addi	a1, a0, 0x58
10004980: 0b 00 c2 b0 00 00 00 00      	vx_wspawn	a2, a1
10004988: 13 14 00 f0 ff ff ff 0f      	li	a0, -0x1
10004990: 0b 00 a0 00 00 00 00 00      	vx_tmc	a0
10004998: 6f 02 00 00 80 07 00 00      	jal	0x10004a10 <_ZL22mu_schedule_standalonev>
100049a0: 13 14 00 00 10 00 00 00      	li	a0, 0x1
100049a8: 0b 00 a0 00 00 00 00 00      	vx_tmc	a0
100049b0: 03 02 24 00 c0 00 00 00      	lw.global	ra, 0xc(sp)
100049b8: 13 04 20 00 00 01 00 00      	addi	sp, sp, 0x10
100049c0: 67 00 10 00 00 00 00 00      	ret

100049c8 <_ZL19mu_schedule_workersv>:
100049c8: 13 04 20 f0 0f ff ff 0f      	addi	sp, sp, -0x10
100049d0: 23 00 24 10 c0 00 00 00      	sw.global	ra, 0xc(sp)
100049d8: 13 14 00 f0 ff ff ff 0f      	li	a0, -0x1
100049e0: 0b 00 a0 00 00 00 00 00      	vx_tmc	a0
100049e8: 6f 02 00 00 80 02 00 00      	jal	0x10004a10 <_ZL22mu_schedule_standalonev>
100049f0: 0b 00 00 00 00 00 00 00      	vx_tmc	zero
100049f8: 03 02 24 00 c0 00 00 00      	lw.global	ra, 0xc(sp)
10004a00: 13 04 20 00 00 01 00 00      	addi	sp, sp, 0x10
10004a08: 67 00 10 00 00 00 00 00      	ret

10004a10 <_ZL22mu_schedule_standalonev>:
10004a10: 13 04 20 f0 0f ff ff 0f      	addi	sp, sp, -0x10
10004a18: 23 00 24 10 c0 00 00 00      	sw.global	ra, 0xc(sp)
10004a20: 73 14 04 00 20 cc 00 00      	csrr	a0, cid
10004a28: 73 1c 04 00 40 f1 00 00      	csrr	a4, mhartid
10004a30: 73 16 04 00 20 fc 00 00      	csrr	a1, nw
10004a38: 73 18 04 00 10 fc 00 00      	csrr	a2, nw
10004a40: 73 1a 04 00 00 fc 00 00      	csrr	a3, nt
10004a48: 33 44 c0 b0 00 00 10 00      	mul	a10, a2, a1
10004a50: 33 18 20 d2 00 00 10 00      	mul	a2, a10, a3
10004a58: 13 16 a2 00 30 00 00 00      	slli	a1, a0, 0x3
10004a60: 17 14 00 00 00 00 00 00      	auipc	a0, 0x0
10004a68: 13 1a a0 f0 4f 5f fc 0f      	addi	a3, a0, -0x3a0c
10004a70: 33 20 d0 b0 00 00 00 00      	add	a6, a3, a1
10004a78: 03 0c 04 01 00 00 00 00      	lw.global	t1, 0x0(a6)
10004a80: 03 14 04 01 40 00 00 00      	lw.global	a0, 0x4(a6)
10004a88: 33 1a ea c0 00 00 10 00      	divu	a3, a4, a2
10004a90: 33 02 d0 c0 00 00 10 00      	mul	ra, a3, a2
10004a98: 33 16 e0 10 00 00 00 02      	sub	a1, a4, ra
10004aa0: 03 02 24 00 c0 00 00 00      	lw.global	ra, 0xc(sp)
10004aa8: 13 04 20 00 00 01 00 00      	addi	sp, sp, 0x10
10004ab0: 67 00 60 00 00 00 00 00      	jr	t1

10004ab8 <_exit>:
10004ab8: 0b 00 00 00 00 00 00 00      	vx_tmc	zero

10004ac0 <init_regs>:
10004ac0: 17 06 00 00 00 00 00 00      	auipc	gp, 0x0
10004ac8: 13 06 30 00 00 5a 01 00      	addi	gp, gp, 0x15a0
10004ad0: 13 04 00 f0 07 00 00 00      	li	sp, 0x7f000000
10004ad8: 73 0a 04 00 40 f1 00 00      	csrr	t0, mhartid
10004ae0: 13 0c 52 00 d0 00 00 00      	slli	t1, t0, 0xd
10004ae8: 13 0e 52 00 40 00 00 00      	slli	t2, t0, 0x4
10004af0: 33 0c 60 70 00 00 00 00      	add	t1, t1, t2
10004af8: 33 04 20 60 00 00 00 02      	sub	sp, sp, t1
10004b00: 17 0c 00 f0 0e 50 fb 0f      	auipc	t1, 0xefffb500
10004b08: 33 0a 50 60 00 00 10 00      	mul	t0, t0, t1
10004b10: 17 08 00 00 f0 58 01 00      	auipc	tp, 0x158f
10004b18: 33 08 40 50 00 00 00 00      	add	tp, tp, t0
10004b20: 13 08 4e f0 0f fc ff 0f      	andi	tp, tp, -0x40
10004b28: 67 00 10 00 00 00 00 00      	ret

10004b30 <init_regs_all>:
10004b30: 13 0a 00 f0 ff ff ff 0f      	li	t0, -0x1
10004b38: 0b 00 50 00 00 00 00 00      	vx_tmc	t0
10004b40: 6f 02 00 f0 0f f8 ff 0f      	jal	0x10004ac0 <init_regs>
10004b48: 0b 00 00 00 00 00 00 00      	vx_tmc	zero
10004b50: 67 00 10 00 00 00 00 00      	ret

10004b58 <vx_wspawn_wait>:
10004b58: 73 0a 04 00 30 cc 00 00      	csrr	t0, gid
10004b60: 13 0c 00 00 10 00 00 00      	li	t1, 0x1
10004b68: 63 fe 53 60 00 ff ff 0f      	bne	t0, t1, 0x10004b58 <vx_wspawn_wait>
10004b70: 67 00 10 00 00 00 00 00      	ret

Disassembly of section .data:

10005000 <x>:
10005000: 10 31        	<unknown>
10005002: a0 34        	<unknown>
10005004: 40 bc        	<unknown>
10005006: b8 c2        	<unknown>
10005008: f0 34        	<unknown>
1000500a: 28 2d        	<unknown>
1000500c: c0 ae        	<unknown>
1000500e: 50 39        	<unknown>
10005010: 90 bd        	<unknown>
10005012: a8 be        	<unknown>
10005014: 50 3b        	<unknown>
10005016: b8 2d        	<unknown>
10005018: b0 31        	<unknown>
1000501a: b8 2e        	<unknown>
1000501c: 30 3a        	<unknown>
1000501e: 40 b6        	<unknown>
10005020: 78 39        	<unknown>
10005022: e8 3d        	<unknown>
10005024: 08 40        	<unknown>
10005026: 70 39        	<unknown>
10005028: 38 be        	<unknown>
1000502a: 80 2f        	<unknown>
1000502c: b0 38        	<unknown>
1000502e: d8 36        	<unknown>
10005030: 18 b7        	<unknown>
10005032: 90 b5        	<unknown>
10005034: 88 3c        	<unknown>
10005036: b8 3b        	<unknown>
10005038: 30 3e        	<unknown>
1000503a: 00 3a        	<unknown>
1000503c: f8 3d        	<unknown>
1000503e: 98 b4        	<unknown>
10005040: d0 ba        	<unknown>
10005042: 60 3f        	<unknown>
10005044: 40 39        	<unknown>
10005046: 70 bd        	<unknown>
10005048: 50 be        	<unknown>
1000504a: 28 35        	<unknown>
1000504c: 28 35        	<unknown>
1000504e: 20 bf        	<unknown>
10005050: d8 bc        	<unknown>
10005052: 28 b5        	<unknown>
10005054: 30 33        	<unknown>
10005056: 38 b1        	<unknown>
10005058: f8 21        	<unknown>
1000505a: b8 ba        	<unknown>
1000505c: 98 ab        	<unknown>
1000505e: 80 be        	<unknown>
10005060: 48 b8        	<unknown>
10005062: 80 36        	<unknown>
10005064: 40 2e        	<unknown>
10005066: 80 b0        	<unknown>
10005068: 88 b8        	<unknown>
1000506a: 18 3f        	<unknown>
1000506c: 18 38        	<unknown>
1000506e: 30 b1        	<unknown>
10005070: 20 b9        	<unknown>
10005072: 40 bc        	<unknown>
10005074: 30 b9        	<unknown>
10005076: a0 bb        	<unknown>
10005078: 48 bd        	<unknown>
1000507a: 10 b8        	<unknown>
1000507c: 80 bd        	<unknown>
1000507e: 80 bd        	<unknown>
10005080: 90 3c        	<unknown>
10005082: 28 3b        	<unknown>
10005084: 20 b5        	<unknown>
10005086: 28 3c        	<unknown>
10005088: e8 3e        	<unknown>
1000508a: f0 37        	<unknown>
1000508c: 08 bc        	<unknown>
1000508e: f0 bf        	<unknown>
10005090: 90 33        	<unknown>
10005092: 18 3d        	<unknown>
10005094: d0 3b        	<unknown>
10005096: 68 b5        	<unknown>
10005098: 80 ba        	<unknown>
1000509a: 08 ba        	<unknown>
1000509c: c8 25        	<unknown>
1000509e: 78 34        	<unknown>
100050a0: a0 a5        	<unknown>
100050a2: 40 b9        	<unknown>
100050a4: 10 b8        	<unknown>
100050a6: 08 b1        	<unknown>
100050a8: 98 3b        	<unknown>
100050aa: 48 bc        	<unknown>
100050ac: d8 3b        	<unknown>
100050ae: 70 bb        	<unknown>
100050b0: 28 b5        	<unknown>
100050b2: 00 ba        	<unknown>
100050b4: a8 ba        	<unknown>
100050b6: b8 ba        	<unknown>
100050b8: 28 bd        	<unknown>
100050ba: 68 34        	<unknown>
100050bc: 78 3b        	<unknown>
100050be: 00 2b        	<unknown>
100050c0: 40 b1        	<unknown>
100050c2: 88 3a        	<unknown>
100050c4: 60 b5        	<unknown>
100050c6: 98 b2        	<unknown>
100050c8: c0 bb        	<unknown>
100050ca: 08 40        	<unknown>
100050cc: 70 ba        	<unknown>
100050ce: a0 ba        	<unknown>
100050d0: b0 3b        	<unknown>
100050d2: f0 ba        	<unknown>
100050d4: 48 37        	<unknown>
100050d6: 68 ba        	<unknown>
100050d8: 90 3d        	<unknown>
100050da: 88 b6        	<unknown>
100050dc: 60 3c        	<unknown>
100050de: 00 b5        	<unknown>
100050e0: f0 aa        	<unknown>
100050e2: 38 34        	<unknown>
100050e4: b0 37        	<unknown>
100050e6: 80 3e        	<unknown>
100050e8: 78 27        	<unknown>
100050ea: e8 ba        	<unknown>
100050ec: 80 33        	<unknown>
100050ee: 48 3b        	<unknown>
100050f0: c0 39        	<unknown>
100050f2: 10 bd        	<unknown>
100050f4: 68 b5        	<unknown>
100050f6: b8 b2        	<unknown>
100050f8: d8 33        	<unknown>
100050fa: 90 36        	<unknown>
100050fc: f0 3a        	<unknown>
100050fe: d0 c0        	<unknown>
10005100: 20 b0        	<unknown>
10005102: 50 bc        	<unknown>
10005104: b0 3c        	<unknown>
10005106: 20 b9        	<unknown>
10005108: 98 b0        	<unknown>
1000510a: 30 94        	<unknown>
1000510c: 48 b0        	<unknown>
1000510e: 90 34        	<unknown>
10005110: 88 3f        	<unknown>
10005112: c0 bc        	<unknown>
10005114: 38 2f        	<unknown>
10005116: 00 bd        	<unknown>
10005118: 60 31        	<unknown>
1000511a: 18 41        	<unknown>
1000511c: b0 ac        	<unknown>
1000511e: 20 40        	<unknown>
10005120: 78 b2        	<unknown>
10005122: 00 3c        	<unknown>
10005124: 50 b8        	<unknown>
10005126: d8 2e        	<unknown>
10005128: 38 38        	<unknown>
1000512a: 78 c2        	<unknown>
1000512c: 18 3d        	<unknown>
1000512e: 28 38        	<unknown>
10005130: b0 32        	<unknown>
10005132: 18 29        	<unknown>
10005134: 00 30        	<unknown>
10005136: d0 40        	<unknown>
10005138: 90 ba        	<unknown>
1000513a: e0 b9        	<unknown>
1000513c: 78 3c        	<unknown>
1000513e: 88 3d        	<unknown>
10005140: 88 35        	<unknown>
10005142: c8 ac        	<unknown>
10005144: b8 b9        	<unknown>
10005146: 48 b8        	<unknown>
10005148: a8 3d        	<unknown>
1000514a: 60 36        	<unknown>
1000514c: 68 b9        	<unknown>
1000514e: 50 b1        	<unknown>
10005150: 70 b5        	<unknown>
10005152: 98 bc        	<unknown>
10005154: 88 b3        	<unknown>
10005156: d8 39        	<unknown>
10005158: b0 2e        	<unknown>
1000515a: 40 3a        	<unknown>
1000515c: d8 b7        	<unknown>
1000515e: 90 3c        	<unknown>
10005160: 88 3b        	<unknown>
10005162: 70 b6        	<unknown>
10005164: 10 ba        	<unknown>
10005166: 18 bc        	<unknown>
10005168: 70 b7        	<unknown>
1000516a: 00 36        	<unknown>
1000516c: 80 3b        	<unknown>
1000516e: 30 34        	<unknown>
10005170: 78 c1        	<unknown>
10005172: 08 37        	<unknown>
10005174: 10 3b        	<unknown>
10005176: b0 b9        	<unknown>
10005178: 60 3d        	<unknown>
1000517a: 20 2f        	<unknown>
1000517c: 60 3c        	<unknown>
1000517e: 88 bf        	<unknown>
10005180: 98 bd        	<unknown>
10005182: b0 3f        	<unknown>
10005184: 28 b9        	<unknown>
10005186: 48 3a        	<unknown>
10005188: f8 b4        	<unknown>
1000518a: 08 be        	<unknown>
1000518c: b8 b8        	<unknown>
1000518e: d8 bb        	<unknown>
10005190: c8 38        	<unknown>
10005192: 80 bf        	<unknown>
10005194: f0 32        	<unknown>
10005196: 48 40        	<unknown>
10005198: d0 2c        	<unknown>
1000519a: 30 3b        	<unknown>
1000519c: e0 b5        	<unknown>
1000519e: 00 3d        	<unknown>
100051a0: c8 3c        	<unknown>
100051a2: 38 bc        	<unknown>
100051a4: 38 b9        	<unknown>
100051a6: a8 a9        	<unknown>
100051a8: a8 3d        	<unknown>
100051aa: 70 39        	<unknown>
100051ac: b0 a5        	<unknown>
100051ae: 28 b6        	<unknown>
100051b0: 28 c0        	<unknown>
100051b2: 58 b6        	<unknown>
100051b4: 70 23        	<unknown>
100051b6: f0 38        	<unknown>
100051b8: 20 30        	<unknown>
100051ba: f0 3f        	<unknown>
100051bc: 20 bd        	<unknown>
100051be: 58 bc        	<unknown>
100051c0: 70 38        	<unknown>
100051c2: 08 39        	<unknown>
100051c4: 88 ba        	<unknown>
100051c6: e8 b7        	<unknown>
100051c8: b0 3c        	<unknown>
100051ca: d0 39        	<unknown>
100051cc: c8 3c        	<unknown>
100051ce: 28 38        	<unknown>
100051d0: b8 3b        	<unknown>
100051d2: e0 ba        	<unknown>
100051d4: b0 37        	<unknown>
100051d6: f0 39        	<unknown>
100051d8: 80 1c        	<unknown>
100051da: e8 38        	<unknown>
100051dc: 10 3b        	<unknown>
100051de: 00 3d        	<unknown>
100051e0: 88 3d        	<unknown>
100051e2: 78 ba        	<unknown>
100051e4: c0 29        	<unknown>
100051e6: 60 c0        	<unknown>
100051e8: 20 c0        	<unknown>
100051ea: 20 3c        	<unknown>
100051ec: 20 33        	<unknown>
100051ee: 40 b2        	<unknown>
100051f0: e0 33        	<unknown>
100051f2: e0 38        	<unknown>
100051f4: a0 3f        	<unknown>
100051f6: 48 3b        	<unknown>
100051f8: 50 34        	<unknown>
100051fa: d8 3b        	<unknown>
100051fc: 10 3b        	<unknown>
100051fe: 18 ba        	<unknown>
10005200: f0 b4        	<unknown>
10005202: d0 36        	<unknown>
10005204: 20 37        	<unknown>
10005206: e0 36        	<unknown>
10005208: f0 36        	<unknown>
1000520a: 18 c1        	<unknown>
1000520c: 60 2a        	<unknown>
1000520e: 60 31        	<unknown>
10005210: 50 3a        	<unknown>
10005212: c8 34        	<unknown>
10005214: 18 be        	<unknown>
10005216: e0 bc        	<unknown>
10005218: 68 35        	<unknown>
1000521a: 10 bc        	<unknown>
1000521c: 78 b1        	<unknown>
1000521e: 88 bc        	<unknown>
10005220: b8 2e        	<unknown>
10005222: e0 be        	<unknown>
10005224: 80 38        	<unknown>
10005226: 08 bc        	<unknown>
10005228: 40 34        	<unknown>
1000522a: 50 b4        	<unknown>
1000522c: 10 b1        	<unknown>
1000522e: 78 3c        	<unknown>
10005230: 10 b2        	<unknown>
10005232: 08 b6        	<unknown>
10005234: e8 37        	<unknown>
10005236: f8 b4        	<unknown>
10005238: c8 35        	<unknown>
1000523a: 68 b9        	<unknown>
1000523c: 70 b8        	<unknown>
1000523e: 18 b7        	<unknown>
10005240: a8 39        	<unknown>
10005242: 20 34        	<unknown>
10005244: 68 b5        	<unknown>
10005246: f8 39        	<unknown>
10005248: f8 37        	<unknown>
1000524a: 98 3f        	<unknown>
1000524c: d8 39        	<unknown>
1000524e: 08 c1        	<unknown>
10005250: 78 35        	<unknown>
10005252: 90 b7        	<unknown>
10005254: 70 b5        	<unknown>
10005256: 50 b2        	<unknown>
10005258: 90 ba        	<unknown>
1000525a: b0 b7        	<unknown>
1000525c: e8 bb        	<unknown>
1000525e: b0 3c        	<unknown>
10005260: 20 a8        	<unknown>
10005262: 40 37        	<unknown>
10005264: b8 b8        	<unknown>
10005266: 20 b4        	<unknown>
10005268: e8 31        	<unknown>
1000526a: 38 b5        	<unknown>
1000526c: 28 3d        	<unknown>
1000526e: 78 2b        	<unknown>
10005270: 58 31        	<unknown>
10005272: 80 bc        	<unknown>
10005274: 68 b0        	<unknown>
10005276: 48 bc        	<unknown>
10005278: c8 3a        	<unknown>
1000527a: 08 bc        	<unknown>
1000527c: 18 bd        	<unknown>
1000527e: 38 b7        	<unknown>
10005280: 98 34        	<unknown>
10005282: 98 39        	<unknown>
10005284: 60 3c        	<unknown>
10005286: 70 36        	<unknown>
10005288: 08 ad        	<unknown>
1000528a: 50 b4        	<unknown>
1000528c: 68 3c        	<unknown>
1000528e: 08 39        	<unknown>
10005290: 08 b3        	<unknown>
10005292: 78 34        	<unknown>
10005294: 08 b5        	<unknown>
10005296: 20 bc        	<unknown>
10005298: b8 bc        	<unknown>
1000529a: a0 39        	<unknown>
1000529c: 00 3b        	<unknown>
1000529e: f0 3c        	<unknown>
100052a0: f8 bc        	<unknown>
100052a2: b0 37        	<unknown>
100052a4: 40 b7        	<unknown>
100052a6: 68 3d        	<unknown>
100052a8: e0 b8        	<unknown>
100052aa: 68 2e        	<unknown>
100052ac: 80 2c        	<unknown>
100052ae: 60 34        	<unknown>
100052b0: 68 38        	<unknown>
100052b2: d8 b5        	<unknown>
100052b4: 20 ba        	<unknown>
100052b6: 88 b8        	<unknown>
100052b8: 70 3d        	<unknown>
100052ba: 70 b9        	<unknown>
100052bc: 78 39        	<unknown>
100052be: 38 3d        	<unknown>
100052c0: 50 bc        	<unknown>
100052c2: 08 39        	<unknown>
100052c4: 98 c0        	<unknown>
100052c6: 60 32        	<unknown>
100052c8: 60 ac        	<unknown>
100052ca: f0 3a        	<unknown>
100052cc: 48 3b        	<unknown>
100052ce: 68 42        	<unknown>
100052d0: b0 3e        	<unknown>
100052d2: 58 33        	<unknown>
100052d4: 68 3c        	<unknown>
100052d6: f8 c1        	<unknown>
100052d8: 50 2e        	<unknown>
100052da: 40 bd        	<unknown>
100052dc: 78 b4        	<unknown>
100052de: 90 3f        	<unknown>
100052e0: 60 b0        	<unknown>
100052e2: 30 3b        	<unknown>
100052e4: a0 37        	<unknown>
100052e6: 40 b4        	<unknown>
100052e8: c8 a9        	<unknown>
100052ea: b8 b9        	<unknown>
100052ec: 10 39        	<unknown>
100052ee: 18 2e        	<unknown>
100052f0: 38 b4        	<unknown>
100052f2: 70 3f        	<unknown>
100052f4: 98 ad        	<unknown>
100052f6: 48 b0        	<unknown>
100052f8: f0 38        	<unknown>
100052fa: 88 b6        	<unknown>
100052fc: 40 40        	<unknown>
100052fe: 10 38        	<unknown>
10005300: d8 3c        	<unknown>
10005302: 98 bf        	<unknown>
10005304: a8 b3        	<unknown>
10005306: 20 bb        	<unknown>
10005308: b8 35        	<unknown>
1000530a: 58 28        	<unknown>
1000530c: a0 2a        	<unknown>
1000530e: a8 3b        	<unknown>
10005310: 38 b0        	<unknown>
10005312: a8 9f        	<unknown>
10005314: 28 3e        	<unknown>
10005316: 70 35        	<unknown>
10005318: 88 35        	<unknown>
1000531a: 50 3d        	<unknown>
1000531c: 98 ba        	<unknown>
1000531e: a0 40        	<unknown>
10005320: b0 b8        	<unknown>
10005322: 60 bc        	<unknown>
10005324: 40 bf        	<unknown>
10005326: f0 b7        	<unknown>
10005328: 40 3d        	<unknown>
1000532a: e8 b8        	<unknown>
1000532c: e8 3c        	<unknown>
1000532e: 00 3b        	<unknown>
10005330: c8 38        	<unknown>
10005332: a8 16        	<unknown>
10005334: 60 32        	<unknown>
10005336: 28 bd        	<unknown>
10005338: 50 b8        	<unknown>
1000533a: 40 b3        	<unknown>
1000533c: 10 bd        	<unknown>
1000533e: 48 b2        	<unknown>
10005340: b0 2c        	<unknown>
10005342: d0 b8        	<unknown>
10005344: 00 ba        	<unknown>
10005346: 50 34        	<unknown>
10005348: 08 bd        	<unknown>
1000534a: 70 32        	<unknown>
1000534c: 18 ba        	<unknown>
1000534e: 30 b2        	<unknown>
10005350: f0 b8        	<unknown>
10005352: 28 39        	<unknown>
10005354: 18 a9        	<unknown>
10005356: e0 b3        	<unknown>
10005358: 68 b8        	<unknown>
1000535a: 60 b5        	<unknown>
1000535c: 38 bd        	<unknown>
1000535e: 58 b6        	<unknown>
10005360: 58 b9        	<unknown>
10005362: e8 3e        	<unknown>
10005364: 28 38        	<unknown>
10005366: b8 3a        	<unknown>
10005368: 10 b6        	<unknown>
1000536a: 28 3e        	<unknown>
1000536c: b8 a8        	<unknown>
1000536e: d8 3b        	<unknown>
10005370: 40 b5        	<unknown>
10005372: 38 a5        	<unknown>
10005374: 28 bd        	<unknown>
10005376: 58 31        	<unknown>
10005378: d0 3f        	<unknown>
1000537a: 40 3d        	<unknown>
1000537c: 08 b1        	<unknown>
1000537e: 20 bb        	<unknown>
10005380: f0 b9        	<unknown>
10005382: c8 34        	<unknown>
10005384: 18 3e        	<unknown>
10005386: 90 c0        	<unknown>
10005388: 98 2f        	<unknown>
1000538a: 60 b0        	<unknown>
1000538c: a0 b4        	<unknown>
1000538e: 88 bb        	<unknown>
10005390: c8 39        	<unknown>
10005392: 80 3c        	<unknown>
10005394: b8 3b        	<unknown>
10005396: 50 b7        	<unknown>
10005398: 60 34        	<unknown>
1000539a: 70 3b        	<unknown>
1000539c: f0 36        	<unknown>
1000539e: c8 c1        	<unknown>
100053a0: 80 40        	<unknown>
100053a2: 60 38        	<unknown>
100053a4: c8 2f        	<unknown>
100053a6: 68 ae        	<unknown>
100053a8: 88 b9        	<unknown>
100053aa: d0 b8        	<unknown>
100053ac: 08 2b        	<unknown>
100053ae: 90 b9        	<unknown>
100053b0: 80 b6        	<unknown>
100053b2: e0 a6        	<unknown>
100053b4: 70 3b        	<unknown>
100053b6: 28 37        	<unknown>
100053b8: a0 bc        	<unknown>
100053ba: 08 b0        	<unknown>
100053bc: c8 3a        	<unknown>
100053be: c0 ae        	<unknown>
100053c0: a8 b4        	<unknown>
100053c2: a8 b8        	<unknown>
100053c4: 78 38        	<unknown>
100053c6: 68 39        	<unknown>
100053c8: e0 3f        	<unknown>
100053ca: 18 35        	<unknown>
100053cc: 10 b5        	<unknown>
100053ce: 10 b0        	<unknown>
100053d0: b8 b8        	<unknown>
100053d2: 00 3e        	<unknown>
100053d4: 28 b6        	<unknown>
100053d6: 60 ba        	<unknown>
100053d8: 88 30        	<unknown>
100053da: 40 ab        	<unknown>
100053dc: 88 38        	<unknown>
100053de: b0 bb        	<unknown>
100053e0: c0 31        	<unknown>
100053e2: 60 bd        	<unknown>
100053e4: 20 35        	<unknown>
100053e6: a0 39        	<unknown>
100053e8: a0 bc        	<unknown>
100053ea: c0 bd        	<unknown>
100053ec: 70 3c        	<unknown>
100053ee: 08 3a        	<unknown>
100053f0: c0 af        	<unknown>
100053f2: 10 bb        	<unknown>
100053f4: 80 3e        	<unknown>
100053f6: 28 a0        	<unknown>
100053f8: 98 be        	<unknown>
100053fa: d0 bf        	<unknown>
100053fc: 00 30        	<unknown>
100053fe: 98 21        	<unknown>
10005400: b0 35        	<unknown>
10005402: e0 ac        	<unknown>
10005404: 10 3a        	<unknown>
10005406: d0 3a        	<unknown>
10005408: 48 39        	<unknown>
1000540a: 28 34        	<unknown>
1000540c: 98 3d        	<unknown>
1000540e: a0 3a        	<unknown>
10005410: c0 bf        	<unknown>
10005412: 58 3b        	<unknown>
10005414: 00 bc        	<unknown>
10005416: 60 bc        	<unknown>
10005418: e0 24        	<unknown>
1000541a: e0 3d        	<unknown>
1000541c: c8 32        	<unknown>
1000541e: e0 3b        	<unknown>
10005420: 90 bb        	<unknown>
10005422: 80 b9        	<unknown>
10005424: 28 23        	<unknown>
10005426: d0 3c        	<unknown>
10005428: 98 ba        	<unknown>
1000542a: e0 bb        	<unknown>
1000542c: 40 2d        	<unknown>
1000542e: 38 bd        	<unknown>
10005430: 78 38        	<unknown>
10005432: 00 bd        	<unknown>
10005434: 88 38        	<unknown>
10005436: 68 3d        	<unknown>
10005438: 08 a1        	<unknown>
1000543a: e8 b8        	<unknown>
1000543c: 40 39        	<unknown>
1000543e: 98 3e        	<unknown>
10005440: d8 bc        	<unknown>
10005442: d8 3d        	<unknown>
10005444: 70 40        	<unknown>
10005446: 70 3c        	<unknown>
10005448: 80 33        	<unknown>
1000544a: 90 bc        	<unknown>
1000544c: 48 3d        	<unknown>
1000544e: 48 3a        	<unknown>
10005450: 40 bc        	<unknown>
10005452: f8 3c        	<unknown>
10005454: 98 3c        	<unknown>
10005456: 40 b5        	<unknown>
10005458: 00 bd        	<unknown>
1000545a: b0 b9        	<unknown>
1000545c: 68 bb        	<unknown>
1000545e: c8 3d        	<unknown>
10005460: a0 35        	<unknown>
10005462: e0 37        	<unknown>
10005464: 78 bc        	<unknown>
10005466: 18 2f        	<unknown>
10005468: 08 bc        	<unknown>
1000546a: 18 b6        	<unknown>
1000546c: 08 3b        	<unknown>
1000546e: 40 30        	<unknown>
10005470: 50 35        	<unknown>
10005472: e0 3c        	<unknown>
10005474: c0 b2        	<unknown>
10005476: c8 39        	<unknown>
10005478: 18 30        	<unknown>
1000547a: b8 32        	<unknown>
1000547c: e0 bd        	<unknown>
1000547e: 98 3f        	<unknown>
10005480: 20 36        	<unknown>
10005482: 38 37        	<unknown>
10005484: 50 b7        	<unknown>
10005486: 20 b5        	<unknown>
10005488: 40 3e        	<unknown>
1000548a: 40 b2        	<unknown>
1000548c: 70 b4        	<unknown>
1000548e: 58 3c        	<unknown>
10005490: 50 bc        	<unknown>
10005492: 40 3d        	<unknown>
10005494: b8 3c        	<unknown>
10005496: 38 3c        	<unknown>
10005498: d0 3c        	<unknown>
1000549a: f8 39        	<unknown>
1000549c: c8 30        	<unknown>
1000549e: 60 b4        	<unknown>
100054a0: c8 38        	<unknown>
100054a2: 88 37        	<unknown>
100054a4: b8 b1        	<unknown>
100054a6: e0 34        	<unknown>
100054a8: 28 c1        	<unknown>
100054aa: 78 bc        	<unknown>
100054ac: 98 3b        	<unknown>
100054ae: 38 3d        	<unknown>
100054b0: 38 39        	<unknown>
100054b2: 58 b9        	<unknown>
100054b4: 10 35        	<unknown>
100054b6: 60 ac        	<unknown>
100054b8: e8 b6        	<unknown>
100054ba: e8 b0        	<unknown>
100054bc: b0 3f        	<unknown>
100054be: b0 37        	<unknown>
100054c0: 20 3c        	<unknown>
100054c2: a0 3d        	<unknown>
100054c4: 00 38        	<unknown>
100054c6: a8 c1        	<unknown>
100054c8: 00 36        	<unknown>
100054ca: 50 38        	<unknown>
100054cc: c8 3e        	<unknown>
100054ce: 88 35        	<unknown>
100054d0: 48 3d        	<unknown>
100054d2: 90 3d        	<unknown>
100054d4: 70 bd        	<unknown>
100054d6: d8 bc        	<unknown>
100054d8: d8 3c        	<unknown>
100054da: a8 ba        	<unknown>
100054dc: a0 b9        	<unknown>
100054de: f8 b9        	<unknown>
100054e0: 48 b5        	<unknown>
100054e2: 00 38        	<unknown>
100054e4: d8 b5        	<unknown>
100054e6: c0 30        	<unknown>
100054e8: c8 39        	<unknown>
100054ea: 40 b9        	<unknown>
100054ec: d0 ba        	<unknown>
100054ee: 18 37        	<unknown>
100054f0: 08 34        	<unknown>
100054f2: 98 bc        	<unknown>
100054f4: e0 b8        	<unknown>
100054f6: f8 3c        	<unknown>
100054f8: e0 b5        	<unknown>
100054fa: 20 bc        	<unknown>
100054fc: 70 2c        	<unknown>
100054fe: 48 b8        	<unknown>
10005500: 78 b5        	<unknown>
10005502: e0 31        	<unknown>
10005504: f8 bc        	<unknown>
10005506: c0 3a        	<unknown>
10005508: 50 b0        	<unknown>
1000550a: e8 38        	<unknown>
1000550c: c0 b9        	<unknown>
1000550e: d0 bf        	<unknown>
10005510: a8 3f        	<unknown>
10005512: 90 a8        	<unknown>
10005514: 38 bd        	<unknown>
10005516: 90 b4        	<unknown>
10005518: b0 bd        	<unknown>
1000551a: 48 bb        	<unknown>
1000551c: 18 2e        	<unknown>
1000551e: f8 3c        	<unknown>
10005520: b0 38        	<unknown>
10005522: b8 3c        	<unknown>
10005524: 70 3c        	<unknown>
10005526: b8 b7        	<unknown>
10005528: e8 3c        	<unknown>
1000552a: f0 bf        	<unknown>
1000552c: 38 ba        	<unknown>
1000552e: 08 bc        	<unknown>
10005530: 08 39        	<unknown>
10005532: 80 bc        	<unknown>
10005534: 58 3d        	<unknown>
10005536: 58 38        	<unknown>
10005538: 88 b9        	<unknown>
1000553a: d8 3c        	<unknown>
1000553c: 58 35        	<unknown>
1000553e: 18 27        	<unknown>
10005540: 60 3d        	<unknown>
10005542: 78 a6        	<unknown>
10005544: f8 3a        	<unknown>
10005546: 08 be        	<unknown>
10005548: 70 36        	<unknown>
1000554a: 00 b9        	<unknown>
1000554c: 70 3d        	<unknown>
1000554e: 50 ba        	<unknown>
10005550: 00 3e        	<unknown>
10005552: e0 3d        	<unknown>
10005554: e0 38        	<unknown>
10005556: 98 3d        	<unknown>
10005558: 08 38        	<unknown>
1000555a: 80 b8        	<unknown>
1000555c: c0 14        	<unknown>
1000555e: 18 40        	<unknown>
10005560: 20 3e        	<unknown>
10005562: 90 40        	<unknown>
10005564: 78 30        	<unknown>
10005566: 08 b4        	<unknown>
10005568: b8 40        	<unknown>
1000556a: 98 41        	<unknown>
1000556c: 58 b5        	<unknown>
1000556e: c8 3b        	<unknown>
10005570: 58 bc        	<unknown>
10005572: c8 b5        	<unknown>
10005574: 90 3c        	<unknown>
10005576: b8 3c        	<unknown>
10005578: 20 bd        	<unknown>
1000557a: a0 b8        	<unknown>
1000557c: 10 b5        	<unknown>
1000557e: 60 35        	<unknown>
10005580: e8 b8        	<unknown>
10005582: f0 3c        	<unknown>
10005584: 20 ba        	<unknown>
10005586: a8 35        	<unknown>
10005588: 78 3d        	<unknown>
1000558a: e8 3d        	<unknown>
1000558c: 40 b2        	<unknown>
1000558e: 08 39        	<unknown>
10005590: 18 b4        	<unknown>
10005592: 20 3d        	<unknown>
10005594: 38 37        	<unknown>
10005596: d8 bc        	<unknown>
10005598: 88 32        	<unknown>
1000559a: 30 3d        	<unknown>
1000559c: a8 b0        	<unknown>
1000559e: 78 bb        	<unknown>
100055a0: c0 39        	<unknown>
100055a2: 18 34        	<unknown>
100055a4: d0 3c        	<unknown>
100055a6: 88 39        	<unknown>
100055a8: b0 ba        	<unknown>
100055aa: e0 3a        	<unknown>
100055ac: 70 ae        	<unknown>
100055ae: 20 ba        	<unknown>
100055b0: 50 be        	<unknown>
100055b2: 10 3d        	<unknown>
100055b4: 98 b0        	<unknown>
100055b6: b0 37        	<unknown>
100055b8: 90 3d        	<unknown>
100055ba: 08 bc        	<unknown>
100055bc: b8 3a        	<unknown>
100055be: c0 30        	<unknown>
100055c0: 08 3d        	<unknown>
100055c2: 60 b3        	<unknown>
100055c4: 10 36        	<unknown>
100055c6: 50 30        	<unknown>
100055c8: f8 b4        	<unknown>
100055ca: a8 30        	<unknown>
100055cc: 40 bb        	<unknown>
100055ce: e8 39        	<unknown>
100055d0: 60 b6        	<unknown>
100055d2: 28 37        	<unknown>
100055d4: 50 39        	<unknown>
100055d6: 90 3d        	<unknown>
100055d8: 30 33        	<unknown>
100055da: 60 31        	<unknown>
100055dc: a8 b8        	<unknown>
100055de: a0 b3        	<unknown>
100055e0: e0 35        	<unknown>
100055e2: f0 b7        	<unknown>
100055e4: c8 bd        	<unknown>
100055e6: e0 be        	<unknown>
100055e8: 20 39        	<unknown>
100055ea: 78 3a        	<unknown>
100055ec: 40 3c        	<unknown>
100055ee: 68 38        	<unknown>
100055f0: 08 38        	<unknown>
100055f2: 40 be        	<unknown>
100055f4: f8 3d        	<unknown>
100055f6: 80 3e        	<unknown>
100055f8: 10 bd        	<unknown>
100055fa: 10 39        	<unknown>
100055fc: 48 37        	<unknown>
100055fe: f8 31        	<unknown>
10005600: 60 3c        	<unknown>
10005602: 68 b6        	<unknown>
10005604: 20 b9        	<unknown>
10005606: b0 b7        	<unknown>
10005608: 70 b4        	<unknown>
1000560a: 88 b5        	<unknown>
1000560c: 58 2d        	<unknown>
1000560e: b0 bc        	<unknown>
10005610: 18 3e        	<unknown>
10005612: a8 3b        	<unknown>
10005614: 58 40        	<unknown>
10005616: 38 3b        	<unknown>
10005618: e8 39        	<unknown>
1000561a: a8 b7        	<unknown>
1000561c: 20 bc        	<unknown>
1000561e: 30 2f        	<unknown>
10005620: 40 bc        	<unknown>
10005622: d8 b5        	<unknown>
10005624: c0 3c        	<unknown>
10005626: 70 bd        	<unknown>
10005628: a0 bb        	<unknown>
1000562a: 98 34        	<unknown>
1000562c: d8 bb        	<unknown>
1000562e: d8 bd        	<unknown>
10005630: 70 3c        	<unknown>
10005632: 58 35        	<unknown>
10005634: d0 bc        	<unknown>
10005636: 28 b0        	<unknown>
10005638: c0 40        	<unknown>
1000563a: b8 af        	<unknown>
1000563c: a0 b9        	<unknown>
1000563e: 28 b3        	<unknown>
10005640: b8 b8        	<unknown>
10005642: d0 3b        	<unknown>
10005644: 70 bf        	<unknown>
10005646: 58 3a        	<unknown>
10005648: e8 b3        	<unknown>
1000564a: 68 b9        	<unknown>
1000564c: 60 35        	<unknown>
1000564e: 40 3b        	<unknown>
10005650: 38 35        	<unknown>
10005652: 60 2f        	<unknown>
10005654: c0 3b        	<unknown>
10005656: 68 bc        	<unknown>
10005658: d8 a9        	<unknown>
1000565a: 60 31        	<unknown>
1000565c: 10 3b        	<unknown>
1000565e: 98 3f        	<unknown>
10005660: c8 3b        	<unknown>
10005662: d0 b4        	<unknown>
10005664: 60 3d        	<unknown>
10005666: 18 b3        	<unknown>
10005668: 60 b6        	<unknown>
1000566a: 78 2d        	<unknown>
1000566c: f8 b7        	<unknown>
1000566e: 50 bc        	<unknown>
10005670: 10 bc        	<unknown>
10005672: f0 34        	<unknown>
10005674: 70 38        	<unknown>
10005676: c0 b4        	<unknown>
10005678: 70 39        	<unknown>
1000567a: c8 b1        	<unknown>
1000567c: 50 b8        	<unknown>
1000567e: 18 bd        	<unknown>
10005680: b0 3d        	<unknown>
10005682: 40 3a        	<unknown>
10005684: 10 23        	<unknown>
10005686: d0 b3        	<unknown>
10005688: a8 39        	<unknown>
1000568a: d0 35        	<unknown>
1000568c: 90 31        	<unknown>
1000568e: c8 3a        	<unknown>
10005690: b8 32        	<unknown>
10005692: 48 b2        	<unknown>
10005694: c8 bc        	<unknown>
10005696: 78 be        	<unknown>
10005698: 58 b8        	<unknown>
1000569a: 28 3c        	<unknown>
1000569c: b0 38        	<unknown>
1000569e: 78 aa        	<unknown>
100056a0: d0 3f        	<unknown>
100056a2: 60 bc        	<unknown>
100056a4: 70 39        	<unknown>
100056a6: 58 bb        	<unknown>
100056a8: 90 bd        	<unknown>
100056aa: 30 a9        	<unknown>
100056ac: 98 ba        	<unknown>
100056ae: e8 2f        	<unknown>
100056b0: 88 bc        	<unknown>
100056b2: 18 37        	<unknown>
100056b4: 60 2d        	<unknown>
100056b6: f0 bc        	<unknown>
100056b8: 10 bc        	<unknown>
100056ba: e8 b6        	<unknown>
100056bc: 48 30        	<unknown>
100056be: b0 ac        	<unknown>
100056c0: f8 b4        	<unknown>
100056c2: 20 3c        	<unknown>
100056c4: b8 ba        	<unknown>
100056c6: 18 ae        	<unknown>
100056c8: b8 3f        	<unknown>
100056ca: 28 3b        	<unknown>
100056cc: 80 36        	<unknown>
100056ce: 70 bb        	<unknown>
100056d0: 48 2e        	<unknown>
100056d2: 10 32        	<unknown>
100056d4: 98 af        	<unknown>
100056d6: 00 3a        	<unknown>
100056d8: 48 b9        	<unknown>
100056da: a0 c0        	<unknown>
100056dc: c0 b7        	<unknown>
100056de: 20 b8        	<unknown>
100056e0: 68 3a        	<unknown>
100056e2: 40 2f        	<unknown>
100056e4: 48 3c        	<unknown>
100056e6: 20 bd        	<unknown>
100056e8: 00 b2        	<unknown>
100056ea: 18 bc        	<unknown>
100056ec: 58 3d        	<unknown>
100056ee: 00 37        	<unknown>
100056f0: 18 ba        	<unknown>
100056f2: 68 3b        	<unknown>
100056f4: 58 bc        	<unknown>
100056f6: d8 bb        	<unknown>
100056f8: 18 39        	<unknown>
100056fa: 00 35        	<unknown>
100056fc: f8 bc        	<unknown>
100056fe: 18 39        	<unknown>
10005700: 30 3b        	<unknown>
10005702: 10 39        	<unknown>
10005704: 98 be        	<unknown>
10005706: f0 36        	<unknown>
10005708: 30 b5        	<unknown>
1000570a: 48 c1        	<unknown>
1000570c: 00 c0        	<unknown>
1000570e: c0 b3        	<unknown>
10005710: e0 ab        	<unknown>
10005712: 28 b6        	<unknown>
10005714: 18 bf        	<unknown>
10005716: 68 38        	<unknown>
10005718: f8 b4        	<unknown>
1000571a: 68 30        	<unknown>
1000571c: 68 bf        	<unknown>
1000571e: 18 38        	<unknown>
10005720: 98 bc        	<unknown>
10005722: 20 3b        	<unknown>
10005724: 50 bb        	<unknown>
10005726: 28 37        	<unknown>
10005728: a8 b8        	<unknown>
1000572a: c0 37        	<unknown>
1000572c: 20 be        	<unknown>
1000572e: 78 ba        	<unknown>
10005730: 68 3a        	<unknown>
10005732: 38 bc        	<unknown>
10005734: c0 b0        	<unknown>
10005736: 38 b0        	<unknown>
10005738: 40 3a        	<unknown>
1000573a: f8 38        	<unknown>
1000573c: 50 bf        	<unknown>
1000573e: d0 3b        	<unknown>
10005740: b8 ae        	<unknown>
10005742: e0 ad        	<unknown>
10005744: 18 3d        	<unknown>
10005746: 40 ba        	<unknown>
10005748: 08 b4        	<unknown>
1000574a: f0 3b        	<unknown>
1000574c: 10 b9        	<unknown>
1000574e: 80 b4        	<unknown>
10005750: 18 b8        	<unknown>
10005752: 58 b3        	<unknown>
10005754: a0 b6        	<unknown>
10005756: 60 3d        	<unknown>
10005758: 18 35        	<unknown>
1000575a: b0 bd        	<unknown>
1000575c: 38 34        	<unknown>
1000575e: b0 b5        	<unknown>
10005760: a0 3c        	<unknown>
10005762: 98 38        	<unknown>
10005764: 28 33        	<unknown>
10005766: 38 bc        	<unknown>
10005768: e8 34        	<unknown>
1000576a: 20 39        	<unknown>
1000576c: 88 3d        	<unknown>
1000576e: 30 bb        	<unknown>
10005770: b0 bf        	<unknown>
10005772: 80 38        	<unknown>
10005774: 60 b8        	<unknown>
10005776: 58 3a        	<unknown>
10005778: d8 38        	<unknown>
1000577a: b8 3e        	<unknown>
1000577c: 38 bf        	<unknown>
1000577e: 78 bb        	<unknown>
10005780: 18 b0        	<unknown>
10005782: 08 c0        	<unknown>
10005784: 08 3c        	<unknown>
10005786: 10 3c        	<unknown>
10005788: 08 bd        	<unknown>
1000578a: 08 3d        	<unknown>
1000578c: 28 ba        	<unknown>
1000578e: 28 ae        	<unknown>
10005790: 80 b5        	<unknown>
10005792: a0 c0        	<unknown>
10005794: 98 bc        	<unknown>
10005796: d0 ac        	<unknown>
10005798: e8 b7        	<unknown>
1000579a: a0 35        	<unknown>
1000579c: e0 39        	<unknown>
1000579e: 20 40        	<unknown>
100057a0: 88 38        	<unknown>
100057a2: f0 3a        	<unknown>
100057a4: 68 35        	<unknown>
100057a6: 98 bc        	<unknown>
100057a8: 00 b7        	<unknown>
100057aa: c8 b8        	<unknown>
100057ac: 10 3c        	<unknown>
100057ae: b0 38        	<unknown>
100057b0: c0 c0        	<unknown>
100057b2: a0 b9        	<unknown>
100057b4: 20 bb        	<unknown>
100057b6: d8 3c        	<unknown>
100057b8: 08 3b        	<unknown>
100057ba: 90 b7        	<unknown>
100057bc: 08 3f        	<unknown>
100057be: 48 bc        	<unknown>
100057c0: 78 3a        	<unknown>
100057c2: 68 3e        	<unknown>
100057c4: d0 b6        	<unknown>
100057c6: 90 bc        	<unknown>
100057c8: 78 36        	<unknown>
100057ca: 10 bc        	<unknown>
100057cc: 98 3b        	<unknown>
100057ce: 30 be        	<unknown>
100057d0: 60 3a        	<unknown>
100057d2: 18 c0        	<unknown>
100057d4: 70 ba        	<unknown>
100057d6: d0 be        	<unknown>
100057d8: f8 3c        	<unknown>
100057da: 28 b5        	<unknown>
100057dc: a8 af        	<unknown>
100057de: 98 be        	<unknown>
100057e0: d0 35        	<unknown>
100057e2: 68 bd        	<unknown>
100057e4: 20 b6        	<unknown>
100057e6: 30 33        	<unknown>
100057e8: d8 bc        	<unknown>
100057ea: 90 b4        	<unknown>
100057ec: 70 b8        	<unknown>
100057ee: 28 3a        	<unknown>
100057f0: 88 b9        	<unknown>
100057f2: 90 bc        	<unknown>
100057f4: d0 38        	<unknown>
100057f6: 10 b4        	<unknown>
100057f8: 08 36        	<unknown>
100057fa: 70 22        	<unknown>
100057fc: 78 bc        	<unknown>
100057fe: c0 3a        	<unknown>

10005800 <__dso_handle>:
10005800: 00 00        	<unknown>
10005802: 00 00        	<unknown>

Disassembly of section .eh_frame:

10006000 <.eh_frame>:
10006000: 10 00        	<unknown>
10006002: 00 00        	<unknown>
10006004: 00 00        	<unknown>
10006006: 00 00        	<unknown>
10006008: 01 7a        	<unknown>
1000600a: 52 00        	<unknown>
1000600c: 01 7c        	<unknown>
1000600e: 01 01        	<unknown>
10006010: 1b 0c 02 00 14 00 00 00      	<unknown>
10006018: 18 00        	<unknown>
1000601a: 00 00        	<unknown>
1000601c: 04 e9        	<unknown>
1000601e: ff ff a8 00 00 00 00 48      	<unknown>
10006026: 0e 10        	<unknown>
10006028: 48 81        	<unknown>
1000602a: 01 00        	<unknown>
1000602c: 14 00        	<unknown>
1000602e: 00 00        	<unknown>
10006030: 30 00        	<unknown>
10006032: 00 00        	<unknown>
10006034: 94 e9        	<unknown>
10006036: ff ff 48 00 00 00 00 48      	<unknown>
1000603e: 0e 10        	<unknown>
10006040: 48 81        	<unknown>
10006042: 01 00        	<unknown>
10006044: 14 00        	<unknown>
10006046: 00 00        	<unknown>
10006048: 48 00        	<unknown>
1000604a: 00 00        	<unknown>
1000604c: c4 e9        	<unknown>
1000604e: ff ff a8 00 00 00 00 48      	<unknown>
10006056: 0e 10        	<unknown>
10006058: 48 81        	<unknown>
1000605a: 01 00        	<unknown>
1000605c: 00 00        	<unknown>
1000605e: 00 00        	<unknown>

Disassembly of section .comment:

00000000 <.comment>:
       0: 63 6c 61 6e 67 20 76 65      	<unknown>
       8: 72 73        	<unknown>
       a: 69 6f        	<unknown>
       c: 6e 20        	<unknown>
       e: 31 38        	<unknown>
      10: 2e 31        	<unknown>
      12: 2e 37        	<unknown>
      14: 20 28        	<unknown>
      16: 67 69 74 40 67 69 74 68      	<unknown>
      1e: 75 62        	<unknown>
      20: 2e 63        	<unknown>
      22: 6f 6d 3a 72 69 63 68 61      	<unknown>
      2a: 72 64        	<unknown>
      2c: 79 72        	<unknown>
      2e: 68 2f        	<unknown>
      30: 6c 6c        	<unknown>
      32: 76 6d        	<unknown>
      34: 2e 67        	<unknown>
      36: 69 74        	<unknown>
      38: 20 35        	<unknown>
      3a: 33 33 66 30 63 64 30 63      	<unknown>
      42: 63 62 38 33 39 35 36 32      	<unknown>
      4a: 66 61        	<unknown>
      4c: 38 65        	<unknown>
      4e: 61 64        	<unknown>
      50: 34 31        	<unknown>
      52: 63 30 31 35 64 64 36 64      	<unknown>
      5a: 30 61        	<unknown>
      5c: 33 35 61 31 33 29 00 4c      	<unknown>
      64: 69 6e        	<unknown>
      66: 6b 65 72 3a 20 4c 4c 44      	<unknown>
      6e: 20 31        	<unknown>
      70: 38 2e        	<unknown>
      72: 31 2e        	<unknown>
      74: 37 00 00 63 6c 61 6e 67      	<unknown>
      7c: 20 76        	<unknown>
      7e: 65 72        	<unknown>
      80: 73 69 6f 6e 20 31 38 2e      	<unknown>
      88: 31 2e        	<unknown>
      8a: 37 20 28 67 69 74 40 67      	<unknown>
      92: 69 74        	<unknown>
      94: 68 75        	<unknown>
      96: 62 2e        	<unknown>
      98: 63 6f 6d 3a 72 69 63 68      	<unknown>
      a0: 61 72        	<unknown>
      a2: 64 79        	<unknown>
      a4: 72 68        	<unknown>
      a6: 2f 6c 6c 76 6d 2e 67 69      	<unknown>
      ae: 74 20        	<unknown>
      b0: 37 35 35 63 65 63 65 30      	<unknown>
      b8: 39 31        	<unknown>
      ba: 63 32 38 35 61 38 33 37      	<unknown>
      c2: 31 32        	<unknown>
      c4: 65 63        	<unknown>
      c6: 30 65        	<unknown>
      c8: 39 66        	<unknown>
      ca: 32 31        	<unknown>
      cc: 36 62        	<unknown>
      ce: 65 31        	<unknown>
      d0: 62 63        	<unknown>
      d2: 37 66 33 62 62 66 29 00      	<unknown>

Disassembly of section .riscv.attributes:

00000000 <.riscv.attributes>:
       0: 41 47        	<unknown>
       2: 00 00        	<unknown>
       4: 00 72        	<unknown>
       6: 69 73        	<unknown>
       8: 63 76 00 01 3d 00 00 00      	<unknown>
      10: 04 10        	<unknown>
      12: 05 72        	<unknown>
      14: 76 33        	<unknown>
      16: 32 69        	<unknown>
      18: 32 70        	<unknown>
      1a: 31 5f        	<unknown>
      1c: 6d 32        	<unknown>
      1e: 70 30        	<unknown>
      20: 5f 7a 69 63 73 72 32 70      	<unknown>
      28: 30 5f        	<unknown>
      2a: 7a 66        	<unknown>
      2c: 69 6e        	<unknown>
      2e: 78 31        	<unknown>
      30: 70 30        	<unknown>
      32: 5f 7a 68 69 6e 78 31 70      	<unknown>
      3a: 30 5f        	<unknown>
      3c: 7a 68        	<unknown>
      3e: 69 6e        	<unknown>
      40: 78 6d        	<unknown>
      42: 69 6e        	<unknown>
      44: 31 70        	<unknown>
      46: 30 00        	<unknown>

Disassembly of section .symtab:

00000000 <.symtab>:
		...
      10: 01 00        	<unknown>
		...
      1a: 00 00        	<unknown>
      1c: 04 00        	<unknown>
      1e: f1 ff        	<unknown>
      20: 0c 00        	<unknown>
      22: 00 00        	<unknown>
      24: 00 40        	<unknown>
      26: 00 10        	<unknown>
      28: 00 00        	<unknown>
      2a: 00 00        	<unknown>
      2c: 00 00        	<unknown>
      2e: 05 00        	<unknown>
      30: 11 00        	<unknown>
      32: 00 00        	<unknown>
      34: 90 48        	<unknown>
      36: 00 10        	<unknown>
      38: 00 00        	<unknown>
      3a: 00 00        	<unknown>
      3c: 00 00        	<unknown>
      3e: 05 00        	<unknown>
      40: 16 00        	<unknown>
      42: 00 00        	<unknown>
      44: 48 10        	<unknown>
      46: 00 10        	<unknown>
      48: 00 00        	<unknown>
      4a: 00 00        	<unknown>
      4c: 00 00        	<unknown>
      4e: 03 00 1b 00 00 00 00 50      	<unknown>
      56: 00 10        	<unknown>
      58: 00 00        	<unknown>
      5a: 00 00        	<unknown>
      5c: 00 00        	<unknown>
      5e: 06 00        	<unknown>
      60: 20 00        	<unknown>
      62: 00 00        	<unknown>
      64: 76 00        	<unknown>
		...
      6e: 08 00        	<unknown>
      70: 25 00        	<unknown>
		...
      7e: f1 ff        	<unknown>
      80: 2a 00        	<unknown>
		...
      8a: 00 00        	<unknown>
      8c: 04 00        	<unknown>
      8e: f1 ff        	<unknown>
      90: 00 00        	<unknown>
      92: 00 00        	<unknown>
      94: 20 49        	<unknown>
      96: 00 10        	<unknown>
      98: 00 00        	<unknown>
      9a: 00 00        	<unknown>
      9c: 00 00        	<unknown>
      9e: 05 00        	<unknown>
      a0: 3a 00        	<unknown>
      a2: 00 00        	<unknown>
      a4: 20 49        	<unknown>
      a6: 00 10        	<unknown>
      a8: 00 00        	<unknown>
      aa: 00 00        	<unknown>
      ac: 00 00        	<unknown>
      ae: 05 00        	<unknown>
      b0: 3f 00 00 00 54 10 00 10      	<unknown>
      b8: 00 20        	<unknown>
      ba: 00 00        	<unknown>
      bc: 01 00        	<unknown>
      be: 04 00        	<unknown>
      c0: 55 00        	<unknown>
      c2: 00 00        	<unknown>
      c4: c8 49        	<unknown>
      c6: 00 10        	<unknown>
      c8: 48 00        	<unknown>
      ca: 00 00        	<unknown>
      cc: 02 00        	<unknown>
      ce: 05 00        	<unknown>
      d0: 6f 00 00 00 10 4a 00 10      	<unknown>
      d8: a8 00        	<unknown>
      da: 00 00        	<unknown>
      dc: 02 00        	<unknown>
      de: 05 00        	<unknown>
      e0: 00 00        	<unknown>
      e2: 00 00        	<unknown>
      e4: c8 49        	<unknown>
      e6: 00 10        	<unknown>
      e8: 00 00        	<unknown>
      ea: 00 00        	<unknown>
      ec: 00 00        	<unknown>
      ee: 05 00        	<unknown>
      f0: 00 00        	<unknown>
      f2: 00 00        	<unknown>
      f4: c8 49        	<unknown>
      f6: 00 10        	<unknown>
      f8: 00 00        	<unknown>
      fa: 00 00        	<unknown>
      fc: 00 00        	<unknown>
      fe: 05 00        	<unknown>
     100: 8c 00        	<unknown>
     102: 00 00        	<unknown>
     104: c8 49        	<unknown>
     106: 00 10        	<unknown>
     108: 00 00        	<unknown>
     10a: 00 00        	<unknown>
     10c: 00 00        	<unknown>
     10e: 05 00        	<unknown>
     110: 00 00        	<unknown>
     112: 00 00        	<unknown>
     114: 10 4a        	<unknown>
     116: 00 10        	<unknown>
     118: 00 00        	<unknown>
     11a: 00 00        	<unknown>
     11c: 00 00        	<unknown>
     11e: 05 00        	<unknown>
     120: 00 00        	<unknown>
     122: 00 00        	<unknown>
     124: 10 4a        	<unknown>
     126: 00 10        	<unknown>
     128: 00 00        	<unknown>
     12a: 00 00        	<unknown>
     12c: 00 00        	<unknown>
     12e: 05 00        	<unknown>
     130: 91 00        	<unknown>
     132: 00 00        	<unknown>
     134: 10 4a        	<unknown>
     136: 00 10        	<unknown>
     138: 00 00        	<unknown>
     13a: 00 00        	<unknown>
     13c: 00 00        	<unknown>
     13e: 05 00        	<unknown>
     140: 00 00        	<unknown>
     142: 00 00        	<unknown>
     144: b8 4a        	<unknown>
     146: 00 10        	<unknown>
     148: 00 00        	<unknown>
     14a: 00 00        	<unknown>
     14c: 00 00        	<unknown>
     14e: 05 00        	<unknown>
     150: 96 00        	<unknown>
     152: 00 00        	<unknown>
     154: 54 10        	<unknown>
     156: 00 10        	<unknown>
     158: 00 00        	<unknown>
     15a: 00 00        	<unknown>
     15c: 00 00        	<unknown>
     15e: 04 00        	<unknown>
     160: 9b 00 00 00 76 00 00 00      	<unknown>
     168: 00 00        	<unknown>
     16a: 00 00        	<unknown>
     16c: 00 00        	<unknown>
     16e: 08 00        	<unknown>
     170: a0 00        	<unknown>
		...
     17e: f1 ff        	<unknown>
     180: a5 00        	<unknown>
     182: 00 00        	<unknown>
     184: 00 60        	<unknown>
     186: 00 10        	<unknown>
     188: 00 00        	<unknown>
     18a: 00 00        	<unknown>
     18c: 00 00        	<unknown>
     18e: 07 00 aa 00 00 00 00 10      	<unknown>
     196: 00 10        	<unknown>
     198: 00 00        	<unknown>
     19a: 00 00        	<unknown>
     19c: 00 00        	<unknown>
     19e: 02 00        	<unknown>
     1a0: af 00 00 00 00 00 00 00      	<unknown>
     1a8: 00 00        	<unknown>
     1aa: 00 00        	<unknown>
     1ac: 00 00        	<unknown>
     1ae: f1 ff        	<unknown>
     1b0: b4 00        	<unknown>
     1b2: 00 00        	<unknown>
     1b4: 00 00        	<unknown>
     1b6: 00 10        	<unknown>
     1b8: 00 00        	<unknown>
     1ba: 00 00        	<unknown>
     1bc: 00 00        	<unknown>
     1be: 01 00        	<unknown>
     1c0: b9 00        	<unknown>
     1c2: 00 00        	<unknown>
     1c4: 30 4b        	<unknown>
     1c6: 00 10        	<unknown>
     1c8: 00 00        	<unknown>
     1ca: 00 00        	<unknown>
     1cc: 02 00        	<unknown>
     1ce: 05 00        	<unknown>
     1d0: c7 00 00 00 c0 4a 00 10      	<unknown>
     1d8: 00 00        	<unknown>
     1da: 00 00        	<unknown>
     1dc: 02 00        	<unknown>
     1de: 05 00        	<unknown>
     1e0: d1 00        	<unknown>
     1e2: 00 00        	<unknown>
     1e4: b8 4a        	<unknown>
     1e6: 00 10        	<unknown>
     1e8: 00 00        	<unknown>
     1ea: 00 00        	<unknown>
     1ec: 00 00        	<unknown>
     1ee: 05 00        	<unknown>
     1f0: d6 00        	<unknown>
     1f2: 00 00        	<unknown>
     1f4: 00 58        	<unknown>
     1f6: 00 10        	<unknown>
     1f8: 00 00        	<unknown>
     1fa: 00 00        	<unknown>
     1fc: 00 00        	<unknown>
     1fe: 06 00        	<unknown>
     200: db 00 00 00 00 00 00 00      	<unknown>
     208: 00 00        	<unknown>
     20a: 00 00        	<unknown>
     20c: 00 00        	<unknown>
     20e: f1 ff        	<unknown>
     210: e0 00        	<unknown>
     212: 00 00        	<unknown>
     214: 00 40        	<unknown>
     216: 00 10        	<unknown>
     218: 90 08        	<unknown>
     21a: 00 00        	<unknown>
     21c: 12 00        	<unknown>
     21e: 05 00        	<unknown>
     220: f0 00        	<unknown>
     222: 00 00        	<unknown>
     224: 90 48        	<unknown>
     226: 00 10        	<unknown>
     228: 90 00        	<unknown>
     22a: 00 00        	<unknown>
     22c: 12 00        	<unknown>
     22e: 05 00        	<unknown>
     230: f5 00        	<unknown>
     232: 00 00        	<unknown>
     234: 48 10        	<unknown>
     236: 00 10        	<unknown>
     238: 0c 00        	<unknown>
     23a: 00 00        	<unknown>
     23c: 11 00        	<unknown>
     23e: 03 00 02 01 00 00 00 50      	<unknown>
     246: 00 10        	<unknown>
     248: 00 08        	<unknown>
     24a: 00 00        	<unknown>
     24c: 11 00        	<unknown>
     24e: 06 00        	<unknown>
     250: 04 01        	<unknown>
     252: 00 00        	<unknown>
     254: 20 49        	<unknown>
     256: 00 10        	<unknown>
     258: a8 00        	<unknown>
     25a: 00 00        	<unknown>
     25c: 12 00        	<unknown>
     25e: 05 00        	<unknown>
     260: 10 01        	<unknown>
     262: 00 00        	<unknown>
     264: 00 00        	<unknown>
     266: 00 10        	<unknown>
     268: 50 00        	<unknown>
     26a: 00 00        	<unknown>
     26c: 12 00        	<unknown>
     26e: 01 00        	<unknown>
     270: 17 01 00 00 b8 4a 00 10      	<unknown>
     278: 00 00        	<unknown>
     27a: 00 00        	<unknown>
     27c: 12 00        	<unknown>
     27e: 05 00        	<unknown>
     280: 1d 01        	<unknown>
     282: 00 00        	<unknown>
     284: 58 4b        	<unknown>
     286: 00 10        	<unknown>
     288: 00 00        	<unknown>
     28a: 00 00        	<unknown>
     28c: 12 00        	<unknown>
     28e: 05 00        	<unknown>
     290: 2c 01        	<unknown>
     292: 00 00        	<unknown>
     294: 00 58        	<unknown>
     296: 00 10        	<unknown>
     298: 00 00        	<unknown>
     29a: 00 00        	<unknown>
     29c: 20 00        	<unknown>
     29e: 06 00        	<unknown>
     2a0: 39 01        	<unknown>
     2a2: 00 00        	<unknown>
     2a4: 00 10        	<unknown>
     2a6: 00 10        	<unknown>
     2a8: 00 00        	<unknown>
     2aa: 00 00        	<unknown>
     2ac: 10 00        	<unknown>
     2ae: 02 00        	<unknown>
     2b0: 40 01        	<unknown>
     2b2: 00 00        	<unknown>
     2b4: 40 10        	<unknown>
     2b6: 00 10        	<unknown>
     2b8: 00 00        	<unknown>
     2ba: 00 00        	<unknown>
     2bc: 10 00        	<unknown>
     2be: 02 00        	<unknown>
     2c0: 49 01        	<unknown>
     2c2: 00 00        	<unknown>
     2c4: 60 60        	<unknown>
     2c6: 00 10        	<unknown>
     2c8: 00 00        	<unknown>
     2ca: 00 00        	<unknown>
     2cc: 10 00        	<unknown>
     2ce: 07 00 5a 01 00 00 00 00      	<unknown>
     2d6: 00 00        	<unknown>
     2d8: 00 00        	<unknown>
     2da: 00 00        	<unknown>
     2dc: 10 00        	<unknown>
     2de: f1 ff        	<unknown>
     2e0: 6d 01        	<unknown>
     2e2: 00 00        	<unknown>
     2e4: 60 60        	<unknown>
     2e6: 00 10        	<unknown>
     2e8: 00 00        	<unknown>
     2ea: 00 00        	<unknown>
     2ec: 10 00        	<unknown>
     2ee: 07           	<unknown>
     2ef: 00           	<unknown>

Disassembly of section .shstrtab:

00000000 <.shstrtab>:
       0: 00 2e        	<unknown>
       2: 69 6e        	<unknown>
       4: 69 74        	<unknown>
       6: 00 2e        	<unknown>
       8: 74 6f        	<unknown>
       a: 68 6f        	<unknown>
       c: 73 74 00 2e 62 73 73 2e      	<unknown>
      14: 73 6f 66 74 6d 61 78 5f      	<unknown>
      1c: 61 72        	<unknown>
      1e: 67 73 00 2e 62 73 73 2e      	<unknown>
      26: 5f 5a 4c 31 36 73 63 68      	<unknown>
      2e: 65 64        	<unknown>
      30: 75 6c        	<unknown>
      32: 65 5f        	<unknown>
      34: 63 6f 6e 74 65 78 74 00      	<unknown>
      3c: 2e 74        	<unknown>
      3e: 65 78        	<unknown>
      40: 74 00        	<unknown>
      42: 2e 64        	<unknown>
      44: 61 74        	<unknown>
      46: 61 00        	<unknown>
      48: 2e 65        	<unknown>
      4a: 68 5f        	<unknown>
      4c: 66 72        	<unknown>
      4e: 61 6d        	<unknown>
      50: 65 00        	<unknown>
      52: 2e 63        	<unknown>
      54: 6f 6d 6d 65 6e 74 00 2e      	<unknown>
      5c: 72 69        	<unknown>
      5e: 73 63 76 2e 61 74 74 72      	<unknown>
      66: 69 62        	<unknown>
      68: 75 74        	<unknown>
      6a: 65 73        	<unknown>
      6c: 00 2e        	<unknown>
      6e: 73 79 6d 74 61 62 00 2e      	<unknown>
      76: 73 68 73 74 72 74 61 62      	<unknown>
      7e: 00 2e        	<unknown>
      80: 73           	<unknown>
      81: 74 72        	<unknown>
      83: 74 61        	<unknown>
      85: 62 00        	<unknown>

Disassembly of section .strtab:

00000000 <.strtab>:
       0: 00 6b        	<unknown>
       2: 65 72        	<unknown>
       4: 6e 65        	<unknown>
       6: 6c 2e        	<unknown>
       8: 63 70 70 00 24 78 2e 30      	<unknown>
      10: 00 24        	<unknown>
      12: 78 2e        	<unknown>
      14: 31 00        	<unknown>
      16: 24 64        	<unknown>
      18: 2e 32        	<unknown>
      1a: 00 24        	<unknown>
      1c: 64 2e        	<unknown>
      1e: 33 00 24 64 2e 34 00 24      	<unknown>
      26: 64 2e        	<unknown>
      28: 35 00        	<unknown>
      2a: 6d 75        	<unknown>
      2c: 5f 73 63 68 65 64 75 6c      	<unknown>
      34: 65 2e        	<unknown>
      36: 63 70 70 00 24 78 2e 30      	<unknown>
      3e: 00 5f        	<unknown>
      40: 5a 4c        	<unknown>
      42: 31 36        	<unknown>
      44: 73 63 68 65 64 75 6c 65      	<unknown>
      4c: 5f 63 6f 6e 74 65 78 74      	<unknown>
      54: 00 5f        	<unknown>
      56: 5a 4c        	<unknown>
      58: 31 39        	<unknown>
      5a: 6d 75        	<unknown>
      5c: 5f 73 63 68 65 64 75 6c      	<unknown>
      64: 65 5f        	<unknown>
      66: 77 6f 72 6b 65 72 73 76      	<unknown>
      6e: 00 5f        	<unknown>
      70: 5a 4c        	<unknown>
      72: 32 32        	<unknown>
      74: 6d 75        	<unknown>
      76: 5f 73 63 68 65 64 75 6c      	<unknown>
      7e: 65 5f        	<unknown>
      80: 73 74 61 6e 64 61 6c 6f      	<unknown>
      88: 6e 65        	<unknown>
      8a: 76 00        	<unknown>
      8c: 24 78        	<unknown>
      8e: 2e 31        	<unknown>
      90: 00 24        	<unknown>
      92: 78 2e        	<unknown>
      94: 32 00        	<unknown>
      96: 24 64        	<unknown>
      98: 2e 33        	<unknown>
      9a: 00 24        	<unknown>
      9c: 64 2e        	<unknown>
      9e: 34 00        	<unknown>
      a0: 24 64        	<unknown>
      a2: 2e 35        	<unknown>
      a4: 00 24        	<unknown>
      a6: 64 2e        	<unknown>
      a8: 36 00        	<unknown>
      aa: 24 64        	<unknown>
      ac: 2e 30        	<unknown>
      ae: 00 24        	<unknown>
      b0: 64 2e        	<unknown>
      b2: 31 00        	<unknown>
      b4: 24 78        	<unknown>
      b6: 2e 30        	<unknown>
      b8: 00 69        	<unknown>
      ba: 6e 69        	<unknown>
      bc: 74 5f        	<unknown>
      be: 72 65        	<unknown>
      c0: 67 73 5f 61 6c 6c 00 69      	<unknown>
      c8: 6e 69        	<unknown>
      ca: 74 5f        	<unknown>
      cc: 72 65        	<unknown>
      ce: 67 73 00 24 78 2e 31 00      	<unknown>
      d6: 24 64        	<unknown>
      d8: 2e 32        	<unknown>
      da: 00 24        	<unknown>
      dc: 64 2e        	<unknown>
      de: 33 00 5f 5a 37 73 6f 66      	<unknown>
      e6: 74 6d        	<unknown>
      e8: 61 78        	<unknown>
      ea: 50 76        	<unknown>
      ec: 6a 6a        	<unknown>
      ee: 6a 00        	<unknown>
      f0: 6d 61        	<unknown>
      f2: 69 6e        	<unknown>
      f4: 00 73        	<unknown>
      f6: 6f 66 74 6d 61 78 5f 61      	<unknown>
      fe: 72 67        	<unknown>
     100: 73 00 78 00 6d 75 5f 73      	<unknown>
     108: 63 68 65 64 75 6c 65 00      	<unknown>
     110: 5f 73 74 61 72 74 00 5f      	<unknown>
     118: 65 78        	<unknown>
     11a: 69 74        	<unknown>
     11c: 00 76        	<unknown>
     11e: 78 5f        	<unknown>
     120: 77 73 70 61 77 6e 5f 77      	<unknown>
     128: 61 69        	<unknown>
     12a: 74 00        	<unknown>
     12c: 5f 5f 64 73 6f 5f 68 61      	<unknown>
     134: 6e 64        	<unknown>
     136: 6c 65        	<unknown>
     138: 00 74        	<unknown>
     13a: 6f 68 6f 73 74 00 66 72      	<unknown>
     142: 6f 6d 68 6f 73 74 00 5f      	<unknown>
     14a: 5f 67 6c 6f 62 61 6c 5f      	<unknown>
     152: 70 6f        	<unknown>
     154: 69 6e        	<unknown>
     156: 74 65        	<unknown>
     158: 72 00        	<unknown>
     15a: 5f 5f 74 63 62 5f 61 6c      	<unknown>
     162: 69 67        	<unknown>
     164: 6e 65        	<unknown>
     166: 64 5f        	<unknown>
     168: 73 69 7a 65 00 5f 65 6e      	<unknown>
     170: 64 00        	<unknown>
