
kernel.radiance.elf:	file format elf32-littleriscv

Disassembly of section .init:

10000000 <_start>:
10000000: 73 0a 04 00 10 fc 00 00      	csrr	t0, nw
10000008: 17 0c 00 00 80 45 0b 00      	auipc	t1, 0xb458
10000010: 0b 00 52 60 00 00 00 00      	vx_wspawn	t0, t1
10000018: 13 0a 00 f0 ff ff ff 0f      	li	t0, -0x1
10000020: 0b 00 50 00 00 00 00 00      	vx_tmc	t0
10000028: 6f 02 00 00 80 3c 0b 00      	jal	0x1000b3f0 <init_regs>
10000030: 13 0a 00 00 10 00 00 00      	li	t0, 0x1
10000038: 0b 00 50 00 00 00 00 00      	vx_tmc	t0
10000040: 6f 02 00 00 80 0f 0b 00      	jal	0x1000b138 <main>
10000048: 6f 00 00 00 00 3a 0b 00      	j	0x1000b3e8 <_exit>

Disassembly of section .tohost:

10001000 <tohost>:
		...

10001040 <fromhost>:
		...

Disassembly of section .sbss:

10001048 <_ZL16schedule_context.0>:
...

1000104c <_ZL16schedule_context.1>:
...

10001050 <_ZL16schedule_context.2>:
...

Disassembly of section .bss.swiglu_args:

10001054 <swiglu_args>:
...

Disassembly of section .bss.C_raw:

10001068 <C_raw>:
...

Disassembly of section .text:

1000a000 <_Z6swigluPvjjj>:
1000a000: 03 40 a4 00 c0 00 00 00      	lw.global	a8, 0xc(a0)
1000a008: 33 1c 06 00 02 00 00 00      	snez	a4, a8
1000a010: 0b 18 e4 00 00 00 00 00      	vx_split	a2, a4
1000a018: 63 00 e2 00 00 01 00 00      	bnez	a4, 0x1000a028 <_Z6swigluPvjjj+0x28>
1000a020: 6f 00 00 00 80 10 01 00      	j	0x1000b128 <_Z6swigluPvjjj+0x1128>
1000a028: 03 1e a4 00 00 01 00 00      	lw.global	a5, 0x10(a0)
1000a030: 13 46 00 00 00 00 00 00      	li	a11, 0x0
1000a038: 33 1c 00 d2 00 00 10 00      	mul	a4, a8, a3
1000a040: 13 4c f0 00 f0 07 00 00      	addi	a14, a5, 0x7f
1000a048: 13 42 6a 02 70 00 00 00      	srli	a9, a14, 0x7
1000a050: 13 22 06 02 40 00 00 00      	sltiu	a7, a8, 0x4
1000a058: 13 48 18 01 10 00 00 00      	xori	a12, a7, 0x1
1000a060: 0b 44 44 12 00 00 00 00      	vx_split_n	a10, a12
1000a068: 13 22 b2 00 10 00 00 00      	slli	a7, a1, 0x1
1000a070: 13 20 66 02 00 08 00 00      	sltiu	a6, a14, 0x80
1000a078: 63 00 40 02 80 cf 00 00      	beqz	a12, 0x1000ad70 <_Z6swigluPvjjj+0xd70>
1000a080: 13 46 00 00 00 00 00 00      	li	a11, 0x0
1000a088: 13 4a 0e f2 cf ff ff 0f      	andi	a13, a8, -0x4
1000a090: 13 48 10 f2 df ff ff 0f      	addi	a12, a9, -0x3
1000a098: 13 4c b0 f0 0f f8 ff 0f      	addi	a14, a1, -0x80
1000a0a0: 33 54 00 f2 00 00 10 00      	mul	a18, a8, a5
1000a0a8: 33 4e a0 d2 00 00 10 00      	mul	a15, a18, a3
1000a0b0: 13 50 72 02 10 00 00 00      	slli	a16, a15, 0x1
1000a0b8: 33 4e 80 12 01 00 00 00      	add	a15, a16, a7
1000a0c0: 13 1a 70 02 00 20 00 00      	addi	a3, a15, 0x200
1000a0c8: 13 50 f2 00 30 00 00 00      	slli	a16, a5, 0x3
1000a0d0: 13 52 e0 00 10 00 00 00      	addi	a17, a4, 0x1
1000a0d8: 33 54 f0 90 02 00 10 00      	mul	a18, a5, a17
1000a0e0: 13 4e a2 02 10 00 00 00      	slli	a15, a18, 0x1
1000a0e8: 33 54 70 12 01 00 00 00      	add	a18, a15, a7
1000a0f0: 13 4e a0 02 00 20 00 00      	addi	a15, a18, 0x200
1000a0f8: 13 52 e0 00 20 00 00 00      	addi	a17, a4, 0x2
1000a100: 33 54 f0 90 02 00 10 00      	mul	a18, a5, a17
1000a108: 13 56 a2 02 10 00 00 00      	slli	a19, a18, 0x1
1000a110: 33 54 b0 12 01 00 00 00      	add	a18, a19, a7
1000a118: 13 52 a0 02 00 20 00 00      	addi	a17, a18, 0x200
1000a120: 13 58 e0 00 30 00 00 00      	addi	a20, a4, 0x3
1000a128: 33 54 f0 c0 02 00 10 00      	mul	a18, a5, a20
1000a130: 13 56 a2 02 10 00 00 00      	slli	a19, a18, 0x1
1000a138: 33 58 b0 12 01 00 00 00      	add	a20, a19, a7
1000a140: 13 54 c0 02 00 20 00 00      	addi	a18, a20, 0x200
1000a148: 73 56 04 00 40 cc 00 00      	csrr	a19, tmask
1000a150: 13 5a 08 01 10 00 00 00      	xori	a21, a6, 0x1
1000a158: 13 58 00 00 00 f8 03 00      	li	a20, 0x3f80
1000a160: 6f 00 00 00 80 05 00 00      	j	0x1000a1b8 <_Z6swigluPvjjj+0x1b8>
1000a168: 0b 00 e6 02 00 00 00 00      	vx_join	a22
1000a170: 13 46 30 02 40 00 00 00      	addi	a11, a11, 0x4
1000a178: 33 1a d0 80 02 00 00 00      	add	a3, a3, a16
1000a180: 33 4e 70 82 02 00 00 00      	add	a15, a15, a16
1000a188: 33 52 90 82 02 00 00 00      	add	a17, a17, a16
1000a190: 33 54 a0 82 02 00 00 00      	add	a18, a18, a16
1000a198: 33 5c 38 52 02 00 00 00      	xor	a22, a11, a13
1000a1a0: 13 0a e6 02 10 00 00 00      	seqz	t0, a22
1000a1a8: 0b 02 5a b0 02 00 00 00      	vx_pred_n	t0, a19
1000a1b0: 63 00 52 00 00 bc 00 00      	bnez	t0, 0x1000ad70 <_Z6swigluPvjjj+0xd70>
1000a1b8: 0b 5c d4 12 00 00 00 00      	vx_split_n	a22, a21
1000a1c0: 63 00 d0 02 00 2e 00 00      	beqz	a21, 0x1000a4a0 <_Z6swigluPvjjj+0x4a0>
1000a1c8: 03 5e a4 00 80 00 00 00      	lw.global	a23, 0x8(a0)
1000a1d0: 03 c0 a4 00 40 00 00 00      	lw.global	t7, 0x4(a0)
1000a1d8: 03 3e a4 00 00 00 00 00      	lw.global	t6, 0x0(a0)
1000a1e0: 33 38 f0 d2 00 00 00 00      	add	t3, a23, a3
1000a1e8: 33 0e 00 d6 00 00 00 00      	add	t2, t7, a3
1000a1f0: 33 0c f0 d1 00 00 00 00      	add	t1, t6, a3
1000a1f8: 73 5e 04 00 40 cc 00 00      	csrr	a23, tmask
1000a200: 13 0a 60 02 00 00 00 00      	mv	t0, a14
1000a208: 13 3a 40 02 00 00 00 00      	mv	t4, a12
1000a210: 6f 00 00 00 00 04 00 00      	j	0x1000a250 <_Z6swigluPvjjj+0x250>
1000a218: 0b 00 36 06 00 00 00 00      	vx_join	t10
1000a220: 0b 00 26 06 00 00 00 00      	vx_join	t9
1000a228: 0b 00 16 06 00 00 00 00      	vx_join	t8
1000a230: 0b 00 f6 01 00 00 00 00      	vx_join	t6
1000a238: 0b 00 e6 01 00 00 00 00      	vx_join	t5
1000a240: 0b 02 0a f6 02 00 00 00      	vx_pred_n	t7, a23
1000a248: 63 00 02 06 80 25 00 00      	bnez	t7, 0x1000a4a0 <_Z6swigluPvjjj+0x4a0>
1000a250: 13 3c 50 00 00 08 00 00      	addi	t5, t0, 0x80
1000a258: 33 c2 e6 f1 00 00 00 00      	sltu	t8, t5, a5
1000a260: 0b 3c 14 16 00 00 00 00      	vx_split_n	t5, t8
1000a268: 13 c0 00 00 10 00 00 00      	li	t7, 0x1
1000a270: 63 fe 11 06 80 fc ff 0f      	beqz	t8, 0x1000a238 <_Z6swigluPvjjj+0x238>
1000a278: 03 3e 62 f0 0f e0 ff 0f      	lh.global	t6, -0x200(t1)
1000a280: 13 c2 00 00 00 00 00 00      	li	t8, 0x0
1000a288: fb c4 fe 21 00 00 e0 02      	fnexp.h	t9, t6
1000a290: 03 c0 72 f0 0f e0 ff 0f      	lh.global	t7, -0x200(t2)
1000a298: 53 c6 2e c6 02 00 20 00      	fadd.h	t10, t9, a20
1000a2a0: 53 c4 ce 32 06 00 e0 00      	fdiv.h	t9, a20, t10
1000a2a8: 53 ca fe 21 06 00 a0 00      	fmul.h	t12, t6, t9
1000a2b0: 53 3e 0e 56 06 00 a0 00      	fmul.h	t6, t7, t12
1000a2b8: 23 fe c3 f1 01 e0 ff 0f      	sh.global	t6, -0x200(t3)
1000a2c0: 13 3e d0 01 20 00 00 00      	addi	t6, t4, 0x2
1000a2c8: 33 c0 06 f0 01 00 00 00      	snez	t7, t6
1000a2d0: 0b 3e 04 16 00 00 00 00      	vx_split_n	t6, t7
1000a2d8: 63 00 00 06 80 01 00 00      	beqz	t7, 0x1000a2f0 <_Z6swigluPvjjj+0x2f0>
1000a2e0: 13 c0 50 00 00 10 00 00      	addi	t7, t0, 0x100
1000a2e8: 33 c2 06 f6 00 00 00 00      	sltu	t8, t7, a5
1000a2f0: 0b 00 f6 01 00 00 00 00      	vx_join	t6
1000a2f8: 0b 3e 14 16 00 00 00 00      	vx_split_n	t6, t8
1000a300: 13 c0 00 00 10 00 00 00      	li	t7, 0x1
1000a308: 63 fe 11 06 80 f2 ff 0f      	beqz	t8, 0x1000a230 <_Z6swigluPvjjj+0x230>
1000a310: 03 c0 62 f0 0f f0 ff 0f      	lh.global	t7, -0x100(t1)
1000a318: 13 c4 00 00 00 00 00 00      	li	t9, 0x0
1000a320: fb c2 0e 26 00 00 e0 02      	fnexp.h	t8, t7
1000a328: 03 c8 72 f0 0f f0 ff 0f      	lh.global	t11, -0x100(t2)
1000a330: 53 c6 1e c6 02 00 20 00      	fadd.h	t10, t8, a20
1000a338: 53 c2 ce 32 06 00 e0 00      	fdiv.h	t8, a20, t10
1000a340: 53 c6 0e 16 06 00 a0 00      	fmul.h	t10, t7, t8
1000a348: 53 c2 4e 36 06 00 a0 00      	fmul.h	t8, t11, t10
1000a350: 23 fe c3 11 06 f0 ff 0f      	sh.global	t8, -0x100(t3)
1000a358: 13 c6 d6 f1 ff ff ff 0f      	sltiu	t10, t4, -0x1
1000a360: 0b c0 34 16 00 00 00 00      	vx_split_n	t7, t10
1000a368: 63 00 30 06 80 01 00 00      	beqz	t10, 0x1000a380 <_Z6swigluPvjjj+0x380>
1000a370: 13 c8 50 00 00 18 00 00      	addi	t11, t0, 0x180
1000a378: 33 c4 46 f6 00 00 00 00      	sltu	t9, t11, a5
1000a380: 0b 00 06 06 00 00 00 00      	vx_join	t7
1000a388: 0b c2 24 16 00 00 00 00      	vx_split_n	t8, t9
1000a390: 13 c0 00 00 10 00 00 00      	li	t7, 0x1
1000a398: 63 fe 21 06 00 e9 ff 0f      	beqz	t9, 0x1000a228 <_Z6swigluPvjjj+0x228>
1000a3a0: 03 c0 62 00 00 00 00 00      	lh.global	t7, 0x0(t1)
1000a3a8: fb c4 0e 26 00 00 e0 02      	fnexp.h	t9, t7
1000a3b0: 03 c8 72 00 00 00 00 00      	lh.global	t11, 0x0(t2)
1000a3b8: 53 c6 2e c6 02 00 20 00      	fadd.h	t10, t9, a20
1000a3c0: 53 c4 ce 32 06 00 e0 00      	fdiv.h	t9, a20, t10
1000a3c8: 53 c6 0e 26 06 00 a0 00      	fmul.h	t10, t7, t9
1000a3d0: 53 c4 4e 36 06 00 a0 00      	fmul.h	t9, t11, t10
1000a3d8: 23 00 c2 21 06 00 00 00      	sh.global	t9, 0x0(t3)
1000a3e0: 33 c6 06 d0 01 00 00 00      	snez	t10, t4
1000a3e8: 0b c4 34 16 00 00 00 00      	vx_split_n	t9, t10
1000a3f0: 13 c0 00 00 10 00 00 00      	li	t7, 0x1
1000a3f8: 63 fe 31 06 80 e2 ff 0f      	beqz	t10, 0x1000a220 <_Z6swigluPvjjj+0x220>
1000a400: 13 0a 50 00 00 20 00 00      	addi	t0, t0, 0x200
1000a408: 33 c8 56 f0 00 00 00 00      	sltu	t11, t0, a5
1000a410: 0b c6 44 16 00 00 00 00      	vx_split_n	t10, t11
1000a418: 13 c0 00 00 10 00 00 00      	li	t7, 0x1
1000a420: 63 fe 41 06 80 df ff 0f      	beqz	t11, 0x1000a218 <_Z6swigluPvjjj+0x218>
1000a428: 03 c0 62 00 00 10 00 00      	lh.global	t7, 0x100(t1)
1000a430: 13 3a d0 f1 cf ff ff 0f      	addi	t4, t4, -0x4
1000a438: fb ca 0e 26 00 00 e0 02      	fnexp.h	t12, t7
1000a440: 03 c8 72 00 00 10 00 00      	lh.global	t11, 0x100(t2)
1000a448: 53 cc 5e c6 02 00 20 00      	fadd.h	t13, t12, a20
1000a450: 53 ca ce 62 06 00 e0 00      	fdiv.h	t12, a20, t13
1000a458: 53 cc 0e 56 06 00 a0 00      	fmul.h	t13, t7, t12
1000a460: 53 ca 4e 66 06 00 a0 00      	fmul.h	t12, t11, t13
1000a468: 23 00 c2 51 06 10 00 00      	sh.global	t12, 0x100(t3)
1000a470: 13 38 c0 01 00 40 00 00      	addi	t3, t3, 0x400
1000a478: 13 0e 70 00 00 40 00 00      	addi	t2, t2, 0x400
1000a480: 13 0c 60 00 00 40 00 00      	addi	t1, t1, 0x400
1000a488: 13 cc d0 01 30 00 00 00      	addi	t13, t4, 0x3
1000a490: 13 c0 66 06 10 00 00 00      	seqz	t7, t13
1000a498: 6f 00 00 f0 0f d8 ff 0f      	j	0x1000a218 <_Z6swigluPvjjj+0x218>
1000a4a0: 0b 00 e6 02 00 00 00 00      	vx_join	a22
1000a4a8: 0b 5c d4 12 00 00 00 00      	vx_split_n	a22, a21
1000a4b0: 63 00 d0 02 00 2e 00 00      	beqz	a21, 0x1000a790 <_Z6swigluPvjjj+0x790>
1000a4b8: 03 38 a4 00 80 00 00 00      	lw.global	t3, 0x8(a0)
1000a4c0: 03 0a a4 00 40 00 00 00      	lw.global	t0, 0x4(a0)
1000a4c8: 03 c0 a4 00 00 00 00 00      	lw.global	t7, 0x0(a0)
1000a4d0: 33 3a c0 71 02 00 00 00      	add	t4, t3, a15
1000a4d8: 33 0c 50 70 02 00 00 00      	add	t1, t0, a15
1000a4e0: 33 0a 00 76 02 00 00 00      	add	t0, t7, a15
1000a4e8: 73 5e 04 00 40 cc 00 00      	csrr	a23, tmask
1000a4f0: 13 38 60 02 00 00 00 00      	mv	t3, a14
1000a4f8: 13 0e 40 02 00 00 00 00      	mv	t2, a12
1000a500: 6f 00 00 00 00 04 00 00      	j	0x1000a540 <_Z6swigluPvjjj+0x540>
1000a508: 0b 00 36 06 00 00 00 00      	vx_join	t10
1000a510: 0b 00 26 06 00 00 00 00      	vx_join	t9
1000a518: 0b 00 16 06 00 00 00 00      	vx_join	t8
1000a520: 0b 00 f6 01 00 00 00 00      	vx_join	t6
1000a528: 0b 00 e6 01 00 00 00 00      	vx_join	t5
1000a530: 0b 02 0a f6 02 00 00 00      	vx_pred_n	t7, a23
1000a538: 63 00 02 06 80 25 00 00      	bnez	t7, 0x1000a790 <_Z6swigluPvjjj+0x790>
1000a540: 13 3c c0 01 00 08 00 00      	addi	t5, t3, 0x80
1000a548: 33 c2 e6 f1 00 00 00 00      	sltu	t8, t5, a5
1000a550: 0b 3c 14 16 00 00 00 00      	vx_split_n	t5, t8
1000a558: 13 c0 00 00 10 00 00 00      	li	t7, 0x1
1000a560: 63 fe 11 06 80 fc ff 0f      	beqz	t8, 0x1000a528 <_Z6swigluPvjjj+0x528>
1000a568: 03 3e 52 f0 0f e0 ff 0f      	lh.global	t6, -0x200(t0)
1000a570: 13 c2 00 00 00 00 00 00      	li	t8, 0x0
1000a578: fb c4 fe 21 00 00 e0 02      	fnexp.h	t9, t6
1000a580: 03 c0 62 f0 0f e0 ff 0f      	lh.global	t7, -0x200(t1)
1000a588: 53 c6 2e c6 02 00 20 00      	fadd.h	t10, t9, a20
1000a590: 53 c4 ce 32 06 00 e0 00      	fdiv.h	t9, a20, t10
1000a598: 53 ca fe 21 06 00 a0 00      	fmul.h	t12, t6, t9
1000a5a0: 53 3e 0e 56 06 00 a0 00      	fmul.h	t6, t7, t12
1000a5a8: 23 fe d3 f1 01 e0 ff 0f      	sh.global	t6, -0x200(t4)
1000a5b0: 13 c0 70 00 20 00 00 00      	addi	t7, t2, 0x2
1000a5b8: 33 c4 06 00 06 00 00 00      	snez	t9, t7
1000a5c0: 0b 3e 24 16 00 00 00 00      	vx_split_n	t6, t9
1000a5c8: 63 00 20 06 80 01 00 00      	beqz	t9, 0x1000a5e0 <_Z6swigluPvjjj+0x5e0>
1000a5d0: 13 c4 c0 01 00 10 00 00      	addi	t9, t3, 0x100
1000a5d8: 33 c2 26 f6 00 00 00 00      	sltu	t8, t9, a5
1000a5e0: 0b 00 f6 01 00 00 00 00      	vx_join	t6
1000a5e8: 0b 3e 14 16 00 00 00 00      	vx_split_n	t6, t8
1000a5f0: 13 c0 00 00 10 00 00 00      	li	t7, 0x1
1000a5f8: 63 fe 11 06 80 f2 ff 0f      	beqz	t8, 0x1000a520 <_Z6swigluPvjjj+0x520>
1000a600: 03 c0 52 f0 0f f0 ff 0f      	lh.global	t7, -0x100(t0)
1000a608: 13 c4 00 00 00 00 00 00      	li	t9, 0x0
1000a610: fb c2 0e 26 00 00 e0 02      	fnexp.h	t8, t7
1000a618: 03 c6 62 f0 0f f0 ff 0f      	lh.global	t10, -0x100(t1)
1000a620: 53 cc 1e c6 02 00 20 00      	fadd.h	t13, t8, a20
1000a628: 53 c2 ce 62 06 00 e0 00      	fdiv.h	t8, a20, t13
1000a630: 53 cc 0e 16 06 00 a0 00      	fmul.h	t13, t7, t8
1000a638: 53 c0 3e 66 06 00 a0 00      	fmul.h	t7, t10, t13
1000a640: 23 fe d3 01 06 f0 ff 0f      	sh.global	t7, -0x100(t4)
1000a648: 13 c2 76 f0 ff ff ff 0f      	sltiu	t8, t2, -0x1
1000a650: 0b c0 14 16 00 00 00 00      	vx_split_n	t7, t8
1000a658: 63 00 10 06 80 01 00 00      	beqz	t8, 0x1000a670 <_Z6swigluPvjjj+0x670>
1000a660: 13 c2 c0 01 00 18 00 00      	addi	t8, t3, 0x180
1000a668: 33 c4 16 f6 00 00 00 00      	sltu	t9, t8, a5
1000a670: 0b 00 06 06 00 00 00 00      	vx_join	t7
1000a678: 0b c2 24 16 00 00 00 00      	vx_split_n	t8, t9
1000a680: 13 c0 00 00 10 00 00 00      	li	t7, 0x1
1000a688: 63 fe 21 06 00 e9 ff 0f      	beqz	t9, 0x1000a518 <_Z6swigluPvjjj+0x518>
1000a690: 03 c0 52 00 00 00 00 00      	lh.global	t7, 0x0(t0)
1000a698: fb c4 0e 26 00 00 e0 02      	fnexp.h	t9, t7
1000a6a0: 03 c6 62 00 00 00 00 00      	lh.global	t10, 0x0(t1)
1000a6a8: 53 ca 2e c6 02 00 20 00      	fadd.h	t12, t9, a20
1000a6b0: 53 c4 ce 52 06 00 e0 00      	fdiv.h	t9, a20, t12
1000a6b8: 53 ca 0e 26 06 00 a0 00      	fmul.h	t12, t7, t9
1000a6c0: 53 c0 3e 56 06 00 a0 00      	fmul.h	t7, t10, t12
1000a6c8: 23 00 d2 01 06 00 00 00      	sh.global	t7, 0x0(t4)
1000a6d0: 33 c8 06 70 00 00 00 00      	snez	t11, t2
1000a6d8: 0b c4 44 16 00 00 00 00      	vx_split_n	t9, t11
1000a6e0: 13 c0 00 00 10 00 00 00      	li	t7, 0x1
1000a6e8: 63 fe 41 06 80 e2 ff 0f      	beqz	t11, 0x1000a510 <_Z6swigluPvjjj+0x510>
1000a6f0: 13 38 c0 01 00 20 00 00      	addi	t3, t3, 0x200
1000a6f8: 33 ca c6 f1 00 00 00 00      	sltu	t12, t3, a5
1000a700: 0b c6 54 16 00 00 00 00      	vx_split_n	t10, t12
1000a708: 13 c0 00 00 10 00 00 00      	li	t7, 0x1
1000a710: 63 fe 51 06 80 df ff 0f      	beqz	t12, 0x1000a508 <_Z6swigluPvjjj+0x508>
1000a718: 03 c0 52 00 00 10 00 00      	lh.global	t7, 0x100(t0)
1000a720: 13 0e 70 f0 cf ff ff 0f      	addi	t2, t2, -0x4
1000a728: fb ca 0e 26 00 00 e0 02      	fnexp.h	t12, t7
1000a730: 03 c8 62 00 00 10 00 00      	lh.global	t11, 0x100(t1)
1000a738: 53 cc 5e c6 02 00 20 00      	fadd.h	t13, t12, a20
1000a740: 53 ca ce 62 06 00 e0 00      	fdiv.h	t12, a20, t13
1000a748: 53 cc 0e 56 06 00 a0 00      	fmul.h	t13, t7, t12
1000a750: 53 ce 4e 66 06 00 a0 00      	fmul.h	t14, t11, t13
1000a758: 23 00 d2 71 06 10 00 00      	sh.global	t14, 0x100(t4)
1000a760: 13 3a d0 01 00 40 00 00      	addi	t4, t4, 0x400
1000a768: 13 0c 60 00 00 40 00 00      	addi	t1, t1, 0x400
1000a770: 13 0a 50 00 00 40 00 00      	addi	t0, t0, 0x400
1000a778: 13 ca 70 00 30 00 00 00      	addi	t12, t2, 0x3
1000a780: 13 c0 56 06 10 00 00 00      	seqz	t7, t12
1000a788: 6f 00 00 f0 0f d8 ff 0f      	j	0x1000a508 <_Z6swigluPvjjj+0x508>
1000a790: 0b 00 e6 02 00 00 00 00      	vx_join	a22
1000a798: 0b 5c d4 12 00 00 00 00      	vx_split_n	a22, a21
1000a7a0: 63 00 d0 02 00 2e 00 00      	beqz	a21, 0x1000aa80 <_Z6swigluPvjjj+0xa80>
1000a7a8: 03 5e a4 00 80 00 00 00      	lw.global	a23, 0x8(a0)
1000a7b0: 03 c0 a4 00 40 00 00 00      	lw.global	t7, 0x4(a0)
1000a7b8: 03 3e a4 00 00 00 00 00      	lw.global	t6, 0x0(a0)
1000a7c0: 33 38 f0 92 02 00 00 00      	add	t3, a23, a17
1000a7c8: 33 0e 00 96 02 00 00 00      	add	t2, t7, a17
1000a7d0: 33 0c f0 91 02 00 00 00      	add	t1, t6, a17
1000a7d8: 73 5e 04 00 40 cc 00 00      	csrr	a23, tmask
1000a7e0: 13 0a 60 02 00 00 00 00      	mv	t0, a14
1000a7e8: 13 3a 40 02 00 00 00 00      	mv	t4, a12
1000a7f0: 6f 00 00 00 00 04 00 00      	j	0x1000a830 <_Z6swigluPvjjj+0x830>
1000a7f8: 0b 00 36 06 00 00 00 00      	vx_join	t10
1000a800: 0b 00 26 06 00 00 00 00      	vx_join	t9
1000a808: 0b 00 16 06 00 00 00 00      	vx_join	t8
1000a810: 0b 00 f6 01 00 00 00 00      	vx_join	t6
1000a818: 0b 00 e6 01 00 00 00 00      	vx_join	t5
1000a820: 0b 02 0a f6 02 00 00 00      	vx_pred_n	t7, a23
1000a828: 63 00 02 06 80 25 00 00      	bnez	t7, 0x1000aa80 <_Z6swigluPvjjj+0xa80>
1000a830: 13 3c 50 00 00 08 00 00      	addi	t5, t0, 0x80
1000a838: 33 c2 e6 f1 00 00 00 00      	sltu	t8, t5, a5
1000a840: 0b 3c 14 16 00 00 00 00      	vx_split_n	t5, t8
1000a848: 13 c0 00 00 10 00 00 00      	li	t7, 0x1
1000a850: 63 fe 11 06 80 fc ff 0f      	beqz	t8, 0x1000a818 <_Z6swigluPvjjj+0x818>
1000a858: 03 3e 62 f0 0f e0 ff 0f      	lh.global	t6, -0x200(t1)
1000a860: 13 c2 00 00 00 00 00 00      	li	t8, 0x0
1000a868: fb c4 fe 21 00 00 e0 02      	fnexp.h	t9, t6
1000a870: 03 c0 72 f0 0f e0 ff 0f      	lh.global	t7, -0x200(t2)
1000a878: 53 c6 2e c6 02 00 20 00      	fadd.h	t10, t9, a20
1000a880: 53 c4 ce 32 06 00 e0 00      	fdiv.h	t9, a20, t10
1000a888: 53 ca fe 21 06 00 a0 00      	fmul.h	t12, t6, t9
1000a890: 53 3e 0e 56 06 00 a0 00      	fmul.h	t6, t7, t12
1000a898: 23 fe c3 f1 01 e0 ff 0f      	sh.global	t6, -0x200(t3)
1000a8a0: 13 3e d0 01 20 00 00 00      	addi	t6, t4, 0x2
1000a8a8: 33 c0 06 f0 01 00 00 00      	snez	t7, t6
1000a8b0: 0b 3e 04 16 00 00 00 00      	vx_split_n	t6, t7
1000a8b8: 63 00 00 06 80 01 00 00      	beqz	t7, 0x1000a8d0 <_Z6swigluPvjjj+0x8d0>
1000a8c0: 13 c0 50 00 00 10 00 00      	addi	t7, t0, 0x100
1000a8c8: 33 c2 06 f6 00 00 00 00      	sltu	t8, t7, a5
1000a8d0: 0b 00 f6 01 00 00 00 00      	vx_join	t6
1000a8d8: 0b 3e 14 16 00 00 00 00      	vx_split_n	t6, t8
1000a8e0: 13 c0 00 00 10 00 00 00      	li	t7, 0x1
1000a8e8: 63 fe 11 06 80 f2 ff 0f      	beqz	t8, 0x1000a810 <_Z6swigluPvjjj+0x810>
1000a8f0: 03 c0 62 f0 0f f0 ff 0f      	lh.global	t7, -0x100(t1)
1000a8f8: 13 c4 00 00 00 00 00 00      	li	t9, 0x0
1000a900: fb c2 0e 26 00 00 e0 02      	fnexp.h	t8, t7
1000a908: 03 c8 72 f0 0f f0 ff 0f      	lh.global	t11, -0x100(t2)
1000a910: 53 c6 1e c6 02 00 20 00      	fadd.h	t10, t8, a20
1000a918: 53 c2 ce 32 06 00 e0 00      	fdiv.h	t8, a20, t10
1000a920: 53 c6 0e 16 06 00 a0 00      	fmul.h	t10, t7, t8
1000a928: 53 c2 4e 36 06 00 a0 00      	fmul.h	t8, t11, t10
1000a930: 23 fe c3 11 06 f0 ff 0f      	sh.global	t8, -0x100(t3)
1000a938: 13 c6 d6 f1 ff ff ff 0f      	sltiu	t10, t4, -0x1
1000a940: 0b c0 34 16 00 00 00 00      	vx_split_n	t7, t10
1000a948: 63 00 30 06 80 01 00 00      	beqz	t10, 0x1000a960 <_Z6swigluPvjjj+0x960>
1000a950: 13 c8 50 00 00 18 00 00      	addi	t11, t0, 0x180
1000a958: 33 c4 46 f6 00 00 00 00      	sltu	t9, t11, a5
1000a960: 0b 00 06 06 00 00 00 00      	vx_join	t7
1000a968: 0b c2 24 16 00 00 00 00      	vx_split_n	t8, t9
1000a970: 13 c0 00 00 10 00 00 00      	li	t7, 0x1
1000a978: 63 fe 21 06 00 e9 ff 0f      	beqz	t9, 0x1000a808 <_Z6swigluPvjjj+0x808>
1000a980: 03 c0 62 00 00 00 00 00      	lh.global	t7, 0x0(t1)
1000a988: fb c4 0e 26 00 00 e0 02      	fnexp.h	t9, t7
1000a990: 03 c8 72 00 00 00 00 00      	lh.global	t11, 0x0(t2)
1000a998: 53 c6 2e c6 02 00 20 00      	fadd.h	t10, t9, a20
1000a9a0: 53 c4 ce 32 06 00 e0 00      	fdiv.h	t9, a20, t10
1000a9a8: 53 c6 0e 26 06 00 a0 00      	fmul.h	t10, t7, t9
1000a9b0: 53 c4 4e 36 06 00 a0 00      	fmul.h	t9, t11, t10
1000a9b8: 23 00 c2 21 06 00 00 00      	sh.global	t9, 0x0(t3)
1000a9c0: 33 c6 06 d0 01 00 00 00      	snez	t10, t4
1000a9c8: 0b c4 34 16 00 00 00 00      	vx_split_n	t9, t10
1000a9d0: 13 c0 00 00 10 00 00 00      	li	t7, 0x1
1000a9d8: 63 fe 31 06 80 e2 ff 0f      	beqz	t10, 0x1000a800 <_Z6swigluPvjjj+0x800>
1000a9e0: 13 0a 50 00 00 20 00 00      	addi	t0, t0, 0x200
1000a9e8: 33 c8 56 f0 00 00 00 00      	sltu	t11, t0, a5
1000a9f0: 0b c6 44 16 00 00 00 00      	vx_split_n	t10, t11
1000a9f8: 13 c0 00 00 10 00 00 00      	li	t7, 0x1
1000aa00: 63 fe 41 06 80 df ff 0f      	beqz	t11, 0x1000a7f8 <_Z6swigluPvjjj+0x7f8>
1000aa08: 03 c0 62 00 00 10 00 00      	lh.global	t7, 0x100(t1)
1000aa10: 13 3a d0 f1 cf ff ff 0f      	addi	t4, t4, -0x4
1000aa18: fb ca 0e 26 00 00 e0 02      	fnexp.h	t12, t7
1000aa20: 03 c8 72 00 00 10 00 00      	lh.global	t11, 0x100(t2)
1000aa28: 53 cc 5e c6 02 00 20 00      	fadd.h	t13, t12, a20
1000aa30: 53 ca ce 62 06 00 e0 00      	fdiv.h	t12, a20, t13
1000aa38: 53 cc 0e 56 06 00 a0 00      	fmul.h	t13, t7, t12
1000aa40: 53 ca 4e 66 06 00 a0 00      	fmul.h	t12, t11, t13
1000aa48: 23 00 c2 51 06 10 00 00      	sh.global	t12, 0x100(t3)
1000aa50: 13 38 c0 01 00 40 00 00      	addi	t3, t3, 0x400
1000aa58: 13 0e 70 00 00 40 00 00      	addi	t2, t2, 0x400
1000aa60: 13 0c 60 00 00 40 00 00      	addi	t1, t1, 0x400
1000aa68: 13 cc d0 01 30 00 00 00      	addi	t13, t4, 0x3
1000aa70: 13 c0 66 06 10 00 00 00      	seqz	t7, t13
1000aa78: 6f 00 00 f0 0f d8 ff 0f      	j	0x1000a7f8 <_Z6swigluPvjjj+0x7f8>
1000aa80: 0b 00 e6 02 00 00 00 00      	vx_join	a22
1000aa88: 0b 5c d4 12 00 00 00 00      	vx_split_n	a22, a21
1000aa90: 63 fe d1 02 80 6d ff 0f      	beqz	a21, 0x1000a168 <_Z6swigluPvjjj+0x168>
1000aa98: 03 5e a4 00 80 00 00 00      	lw.global	a23, 0x8(a0)
1000aaa0: 03 0a a4 00 40 00 00 00      	lw.global	t0, 0x4(a0)
1000aaa8: 03 38 a4 00 00 00 00 00      	lw.global	t3, 0x0(a0)
1000aab0: 33 3a f0 a2 02 00 00 00      	add	t4, a23, a18
1000aab8: 33 0e 50 a0 02 00 00 00      	add	t2, t0, a18
1000aac0: 33 0a c0 a1 02 00 00 00      	add	t0, t3, a18
1000aac8: 73 5e 04 00 40 cc 00 00      	csrr	a23, tmask
1000aad0: 13 38 60 02 00 00 00 00      	mv	t3, a14
1000aad8: 13 0c 40 02 00 00 00 00      	mv	t1, a12
1000aae0: 6f 00 00 00 00 04 00 00      	j	0x1000ab20 <_Z6swigluPvjjj+0xb20>
1000aae8: 0b 00 36 06 00 00 00 00      	vx_join	t10
1000aaf0: 0b 00 26 06 00 00 00 00      	vx_join	t9
1000aaf8: 0b 00 16 06 00 00 00 00      	vx_join	t8
1000ab00: 0b 00 f6 01 00 00 00 00      	vx_join	t6
1000ab08: 0b 00 e6 01 00 00 00 00      	vx_join	t5
1000ab10: 0b 02 0a f6 02 00 00 00      	vx_pred_n	t7, a23
1000ab18: 63 fe 03 06 00 65 ff 0f      	bnez	t7, 0x1000a168 <_Z6swigluPvjjj+0x168>
1000ab20: 13 3c c0 01 00 08 00 00      	addi	t5, t3, 0x80
1000ab28: 33 c2 e6 f1 00 00 00 00      	sltu	t8, t5, a5
1000ab30: 0b 3c 14 16 00 00 00 00      	vx_split_n	t5, t8
1000ab38: 13 c0 00 00 10 00 00 00      	li	t7, 0x1
1000ab40: 63 fe 11 06 80 fc ff 0f      	beqz	t8, 0x1000ab08 <_Z6swigluPvjjj+0xb08>
1000ab48: 03 3e 52 f0 0f e0 ff 0f      	lh.global	t6, -0x200(t0)
1000ab50: 13 c2 00 00 00 00 00 00      	li	t8, 0x0
1000ab58: fb c4 fe 21 00 00 e0 02      	fnexp.h	t9, t6
1000ab60: 03 c0 72 f0 0f e0 ff 0f      	lh.global	t7, -0x200(t2)
1000ab68: 53 c6 2e c6 02 00 20 00      	fadd.h	t10, t9, a20
1000ab70: 53 c4 ce 32 06 00 e0 00      	fdiv.h	t9, a20, t10
1000ab78: 53 ca fe 21 06 00 a0 00      	fmul.h	t12, t6, t9
1000ab80: 53 3e 0e 56 06 00 a0 00      	fmul.h	t6, t7, t12
1000ab88: 23 fe d3 f1 01 e0 ff 0f      	sh.global	t6, -0x200(t4)
1000ab90: 13 3e 60 00 20 00 00 00      	addi	t6, t1, 0x2
1000ab98: 33 c0 06 f0 01 00 00 00      	snez	t7, t6
1000aba0: 0b 3e 04 16 00 00 00 00      	vx_split_n	t6, t7
1000aba8: 63 00 00 06 80 01 00 00      	beqz	t7, 0x1000abc0 <_Z6swigluPvjjj+0xbc0>
1000abb0: 13 c4 c0 01 00 10 00 00      	addi	t9, t3, 0x100
1000abb8: 33 c2 26 f6 00 00 00 00      	sltu	t8, t9, a5
1000abc0: 0b 00 f6 01 00 00 00 00      	vx_join	t6
1000abc8: 0b 3e 14 16 00 00 00 00      	vx_split_n	t6, t8
1000abd0: 13 c0 00 00 10 00 00 00      	li	t7, 0x1
1000abd8: 63 fe 11 06 80 f2 ff 0f      	beqz	t8, 0x1000ab00 <_Z6swigluPvjjj+0xb00>
1000abe0: 03 c0 52 f0 0f f0 ff 0f      	lh.global	t7, -0x100(t0)
1000abe8: 13 c4 00 00 00 00 00 00      	li	t9, 0x0
1000abf0: fb c2 0e 26 00 00 e0 02      	fnexp.h	t8, t7
1000abf8: 03 c8 72 f0 0f f0 ff 0f      	lh.global	t11, -0x100(t2)
1000ac00: 53 c6 1e c6 02 00 20 00      	fadd.h	t10, t8, a20
1000ac08: 53 c2 ce 32 06 00 e0 00      	fdiv.h	t8, a20, t10
1000ac10: 53 c6 0e 16 06 00 a0 00      	fmul.h	t10, t7, t8
1000ac18: 53 cc 4e 36 06 00 a0 00      	fmul.h	t13, t11, t10
1000ac20: 23 fe d3 61 06 f0 ff 0f      	sh.global	t13, -0x100(t4)
1000ac28: 13 c2 66 f0 ff ff ff 0f      	sltiu	t8, t1, -0x1
1000ac30: 0b c0 14 16 00 00 00 00      	vx_split_n	t7, t8
1000ac38: 63 00 10 06 80 01 00 00      	beqz	t8, 0x1000ac50 <_Z6swigluPvjjj+0xc50>
1000ac40: 13 c2 c0 01 00 18 00 00      	addi	t8, t3, 0x180
1000ac48: 33 c4 16 f6 00 00 00 00      	sltu	t9, t8, a5
1000ac50: 0b 00 06 06 00 00 00 00      	vx_join	t7
1000ac58: 0b c2 24 16 00 00 00 00      	vx_split_n	t8, t9
1000ac60: 13 c0 00 00 10 00 00 00      	li	t7, 0x1
1000ac68: 63 fe 21 06 00 e9 ff 0f      	beqz	t9, 0x1000aaf8 <_Z6swigluPvjjj+0xaf8>
1000ac70: 03 c0 52 00 00 00 00 00      	lh.global	t7, 0x0(t0)
1000ac78: fb c4 0e 26 00 00 e0 02      	fnexp.h	t9, t7
1000ac80: 03 c8 72 00 00 00 00 00      	lh.global	t11, 0x0(t2)
1000ac88: 53 c6 2e c6 02 00 20 00      	fadd.h	t10, t9, a20
1000ac90: 53 c4 ce 32 06 00 e0 00      	fdiv.h	t9, a20, t10
1000ac98: 53 c6 0e 26 06 00 a0 00      	fmul.h	t10, t7, t9
1000aca0: 53 c4 4e 36 06 00 a0 00      	fmul.h	t9, t11, t10
1000aca8: 23 00 d2 21 06 00 00 00      	sh.global	t9, 0x0(t4)
1000acb0: 33 c6 06 60 00 00 00 00      	snez	t10, t1
1000acb8: 0b c4 34 16 00 00 00 00      	vx_split_n	t9, t10
1000acc0: 13 c0 00 00 10 00 00 00      	li	t7, 0x1
1000acc8: 63 fe 31 06 80 e2 ff 0f      	beqz	t10, 0x1000aaf0 <_Z6swigluPvjjj+0xaf0>
1000acd0: 13 38 c0 01 00 20 00 00      	addi	t3, t3, 0x200
1000acd8: 33 ca c6 f1 00 00 00 00      	sltu	t12, t3, a5
1000ace0: 0b c6 54 16 00 00 00 00      	vx_split_n	t10, t12
1000ace8: 13 c0 00 00 10 00 00 00      	li	t7, 0x1
1000acf0: 63 fe 51 06 80 df ff 0f      	beqz	t12, 0x1000aae8 <_Z6swigluPvjjj+0xae8>
1000acf8: 03 c0 52 00 00 10 00 00      	lh.global	t7, 0x100(t0)
1000ad00: 13 0c 60 f0 cf ff ff 0f      	addi	t1, t1, -0x4
1000ad08: fb ca 0e 26 00 00 e0 02      	fnexp.h	t12, t7
1000ad10: 03 c8 72 00 00 10 00 00      	lh.global	t11, 0x100(t2)
1000ad18: 53 cc 5e c6 02 00 20 00      	fadd.h	t13, t12, a20
1000ad20: 53 ca ce 62 06 00 e0 00      	fdiv.h	t12, a20, t13
1000ad28: 53 cc 0e 56 06 00 a0 00      	fmul.h	t13, t7, t12
1000ad30: 53 ce 4e 66 06 00 a0 00      	fmul.h	t14, t11, t13
1000ad38: 23 00 d2 71 06 10 00 00      	sh.global	t14, 0x100(t4)
1000ad40: 13 3a d0 01 00 40 00 00      	addi	t4, t4, 0x400
1000ad48: 13 0e 70 00 00 40 00 00      	addi	t2, t2, 0x400
1000ad50: 13 0a 50 00 00 40 00 00      	addi	t0, t0, 0x400
1000ad58: 13 ca 60 00 30 00 00 00      	addi	t12, t1, 0x3
1000ad60: 13 c0 56 06 10 00 00 00      	seqz	t7, t12
1000ad68: 6f 00 00 f0 0f d8 ff 0f      	j	0x1000aae8 <_Z6swigluPvjjj+0xae8>
1000ad70: 13 1a 0e 02 30 00 00 00      	andi	a3, a8, 0x3
1000ad78: 13 40 10 f2 df ff ff 0f      	addi	a8, a9, -0x3
1000ad80: 13 42 b0 f0 0f f8 ff 0f      	addi	a9, a1, -0x80
1000ad88: 0b 00 26 02 00 00 00 00      	vx_join	a10
1000ad90: 33 44 06 d0 00 00 00 00      	snez	a10, a3
1000ad98: 0b 16 24 12 00 00 00 00      	vx_split_n	a1, a10
1000ada0: 63 00 20 02 00 38 00 00      	beqz	a10, 0x1000b120 <_Z6swigluPvjjj+0x1120>
1000ada8: 13 44 00 00 00 00 00 00      	li	a10, 0x0
1000adb0: 33 48 30 e2 00 00 00 00      	add	a12, a11, a4
1000adb8: 33 1c f0 40 02 00 10 00      	mul	a4, a5, a12
1000adc0: 13 46 e2 00 10 00 00 00      	slli	a11, a4, 0x1
1000adc8: 33 48 30 12 01 00 00 00      	add	a12, a11, a7
1000add0: 13 1c 40 02 00 20 00 00      	addi	a4, a12, 0x200
1000add8: 13 22 f2 00 10 00 00 00      	slli	a7, a5, 0x1
1000ade0: 73 46 04 00 40 cc 00 00      	csrr	a11, tmask
1000ade8: 13 4a 08 01 10 00 00 00      	xori	a13, a6, 0x1
1000adf0: 13 20 00 00 00 f8 03 00      	li	a6, 0x3f80
1000adf8: 6f 00 00 00 00 04 00 00      	j	0x1000ae38 <_Z6swigluPvjjj+0xe38>
1000ae00: 0b 00 46 02 00 00 00 00      	vx_join	a12
1000ae08: 13 44 20 02 10 00 00 00      	addi	a10, a10, 0x1
1000ae10: 33 1c e0 10 01 00 00 00      	add	a4, a4, a7
1000ae18: 33 48 28 d2 00 00 00 00      	xor	a12, a10, a3
1000ae20: 13 4c 46 02 10 00 00 00      	seqz	a14, a12
1000ae28: 0b 02 6a 32 02 00 00 00      	vx_pred_n	a14, a11
1000ae30: 63 00 62 02 00 2f 00 00      	bnez	a14, 0x1000b120 <_Z6swigluPvjjj+0x1120>
1000ae38: 0b 48 54 12 00 00 00 00      	vx_split_n	a12, a13
1000ae40: 63 fe 51 02 00 fc ff 0f      	beqz	a13, 0x1000ae00 <_Z6swigluPvjjj+0xe00>
1000ae48: 03 4e a4 00 80 00 00 00      	lw.global	a15, 0x8(a0)
1000ae50: 03 56 a4 00 40 00 00 00      	lw.global	a19, 0x4(a0)
1000ae58: 03 58 a4 00 00 00 00 00      	lw.global	a20, 0x0(a0)
1000ae60: 33 52 70 e2 00 00 00 00      	add	a17, a15, a4
1000ae68: 33 50 b0 e2 00 00 00 00      	add	a16, a19, a4
1000ae70: 33 4e c0 e2 00 00 00 00      	add	a15, a20, a4
1000ae78: 73 4c 04 00 40 cc 00 00      	csrr	a14, tmask
1000ae80: 13 54 10 02 00 00 00 00      	mv	a18, a9
1000ae88: 13 56 00 02 00 00 00 00      	mv	a19, a8
1000ae90: 6f 00 00 00 00 04 00 00      	j	0x1000aed0 <_Z6swigluPvjjj+0xed0>
1000ae98: 0b 00 66 00 00 00 00 00      	vx_join	t1
1000aea0: 0b 00 56 00 00 00 00 00      	vx_join	t0
1000aea8: 0b 00 e6 02 00 00 00 00      	vx_join	a22
1000aeb0: 0b 00 d6 02 00 00 00 00      	vx_join	a21
1000aeb8: 0b 00 c6 02 00 00 00 00      	vx_join	a20
1000aec0: 0b 02 fa 62 02 00 00 00      	vx_pred_n	a23, a14
1000aec8: 63 fe f3 02 80 f3 ff 0f      	bnez	a23, 0x1000ae00 <_Z6swigluPvjjj+0xe00>
1000aed0: 13 58 a0 02 00 08 00 00      	addi	a20, a18, 0x80
1000aed8: 33 5a c6 f2 00 00 00 00      	sltu	a21, a20, a5
1000aee0: 0b 58 d4 12 00 00 00 00      	vx_split_n	a20, a21
1000aee8: 13 5e 00 00 10 00 00 00      	li	a23, 0x1
1000aef0: 63 fe d1 02 80 fc ff 0f      	beqz	a21, 0x1000aeb8 <_Z6swigluPvjjj+0xeb8>
1000aef8: 03 5a 72 f2 0f e0 ff 0f      	lh.global	a21, -0x200(a15)
1000af00: 13 5c 00 00 00 00 00 00      	li	a22, 0x0
1000af08: fb 5e de 22 00 00 e0 02      	fnexp.h	a23, a21
1000af10: 03 0a 82 f2 0f e0 ff 0f      	lh.global	t0, -0x200(a16)
1000af18: 53 0c fe 02 01 00 20 00      	fadd.h	t1, a23, a6
1000af20: 53 5e 0e 61 00 00 e0 00      	fdiv.h	a23, a6, t1
1000af28: 53 0c de f2 02 00 a0 00      	fmul.h	t1, a21, a23
1000af30: 53 5e 5e 60 00 00 a0 00      	fmul.h	a23, t0, t1
1000af38: 23 fe 93 f2 02 e0 ff 0f      	sh.global	a23, -0x200(a17)
1000af40: 13 5a b0 02 20 00 00 00      	addi	a21, a19, 0x2
1000af48: 33 5e 06 d0 02 00 00 00      	snez	a23, a21
1000af50: 0b 5a f4 12 00 00 00 00      	vx_split_n	a21, a23
1000af58: 63 00 f0 02 80 01 00 00      	beqz	a23, 0x1000af70 <_Z6swigluPvjjj+0xf70>
1000af60: 13 0a a0 02 00 10 00 00      	addi	t0, a18, 0x100
1000af68: 33 5c 56 f0 00 00 00 00      	sltu	a22, t0, a5
1000af70: 0b 00 d6 02 00 00 00 00      	vx_join	a21
1000af78: 0b 5a e4 12 00 00 00 00      	vx_split_n	a21, a22
1000af80: 13 5e 00 00 10 00 00 00      	li	a23, 0x1
1000af88: 63 fe e1 02 80 f2 ff 0f      	beqz	a22, 0x1000aeb0 <_Z6swigluPvjjj+0xeb0>
1000af90: 03 5c 72 f2 0f f0 ff 0f      	lh.global	a22, -0x100(a15)
1000af98: 13 0a 00 00 00 00 00 00      	li	t0, 0x0
1000afa0: fb 5e ee 22 00 00 e0 02      	fnexp.h	a23, a22
1000afa8: 03 0c 82 f2 0f f0 ff 0f      	lh.global	t1, -0x100(a16)
1000afb0: 53 3a fe 02 01 00 20 00      	fadd.h	t4, a23, a6
1000afb8: 53 5e 0e d1 01 00 e0 00      	fdiv.h	a23, a6, t4
1000afc0: 53 38 ee f2 02 00 a0 00      	fmul.h	t3, a22, a23
1000afc8: 53 5e 6e c0 01 00 a0 00      	fmul.h	a23, t1, t3
1000afd0: 23 fe 93 f2 02 f0 ff 0f      	sh.global	a23, -0x100(a17)
1000afd8: 13 38 b6 f2 ff ff ff 0f      	sltiu	t3, a19, -0x1
1000afe0: 0b 5c c4 11 00 00 00 00      	vx_split_n	a22, t3
1000afe8: 63 00 c0 01 80 01 00 00      	beqz	t3, 0x1000b000 <_Z6swigluPvjjj+0x1000>
1000aff0: 13 38 a0 02 00 18 00 00      	addi	t3, a18, 0x180
1000aff8: 33 0a c6 f1 00 00 00 00      	sltu	t0, t3, a5
1000b000: 0b 00 e6 02 00 00 00 00      	vx_join	a22
1000b008: 0b 5c 54 10 00 00 00 00      	vx_split_n	a22, t0
1000b010: 13 5e 00 00 10 00 00 00      	li	a23, 0x1
1000b018: 63 fe 51 00 00 e9 ff 0f      	beqz	t0, 0x1000aea8 <_Z6swigluPvjjj+0xea8>
1000b020: 03 0a 72 02 00 00 00 00      	lh.global	t0, 0x0(a15)
1000b028: fb 5e 5e 20 00 00 e0 02      	fnexp.h	a23, t0
1000b030: 03 0c 82 02 00 00 00 00      	lh.global	t1, 0x0(a16)
1000b038: 53 3a fe 02 01 00 20 00      	fadd.h	t4, a23, a6
1000b040: 53 5e 0e d1 01 00 e0 00      	fdiv.h	a23, a6, t4
1000b048: 53 38 5e f0 02 00 a0 00      	fmul.h	t3, t0, a23
1000b050: 53 5e 6e c0 01 00 a0 00      	fmul.h	a23, t1, t3
1000b058: 23 00 92 f2 02 00 00 00      	sh.global	a23, 0x0(a17)
1000b060: 33 0c 06 b0 02 00 00 00      	snez	t1, a19
1000b068: 0b 0a 64 10 00 00 00 00      	vx_split_n	t0, t1
1000b070: 13 5e 00 00 10 00 00 00      	li	a23, 0x1
1000b078: 63 fe 61 00 80 e2 ff 0f      	beqz	t1, 0x1000aea0 <_Z6swigluPvjjj+0xea0>
1000b080: 13 54 a0 02 00 20 00 00      	addi	a18, a18, 0x200
1000b088: 33 38 a6 f2 00 00 00 00      	sltu	t3, a18, a5
1000b090: 0b 0c c4 11 00 00 00 00      	vx_split_n	t1, t3
1000b098: 13 5e 00 00 10 00 00 00      	li	a23, 0x1
1000b0a0: 63 fe c1 01 80 df ff 0f      	beqz	t3, 0x1000ae98 <_Z6swigluPvjjj+0xe98>
1000b0a8: 03 38 72 02 00 10 00 00      	lh.global	t3, 0x100(a15)
1000b0b0: 13 56 b0 f2 cf ff ff 0f      	addi	a19, a19, -0x4
1000b0b8: fb 5e ce 21 00 00 e0 02      	fnexp.h	a23, t3
1000b0c0: 03 0e 82 02 00 10 00 00      	lh.global	t2, 0x100(a16)
1000b0c8: 53 3a fe 02 01 00 20 00      	fadd.h	t4, a23, a6
1000b0d0: 53 5e 0e d1 01 00 e0 00      	fdiv.h	a23, a6, t4
1000b0d8: 53 3a ce f1 02 00 a0 00      	fmul.h	t4, t3, a23
1000b0e0: 53 38 7e d0 01 00 a0 00      	fmul.h	t3, t2, t4
1000b0e8: 23 00 92 c2 01 10 00 00      	sh.global	t3, 0x100(a17)
1000b0f0: 13 52 90 02 00 40 00 00      	addi	a17, a17, 0x400
1000b0f8: 13 50 80 02 00 40 00 00      	addi	a16, a16, 0x400
1000b100: 13 4e 70 02 00 40 00 00      	addi	a15, a15, 0x400
1000b108: 13 38 b0 02 30 00 00 00      	addi	t3, a19, 0x3
1000b110: 13 5e c6 01 10 00 00 00      	seqz	a23, t3
1000b118: 6f 00 00 f0 0f d8 ff 0f      	j	0x1000ae98 <_Z6swigluPvjjj+0xe98>
1000b120: 0b 00 b6 00 00 00 00 00      	vx_join	a1
1000b128: 0b 00 c6 00 00 00 00 00      	vx_join	a2
1000b130: 67 00 10 00 00 00 00 00      	ret

1000b138 <main>:
1000b138: 13 04 20 f0 0f ff ff 0f      	addi	sp, sp, -0x10
1000b140: 23 00 24 10 c0 00 00 00      	sw.global	ra, 0xc(sp)
1000b148: 17 14 00 00 00 00 00 00      	auipc	a0, 0x0
1000b150: 13 16 a0 f0 cf f0 f5 0f      	addi	a1, a0, -0xa0f4
1000b158: 17 14 00 00 00 00 00 00      	auipc	a0, 0x0
1000b160: 13 18 a0 00 80 ea 00 00      	addi	a2, a0, 0xea8
1000b168: 23 00 b4 c0 00 00 00 00      	sw.global	a2, 0x0(a1)
1000b170: 17 14 00 00 00 00 00 00      	auipc	a0, 0x0
1000b178: 13 18 a0 00 00 e9 08 00      	addi	a2, a0, 0x8e90
1000b180: 23 00 b4 c0 40 00 00 00      	sw.global	a2, 0x4(a1)
1000b188: 17 14 00 00 00 00 00 00      	auipc	a0, 0x0
1000b190: 13 18 a0 f0 0f ee f5 0f      	addi	a2, a0, -0xa120
1000b198: 23 00 b4 c0 80 00 00 00      	sw.global	a2, 0x8(a1)
1000b1a0: 13 14 00 00 40 00 00 00      	li	a0, 0x4
1000b1a8: 23 00 b4 a0 c0 00 00 00      	sw.global	a0, 0xc(a1)
1000b1b0: 13 14 00 00 00 00 01 00      	li	a0, 0x1000
1000b1b8: 23 00 b4 a0 00 01 00 00      	sw.global	a0, 0x10(a1)
1000b1c0: 17 18 00 00 00 00 00 00      	auipc	a2, 0x0
1000b1c8: 13 14 c0 f0 0f e4 fe 0f      	addi	a0, a2, -0x11c0
1000b1d0: 13 18 00 00 40 00 00 00      	li	a2, 0x4
1000b1d8: 6f 02 00 00 80 02 00 00      	jal	0x1000b200 <mu_schedule>
1000b1e0: 13 14 00 00 00 00 00 00      	li	a0, 0x0
1000b1e8: 03 02 24 00 c0 00 00 00      	lw.global	ra, 0xc(sp)
1000b1f0: 13 04 20 00 00 01 00 00      	addi	sp, sp, 0x10
1000b1f8: 67 00 10 00 00 00 00 00      	ret

1000b200 <mu_schedule>:
1000b200: 73 1a 04 00 20 cc 00 00      	csrr	a3, cid
1000b208: 73 1c 04 00 00 cc 00 00      	csrr	a4, tid
1000b210: 33 1e dc e0 00 00 00 00      	or	a5, a3, a4
1000b218: 63 00 f2 00 80 03 00 00      	bnez	a5, 0x1000b250 <mu_schedule+0x50>
1000b220: 17 1a 00 00 00 00 00 00      	auipc	a3, 0x0
1000b228: 23 fe d5 a0 80 e2 f5 0f      	sw.global	a0, -0xa1d8(a3)
1000b230: 17 14 00 00 00 00 00 00      	auipc	a0, 0x0
1000b238: 23 fe a5 b0 c0 e1 f5 0f      	sw.global	a1, -0xa1e4(a0)
1000b240: 17 14 00 00 00 00 00 00      	auipc	a0, 0x0
1000b248: 23 fe a5 c0 00 e1 f5 0f      	sw.global	a2, -0xa1f0(a0)
1000b250: 13 04 20 f0 0f ff ff 0f      	addi	sp, sp, -0x10
1000b258: 23 00 24 10 c0 00 00 00      	sw.global	ra, 0xc(sp)
1000b260: 13 14 00 00 00 00 00 00      	li	a0, 0x0
1000b268: 0f 00 00 00 f0 0f 00 00      	fence
1000b270: 13 16 00 00 20 00 00 00      	li	a1, 0x2
1000b278: 5b 00 a2 b0 00 00 d0 0f      	nu.invoke.ri.pw.sync	zero, a0, a1, zero, zero, 0x40
1000b280: 17 14 00 00 00 00 00 00      	auipc	a0, 0x0
1000b288: 13 16 a0 00 80 05 00 00      	addi	a1, a0, 0x58
1000b290: 0b 00 c2 b0 00 00 00 00      	vx_wspawn	a2, a1
1000b298: 13 14 00 f0 ff ff ff 0f      	li	a0, -0x1
1000b2a0: 0b 00 a0 00 00 00 00 00      	vx_tmc	a0
1000b2a8: 6f 02 00 00 80 07 00 00      	jal	0x1000b320 <_ZL22mu_schedule_standalonev>
1000b2b0: 13 14 00 00 10 00 00 00      	li	a0, 0x1
1000b2b8: 0b 00 a0 00 00 00 00 00      	vx_tmc	a0
1000b2c0: 03 02 24 00 c0 00 00 00      	lw.global	ra, 0xc(sp)
1000b2c8: 13 04 20 00 00 01 00 00      	addi	sp, sp, 0x10
1000b2d0: 67 00 10 00 00 00 00 00      	ret

1000b2d8 <_ZL19mu_schedule_workersv>:
1000b2d8: 13 04 20 f0 0f ff ff 0f      	addi	sp, sp, -0x10
1000b2e0: 23 00 24 10 c0 00 00 00      	sw.global	ra, 0xc(sp)
1000b2e8: 13 14 00 f0 ff ff ff 0f      	li	a0, -0x1
1000b2f0: 0b 00 a0 00 00 00 00 00      	vx_tmc	a0
1000b2f8: 6f 02 00 00 80 02 00 00      	jal	0x1000b320 <_ZL22mu_schedule_standalonev>
1000b300: 0b 00 00 00 00 00 00 00      	vx_tmc	zero
1000b308: 03 02 24 00 c0 00 00 00      	lw.global	ra, 0xc(sp)
1000b310: 13 04 20 00 00 01 00 00      	addi	sp, sp, 0x10
1000b318: 67 00 10 00 00 00 00 00      	ret

1000b320 <_ZL22mu_schedule_standalonev>:
1000b320: 13 04 20 f0 0f ff ff 0f      	addi	sp, sp, -0x10
1000b328: 23 00 24 10 c0 00 00 00      	sw.global	ra, 0xc(sp)
1000b330: 73 14 04 00 00 cd 00 00      	csrr	a0, 0xcd0
1000b338: 73 16 04 00 20 cc 00 00      	csrr	a1, cid
1000b340: 17 18 00 00 00 00 00 00      	auipc	a2, 0x0
1000b348: 03 1a c4 f0 0f d1 f5 0f      	lw.global	a3, -0xa2f0(a2)
1000b350: 73 18 04 00 10 cc 00 00      	csrr	a2, wid
1000b358: 73 1c 04 00 00 cc 00 00      	csrr	a4, tid
1000b360: 13 1e c2 00 50 00 00 00      	slli	a5, a2, 0x5
1000b368: 13 18 b2 00 40 00 00 00      	slli	a2, a1, 0x4
1000b370: 33 22 f0 c0 00 00 00 00      	add	a7, a5, a2
1000b378: 33 16 10 e1 00 00 00 00      	add	a1, a7, a4
1000b380: 13 18 d2 00 50 00 00 00      	slli	a2, a3, 0x5
1000b388: 33 1a c0 a0 00 00 10 00      	mul	a3, a2, a0
1000b390: 33 1c b0 d0 00 00 00 00      	add	a4, a1, a3
1000b398: 17 14 00 00 00 00 00 00      	auipc	a0, 0x0
1000b3a0: 03 0e a4 f0 0f cb f5 0f      	lw.global	t2, -0xa350(a0)
1000b3a8: 17 16 00 00 00 00 00 00      	auipc	a1, 0x0
1000b3b0: 03 14 b4 f0 4f ca f5 0f      	lw.global	a0, -0xa35c(a1)
1000b3b8: 33 1a ea c0 00 00 10 00      	divu	a3, a4, a2
1000b3c0: 33 02 d0 c0 00 00 10 00      	mul	ra, a3, a2
1000b3c8: 33 16 e0 10 00 00 00 02      	sub	a1, a4, ra
1000b3d0: 03 02 24 00 c0 00 00 00      	lw.global	ra, 0xc(sp)
1000b3d8: 13 04 20 00 00 01 00 00      	addi	sp, sp, 0x10
1000b3e0: 67 00 70 00 00 00 00 00      	jr	t2

1000b3e8 <_exit>:
1000b3e8: 0b 00 00 00 00 00 00 00      	vx_tmc	zero

1000b3f0 <init_regs>:
1000b3f0: 17 06 00 00 00 00 00 00      	auipc	gp, 0x0
1000b3f8: 13 06 30 00 00 c7 11 00      	addi	gp, gp, 0x11c70
1000b400: 13 04 00 f0 07 00 00 00      	li	sp, 0x7f000000
1000b408: 73 0a 04 00 40 f1 00 00      	csrr	t0, mhartid
1000b410: 13 0c 52 00 d0 00 00 00      	slli	t1, t0, 0xd
1000b418: 13 0e 52 00 40 00 00 00      	slli	t2, t0, 0x4
1000b420: 33 0c 60 70 00 00 00 00      	add	t1, t1, t2
1000b428: 33 04 20 60 00 00 00 02      	sub	sp, sp, t1
1000b430: 17 0c 00 f0 0e bd f4 0f      	auipc	t1, 0xefff4bd0
1000b438: 33 0a 50 60 00 00 10 00      	mul	t0, t0, t1
1000b440: 17 08 00 00 f0 c5 11 00      	auipc	tp, 0x11c5f
1000b448: 33 08 40 50 00 00 00 00      	add	tp, tp, t0
1000b450: 13 08 4e f0 0f fc ff 0f      	andi	tp, tp, -0x40
1000b458: 67 00 10 00 00 00 00 00      	ret

1000b460 <init_regs_all>:
1000b460: 13 0a 00 f0 ff ff ff 0f      	li	t0, -0x1
1000b468: 0b 00 50 00 00 00 00 00      	vx_tmc	t0
1000b470: 6f 02 00 f0 0f f8 ff 0f      	jal	0x1000b3f0 <init_regs>
1000b478: 0b 00 00 00 00 00 00 00      	vx_tmc	zero
1000b480: 67 00 10 00 00 00 00 00      	ret

1000b488 <vx_wspawn_wait>:
1000b488: 73 0a 04 00 30 cc 00 00      	csrr	t0, gid
1000b490: 13 0c 00 00 10 00 00 00      	li	t1, 0x1
1000b498: 63 fe 53 60 00 ff ff 0f      	bne	t0, t1, 0x1000b488 <vx_wspawn_wait>
1000b4a0: 67 00 10 00 00 00 00 00      	ret

Disassembly of section .data:

1000c000 <A_raw>:
1000c000: bb 3f 95 3e 76 3f c9 3f      	<unknown>
1000c008: fd 3e        	<unknown>
1000c00a: c2 bf        	<unknown>
1000c00c: 80 be        	<unknown>
1000c00e: 13 3f a7 3e 11 bf 0b 3f      	<unknown>
1000c016: 10 bf        	<unknown>
1000c018: 1a 3f        	<unknown>
1000c01a: 18 40        	<unknown>
1000c01c: d6 3f        	<unknown>
1000c01e: 56 bf        	<unknown>
1000c020: 01 bf        	<unknown>
1000c022: 02 bf        	<unknown>
1000c024: df be af 3f 2c bf e3 bd      	<unknown>
1000c02c: 65 3f        	<unknown>
1000c02e: ab bf 44 3f 93 3f 13 bf      	<unknown>
1000c036: 76 3f        	<unknown>
1000c038: 02 40        	<unknown>
1000c03a: 10 3f        	<unknown>
1000c03c: 4d 3e        	<unknown>
1000c03e: 33 bf f1 be b2 bf b1 3f      	<unknown>
1000c046: 1d bf        	<unknown>
1000c048: 3d 40        	<unknown>
1000c04a: 27 3f ad bf be bf 7d 3f      	<unknown>
1000c052: 98 3f        	<unknown>
1000c054: 01 c0        	<unknown>
1000c056: cc bf        	<unknown>
1000c058: 76 bf        	<unknown>
1000c05a: 10 3f        	<unknown>
1000c05c: 2f bf 40 bf 6c 3f bd 3e      	<unknown>
1000c064: fe 3e        	<unknown>
1000c066: b5 bf        	<unknown>
1000c068: 33 be cc 3f 98 3e f9 be      	<unknown>
1000c070: 61 3f        	<unknown>
1000c072: b4 bf        	<unknown>
1000c074: 13 be 63 bf 50 be d3 bd      	<unknown>
1000c07c: 91 bf        	<unknown>
1000c07e: 32 3e        	<unknown>
1000c080: 71 3f        	<unknown>
1000c082: cc 3e        	<unknown>
1000c084: 04 3f        	<unknown>
1000c086: 8a 3f        	<unknown>
1000c088: d9 be        	<unknown>
1000c08a: b6 bf        	<unknown>
1000c08c: 14 bf        	<unknown>
1000c08e: 20 3f        	<unknown>
1000c090: a3 3f 8a be 19 be f5 3e      	<unknown>
1000c098: 8d 3f        	<unknown>
1000c09a: 08 be        	<unknown>
1000c09c: bb 3e 85 3f 86 3f d0 be      	<unknown>
1000c0a4: 8d bf        	<unknown>
1000c0a6: af 3d a4 be 6d bf 68 bf      	<unknown>
1000c0ae: 36 bf        	<unknown>
1000c0b0: 9c 3f        	<unknown>
1000c0b2: 9b 3e 7b 3e c0 3c 32 bf      	<unknown>
1000c0ba: f9 3f        	<unknown>
1000c0bc: 94 3f        	<unknown>
1000c0be: 35 3a        	<unknown>
1000c0c0: 04 be        	<unknown>
1000c0c2: 7a 3f        	<unknown>
1000c0c4: 8c 3d        	<unknown>
1000c0c6: 02 3f        	<unknown>
1000c0c8: 91 bf        	<unknown>
1000c0ca: b6 3f        	<unknown>
1000c0cc: 64 bf        	<unknown>
1000c0ce: 01 3f        	<unknown>
1000c0d0: a2 3f        	<unknown>
1000c0d2: 14 3e        	<unknown>
1000c0d4: 2e bf        	<unknown>
1000c0d6: 93 3f 16 3d d3 be 8d bd      	<unknown>
1000c0de: d9 bf        	<unknown>
1000c0e0: 57 3f 14 3f 04 c0 52 bf      	<unknown>
1000c0e8: 24 bf        	<unknown>
1000c0ea: 00 3f        	<unknown>
1000c0ec: 3f 3f 4c be 08 3f b9 bf      	<unknown>
1000c0f4: 2a bf        	<unknown>
1000c0f6: 66 3e        	<unknown>
1000c0f8: 8e 3f        	<unknown>
1000c0fa: 9c 3f        	<unknown>
1000c0fc: f8 3f        	<unknown>
1000c0fe: cc 3f        	<unknown>
1000c100: f8 be        	<unknown>
1000c102: 68 3f        	<unknown>
1000c104: 90 bf        	<unknown>
1000c106: bb 3e 8f bf 74 bf 00 00      	<unknown>
1000c10e: 0e 3f        	<unknown>
1000c110: b2 bf        	<unknown>
1000c112: 8d 3f        	<unknown>
1000c114: 9c bf        	<unknown>
1000c116: 64 3f        	<unknown>
1000c118: a6 3f        	<unknown>
1000c11a: 97 bd 00 00 6d 3f d9 bf      	<unknown>
1000c122: 07 3f a5 be a9 bf be 3f      	<unknown>
1000c12a: 0e be        	<unknown>
1000c12c: 00 00        	<unknown>
1000c12e: 9d bf        	<unknown>
1000c130: 1b 3f 6f 3f 08 c0 2e 3d      	<unknown>
1000c138: 71 3f        	<unknown>
1000c13a: 95 bf        	<unknown>
1000c13c: 00 00        	<unknown>
1000c13e: 5b 3e 3c 3f 29 bf 12 3f      	<unknown>
1000c146: 2d 3f        	<unknown>
1000c148: 69 bf        	<unknown>
1000c14a: cc 3f        	<unknown>
1000c14c: f1 3e        	<unknown>
1000c14e: 65 3e        	<unknown>
1000c150: 26 bf        	<unknown>
1000c152: b2 be        	<unknown>
1000c154: a7 bf f1 3f 33 bf 13 3f      	<unknown>
1000c15c: 3e 3f        	<unknown>
1000c15e: bf 3f 07 3f 57 be 4c 3e      	<unknown>
1000c166: 60 be        	<unknown>
1000c168: 1b bf 1a 3f 88 3e 56 bd      	<unknown>
1000c170: cb 3f 03 3f 4c 3e 61 bf      	<unknown>
1000c178: 1a 3a        	<unknown>
1000c17a: 51 3f        	<unknown>
1000c17c: 09 3e        	<unknown>
1000c17e: e9 bd        	<unknown>
1000c180: 18 bf        	<unknown>
1000c182: 8c 3f        	<unknown>
1000c184: cb 3f 8d bf cb 3f 3c bf      	<unknown>
1000c18c: f2 3e        	<unknown>
1000c18e: d2 be        	<unknown>
1000c190: 42 3d        	<unknown>
1000c192: 5c 3d        	<unknown>
1000c194: f1 3d        	<unknown>
1000c196: 9a 3f        	<unknown>
1000c198: be bf        	<unknown>
1000c19a: d5 3e        	<unknown>
1000c19c: 1f 3e 2d 3e 33 be 68 bd      	<unknown>
1000c1a4: b0 3e        	<unknown>
1000c1a6: 8b 3d 44 3f 77 bf d7 3f      	<unknown>
1000c1ae: 3a 3e        	<unknown>
1000c1b0: 0e bf        	<unknown>
1000c1b2: 4f 3f 41 be 75 3f 8d 3e      	<unknown>
1000c1ba: 75 3f        	<unknown>
1000c1bc: 2a 3e        	<unknown>
1000c1be: 28 c0        	<unknown>
1000c1c0: d2 be        	<unknown>
1000c1c2: 94 3f        	<unknown>
1000c1c4: 19 c0        	<unknown>
1000c1c6: 2f bf c8 bf 83 bf 5c 3f      	<unknown>
1000c1ce: 9f 3e 10 c0 f5 3e cf bf      	<unknown>
1000c1d6: 18 bf        	<unknown>
1000c1d8: 62 bf        	<unknown>
1000c1da: f6 3e        	<unknown>
1000c1dc: 1b 3f 46 bf 95 bf 60 3f      	<unknown>
1000c1e4: 8d 3f        	<unknown>
1000c1e6: 8c 3f        	<unknown>
1000c1e8: cf bf 06 be 2e 3f 3c 3f      	<unknown>
1000c1f0: 93 bf 39 bf 10 be 0f be      	<unknown>
1000c1f8: 90 3e        	<unknown>
1000c1fa: 60 3f        	<unknown>
1000c1fc: 9e bf        	<unknown>
1000c1fe: 34 3f        	<unknown>
1000c200: 9f bd 9a 3e c5 3f 50 bf      	<unknown>
1000c208: 48 bf        	<unknown>
1000c20a: c5 be        	<unknown>
1000c20c: c1 3e        	<unknown>
1000c20e: 15 bf        	<unknown>
1000c210: a0 be        	<unknown>
1000c212: 40 bf        	<unknown>
1000c214: d9 3e        	<unknown>
1000c216: 89 bf        	<unknown>
1000c218: b4 3e        	<unknown>
1000c21a: e5 3e        	<unknown>
1000c21c: 75 bd        	<unknown>
1000c21e: 90 bc        	<unknown>
1000c220: ed 3f        	<unknown>
1000c222: 8d 3f        	<unknown>
1000c224: 07 3f 0c 3f 6f 3f 94 3e      	<unknown>
1000c22c: cc 3e        	<unknown>
1000c22e: ec 3f        	<unknown>
1000c230: 4d bf        	<unknown>
1000c232: a8 3d        	<unknown>
1000c234: 9f be ec bf 2d bf ac 3e      	<unknown>
1000c23c: 2b bf f4 bd cb bf d3 be      	<unknown>
1000c244: d6 3f        	<unknown>
1000c246: bc be        	<unknown>
1000c248: 03 bf 6b be 6d bf c7 3f      	<unknown>
1000c250: cf be d4 bf 6b bf f7 be      	<unknown>
1000c258: 27 3d 40 be d5 3e 87 bf      	<unknown>
1000c260: e3 bd 03 be b5 3f 0b be      	<unknown>
1000c268: 5f 3f c9 3e 26 bf a7 be      	<unknown>
1000c270: 6e bd        	<unknown>
1000c272: e9 be        	<unknown>
1000c274: 9c 3f        	<unknown>
1000c276: f7 3f 82 3f 0f 3f 13 be      	<unknown>
1000c27e: bc 3f        	<unknown>
1000c280: da 3e        	<unknown>
1000c282: a7 3f 94 bf fe 3e 5f bf      	<unknown>
1000c28a: 7f 3e 1b bf 32 3c d1 3e      	<unknown>
1000c292: 96 3e        	<unknown>
1000c294: 97 be c7 3e e0 bf c3 bf      	<unknown>
1000c29c: 5b bf 1c 3e 3e 3f 7a 3f      	<unknown>
1000c2a4: c8 3e        	<unknown>
1000c2a6: 09 3f        	<unknown>
1000c2a8: b8 3e        	<unknown>
1000c2aa: 1e 3f        	<unknown>
1000c2ac: 8c 3d        	<unknown>
1000c2ae: 9b bf 01 bf 05 bd f3 3e      	<unknown>
1000c2b6: 00 00        	<unknown>
1000c2b8: af bf 2e 3f 05 bf 6d 3d      	<unknown>
1000c2c0: b9 bf        	<unknown>
1000c2c2: 02 40        	<unknown>
1000c2c4: 5a bf        	<unknown>
1000c2c6: 82 bf        	<unknown>
1000c2c8: 2f bf c9 bf 40 3f 37 bf      	<unknown>
1000c2d0: 18 3f        	<unknown>
1000c2d2: 17 40 34 3e a6 3f 83 bf      	<unknown>
1000c2da: f6 3e        	<unknown>
1000c2dc: 6a 3f        	<unknown>
1000c2de: da bf        	<unknown>
1000c2e0: d8 3e        	<unknown>
1000c2e2: 0a 3f        	<unknown>
1000c2e4: 6c bf        	<unknown>
1000c2e6: 29 40        	<unknown>
1000c2e8: b9 3e        	<unknown>
1000c2ea: 03 bf fe 3e fb 3e 2a be      	<unknown>
1000c2f2: 10 3f        	<unknown>
1000c2f4: db be 96 3f d0 be 75 3f      	<unknown>
1000c2fc: 03 bd c5 3c fb be 00 bf      	<unknown>
1000c304: 3a bf        	<unknown>
1000c306: b4 3e        	<unknown>
1000c308: 8f 3e 23 c0 13 bf 7a bf      	<unknown>
1000c310: 20 3f        	<unknown>
1000c312: 5e 3f        	<unknown>
1000c314: 83 bf 00 3f 89 bf c6 bf      	<unknown>
1000c31c: 04 bf        	<unknown>
1000c31e: e0 be        	<unknown>
1000c320: 90 bf        	<unknown>
1000c322: 3a bf        	<unknown>
1000c324: aa be        	<unknown>
1000c326: 58 3e        	<unknown>
1000c328: b3 be 56 3f 8b 3f b9 3e      	<unknown>
1000c330: a7 3f ca bf 40 be 6c bf      	<unknown>
1000c338: fd 3e        	<unknown>
1000c33a: 99 be        	<unknown>
1000c33c: 8b bf ee be a1 3c e4 3e      	<unknown>
1000c344: f7 bf 94 bf 31 bf ab 3f      	<unknown>
1000c34c: 91 bf        	<unknown>
1000c34e: 42 bd        	<unknown>
1000c350: 52 3f        	<unknown>
1000c352: 3c 3e        	<unknown>
1000c354: 91 3f        	<unknown>
1000c356: b7 bf 41 3f 65 3f b1 3e      	<unknown>
1000c35e: f3 bf 6a bf f2 be 8d bf      	<unknown>
1000c366: 9e be        	<unknown>
1000c368: 1c 3e        	<unknown>
1000c36a: 03 bf 8c 3f b0 3e b7 3f      	<unknown>
1000c372: ef be 0f bf c8 3f 6d bf      	<unknown>
1000c37a: 4d 3f        	<unknown>
1000c37c: b8 3e        	<unknown>
1000c37e: 12 40        	<unknown>
1000c380: 36 3f        	<unknown>
1000c382: 4c 3f        	<unknown>
1000c384: 0d bf        	<unknown>
1000c386: bf 3f c7 3e b0 3f df 3f      	<unknown>
1000c38e: 1d 3f        	<unknown>
1000c390: 00 3f        	<unknown>
1000c392: 4c 3f        	<unknown>
1000c394: 75 bf        	<unknown>
1000c396: 09 3f        	<unknown>
1000c398: 27 bf 90 3f 6e 3f a5 bf      	<unknown>
1000c3a0: 40 bf        	<unknown>
1000c3a2: d7 3e 05 40 8f bf a9 3e      	<unknown>
1000c3aa: ea 3e        	<unknown>
1000c3ac: f2 be        	<unknown>
1000c3ae: 36 bf        	<unknown>
1000c3b0: 77 be 54 3d 00 00 6b be      	<unknown>
1000c3b8: 53 bf 92 bf d6 bf 46 be      	<unknown>
1000c3c0: 83 bd 64 3f 98 3e 90 3f      	<unknown>
1000c3c8: c8 be        	<unknown>
1000c3ca: 3f 3f 27 bf c7 3f 2a be      	<unknown>
1000c3d2: 93 bf 66 3f 7e bf 7e 3e      	<unknown>
1000c3da: b5 3e        	<unknown>
1000c3dc: 36 3e        	<unknown>
1000c3de: dc 3f        	<unknown>
1000c3e0: 19 3f        	<unknown>
1000c3e2: 1e bf        	<unknown>
1000c3e4: 58 bf        	<unknown>
1000c3e6: dd 3c        	<unknown>
1000c3e8: 60 be        	<unknown>
1000c3ea: 19 3f        	<unknown>
1000c3ec: 43 3f 8d 3f 91 3e 9e bf      	<unknown>
1000c3f4: a9 3f        	<unknown>
1000c3f6: 38 bf        	<unknown>
1000c3f8: bc 3f        	<unknown>
1000c3fa: b5 be        	<unknown>
1000c3fc: 32 40        	<unknown>
1000c3fe: 2b 40 54 bf 25 3e d2 3e      	<unknown>
1000c406: a5 3f        	<unknown>
1000c408: 92 bf        	<unknown>
1000c40a: 57 be da 3e 63 bf f9 3e      	<unknown>
1000c412: 35 bf        	<unknown>
1000c414: 44 3f        	<unknown>
1000c416: da 3e        	<unknown>
1000c418: 4c 3e        	<unknown>
1000c41a: b4 3f        	<unknown>
1000c41c: 14 3f        	<unknown>
1000c41e: a0 bf        	<unknown>
1000c420: e3 be 3b 3e 26 40 6c 3f      	<unknown>
1000c428: e7 3f 87 3f 8d 3d a4 3f      	<unknown>
1000c430: 94 3f        	<unknown>
1000c432: 88 be        	<unknown>
1000c434: 04 3f        	<unknown>
1000c436: 4f bf 89 3e 1b c0 d6 be      	<unknown>
1000c43e: 14 c0        	<unknown>
1000c440: ce 3f        	<unknown>
1000c442: d7 3f 11 bf 90 3f 81 3e      	<unknown>
1000c44a: 16 bf        	<unknown>
1000c44c: d9 3f        	<unknown>
1000c44e: a4 3e        	<unknown>
1000c450: 8a 3f        	<unknown>
1000c452: 2a 3e        	<unknown>
1000c454: ee 3e        	<unknown>
1000c456: 1f bf 28 3f 6b 3f c4 3f      	<unknown>
1000c45e: a6 3f        	<unknown>
1000c460: 6e bf        	<unknown>
1000c462: c5 be        	<unknown>
1000c464: 84 3e        	<unknown>
1000c466: 7a bf        	<unknown>
1000c468: f7 be 2f bf aa 3f f7 3e      	<unknown>
1000c470: 7b bf 00 3e 71 3f 5f 3e      	<unknown>
1000c478: c3 bf 93 3f ae be ac 3d      	<unknown>
1000c480: d2 3e        	<unknown>
1000c482: 08 c0        	<unknown>
1000c484: 98 bf        	<unknown>
1000c486: b9 3f        	<unknown>
1000c488: 96 3f        	<unknown>
1000c48a: 63 bf 14 3f 06 bd 71 bf      	<unknown>
1000c492: 8e bf        	<unknown>
1000c494: a7 3e 20 bf b2 3d 2e 3d      	<unknown>
1000c49c: 78 3f        	<unknown>
1000c49e: b7 3f ab be bb 3e f8 be      	<unknown>
1000c4a6: 67 3f d2 3c 8c bf 8d bf      	<unknown>
1000c4ae: bd 3e        	<unknown>
1000c4b0: 67 3e d4 be 1f 3f cc 3f      	<unknown>
1000c4b8: 89 3f        	<unknown>
1000c4ba: 86 bf        	<unknown>
1000c4bc: 14 bf        	<unknown>
1000c4be: 10 c0        	<unknown>
1000c4c0: 7f be c8 be 2f 3f 48 3f      	<unknown>
1000c4c8: 36 bf        	<unknown>
1000c4ca: 62 bf        	<unknown>
1000c4cc: 4e bf        	<unknown>
1000c4ce: 97 3e c9 3d cb 3f 24 bf      	<unknown>
1000c4d6: 3b bf 9e bf 8c bd 7a be      	<unknown>
1000c4de: 78 be        	<unknown>
1000c4e0: 0c bf        	<unknown>
1000c4e2: 16 be        	<unknown>
1000c4e4: 89 bf        	<unknown>
1000c4e6: 96 3f        	<unknown>
1000c4e8: d7 3e df be 65 bf 45 bd      	<unknown>
1000c4f0: ef 3e 96 3f 1a be b2 3d      	<unknown>
1000c4f8: c9 be        	<unknown>
1000c4fa: 9c 3d        	<unknown>
1000c4fc: ab bf 0c bf a1 3e 06 be      	<unknown>
1000c504: d2 3d        	<unknown>
1000c506: a3 be 00 c0 28 c0 36 bf      	<unknown>
1000c50e: 9a be        	<unknown>
1000c510: b0 bf        	<unknown>
1000c512: ec be        	<unknown>
1000c514: 47 bf ac be b1 be 56 3e      	<unknown>
1000c51c: 47 3f c3 3f 03 c0 d8 be      	<unknown>
1000c524: 57 be 41 bf a6 3f fc 3f      	<unknown>
1000c52c: 85 bf        	<unknown>
1000c52e: f6 be        	<unknown>
1000c530: c3 3f 4a 3f 9b 3f c2 3f      	<unknown>
1000c538: b0 bf        	<unknown>
1000c53a: 00 00        	<unknown>
1000c53c: 04 be        	<unknown>
1000c53e: 1d 3f        	<unknown>
1000c540: 82 bf        	<unknown>
1000c542: 31 bf        	<unknown>
1000c544: 3f 3f ef 3f 48 be cb be      	<unknown>
1000c54c: a2 3f        	<unknown>
1000c54e: 92 bf        	<unknown>
1000c550: 56 be        	<unknown>
1000c552: 99 bf        	<unknown>
1000c554: cc 3f        	<unknown>
1000c556: 00 00        	<unknown>
1000c558: 07 3e a1 bf db 3f cf 3f      	<unknown>
1000c560: 92 3e        	<unknown>
1000c562: dd 3f        	<unknown>
1000c564: fc bf        	<unknown>
1000c566: 3f 3e 28 bf eb be e3 3d      	<unknown>
1000c56e: a3 3d 47 bf dd 3f 23 3f      	<unknown>
1000c576: 91 bf        	<unknown>
1000c578: 23 3f 5a bf 61 3f e9 3e      	<unknown>
1000c580: 81 bf        	<unknown>
1000c582: 67 3d f8 bf 09 bf 93 be      	<unknown>
1000c58a: b5 3e        	<unknown>
1000c58c: 6a bf        	<unknown>
1000c58e: 51 bf        	<unknown>
1000c590: 95 bf        	<unknown>
1000c592: c0 bf        	<unknown>
1000c594: 82 bf        	<unknown>
1000c596: 8a bf        	<unknown>
1000c598: ca bf        	<unknown>
1000c59a: 62 bf        	<unknown>
1000c59c: 51 3e        	<unknown>
1000c59e: 81 bf        	<unknown>
1000c5a0: 0d bf        	<unknown>
1000c5a2: 9a 3f        	<unknown>
1000c5a4: ed bd        	<unknown>
1000c5a6: 05 bf        	<unknown>
1000c5a8: b6 3f        	<unknown>
1000c5aa: c2 be        	<unknown>
1000c5ac: 8e 3f        	<unknown>
1000c5ae: 83 bf 5d 3f 90 bf 0a be      	<unknown>
1000c5b6: 15 40        	<unknown>
1000c5b8: f9 bf        	<unknown>
1000c5ba: e1 bf        	<unknown>
1000c5bc: 52 3f        	<unknown>
1000c5be: 86 3e        	<unknown>
1000c5c0: 22 3e        	<unknown>
1000c5c2: 02 3e        	<unknown>
1000c5c4: 23 be ca 3e 6b 3f 0d bf      	<unknown>
1000c5cc: 09 c0        	<unknown>
1000c5ce: 1c bf        	<unknown>
1000c5d0: ca be        	<unknown>
1000c5d2: e4 3f        	<unknown>
1000c5d4: e8 bf        	<unknown>
1000c5d6: 65 3f        	<unknown>
1000c5d8: 16 be        	<unknown>
1000c5da: be 3e        	<unknown>
1000c5dc: 08 3b        	<unknown>
1000c5de: 1e be        	<unknown>
1000c5e0: d4 3f        	<unknown>
1000c5e2: 2b bf f9 be 81 3e df bd      	<unknown>
1000c5ea: 25 bf        	<unknown>
1000c5ec: 1e c0        	<unknown>
1000c5ee: 63 3f 23 3f 89 bf 24 bf      	<unknown>
1000c5f6: 6c 3f        	<unknown>
1000c5f8: 41 be        	<unknown>
1000c5fa: ad 3f        	<unknown>
1000c5fc: da be        	<unknown>
1000c5fe: 88 bf        	<unknown>
1000c600: 3e 3f        	<unknown>
1000c602: 91 bf        	<unknown>
1000c604: 0f bf 39 3f a0 be 59 3f      	<unknown>
1000c60c: 63 bf a4 bf 43 be 6f 3f      	<unknown>
1000c614: 09 bf        	<unknown>
1000c616: 50 bf        	<unknown>
1000c618: 65 bf        	<unknown>
1000c61a: a7 bd f8 bf bf 3f 84 3f      	<unknown>
1000c622: b3 bf 9a be f1 bf a5 3f      	<unknown>
1000c62a: 30 bf        	<unknown>
1000c62c: 0e be        	<unknown>
1000c62e: db bf ac be e4 3d 9d bd      	<unknown>
1000c636: 46 3f        	<unknown>
1000c638: e2 bf        	<unknown>
1000c63a: 07 bf 43 bf b5 3e 32 3f      	<unknown>
1000c642: 81 bf        	<unknown>
1000c644: 5b bf d7 3e 97 be 89 be      	<unknown>
1000c64c: 0b be cf bf a7 be aa bf      	<unknown>
1000c654: be bf        	<unknown>
1000c656: 51 bf        	<unknown>
1000c658: e4 3e        	<unknown>
1000c65a: e6 3f        	<unknown>
1000c65c: 92 bd        	<unknown>
1000c65e: 69 be        	<unknown>
1000c660: f4 be        	<unknown>
1000c662: 13 3e 8b bf 2c be 3b bf      	<unknown>
1000c66a: f4 be        	<unknown>
1000c66c: a2 be        	<unknown>
1000c66e: 5f bf 78 3d 8b bf 0d 3f      	<unknown>
1000c676: 41 3f        	<unknown>
1000c678: 1a 3f        	<unknown>
1000c67a: f5 bf        	<unknown>
1000c67c: 75 3f        	<unknown>
1000c67e: fc be        	<unknown>
1000c680: 33 40 91 3f 42 3f 78 be      	<unknown>
1000c688: e8 3f        	<unknown>
1000c68a: a0 3f        	<unknown>
1000c68c: 22 c0        	<unknown>
1000c68e: 82 bf        	<unknown>
1000c690: 3a be        	<unknown>
1000c692: 4c 3f        	<unknown>
1000c694: dc 3e        	<unknown>
1000c696: f9 be        	<unknown>
1000c698: b3 bf 06 c0 85 bf 34 bf      	<unknown>
1000c6a0: af bf 89 be b7 3f 91 be      	<unknown>
1000c6a8: cb be 6b 3d ab be 51 3e      	<unknown>
1000c6b0: ef 3f 8b 3f 3b be 91 bf      	<unknown>
1000c6b8: 8e 3f        	<unknown>
1000c6ba: 9b 3f d9 3f 9f bf db 3d      	<unknown>
1000c6c2: 3e 3f        	<unknown>
1000c6c4: bc be        	<unknown>
1000c6c6: ce bf        	<unknown>
1000c6c8: bc bf        	<unknown>
1000c6ca: 15 3f        	<unknown>
1000c6cc: 09 bf        	<unknown>
1000c6ce: a1 3e        	<unknown>
1000c6d0: 1d 3f        	<unknown>
1000c6d2: 75 bf        	<unknown>
1000c6d4: 05 3f        	<unknown>
1000c6d6: 00 be        	<unknown>
1000c6d8: ef 3d cb bf 8f 3f 19 c0      	<unknown>
1000c6e0: 4c be        	<unknown>
1000c6e2: 2b bf 6f be 82 3e 18 bf      	<unknown>
1000c6ea: 4f be 8e bf 52 bf cc 3f      	<unknown>
1000c6f2: 80 bf        	<unknown>
1000c6f4: 94 be        	<unknown>
1000c6f6: d8 3f        	<unknown>
1000c6f8: c6 bf        	<unknown>
1000c6fa: 6f bf 40 bf 5e bf 98 3f      	<unknown>
1000c702: 70 3f        	<unknown>
1000c704: e7 bf d2 bf fd be 97 bf      	<unknown>
1000c70c: 09 40        	<unknown>
1000c70e: 1c bf        	<unknown>
1000c710: 04 bf        	<unknown>
1000c712: 8c be        	<unknown>
1000c714: 6e 3d        	<unknown>
1000c716: de bf        	<unknown>
1000c718: 90 3f        	<unknown>
1000c71a: 83 bf 26 3f 20 3e 87 be      	<unknown>
1000c722: 86 3f        	<unknown>
1000c724: e6 be        	<unknown>
1000c726: 21 3e        	<unknown>
1000c728: 6c 3f        	<unknown>
1000c72a: 54 bf        	<unknown>
1000c72c: 13 3a cb be 13 bf c0 be      	<unknown>
1000c734: 82 3e        	<unknown>
1000c736: 03 3f 16 bf c6 3e 94 3f      	<unknown>
1000c73e: a6 3f        	<unknown>
1000c740: 2f 3f 49 bf 94 3f 8b 3d      	<unknown>
1000c748: 57 be 03 3f 47 be 9b 3e      	<unknown>
1000c750: 60 3f        	<unknown>
1000c752: 76 3e        	<unknown>
1000c754: 16 bf        	<unknown>
1000c756: 28 3e        	<unknown>
1000c758: da 3d        	<unknown>
1000c75a: 8a bf        	<unknown>
1000c75c: 1d bf        	<unknown>
1000c75e: 49 3f        	<unknown>
1000c760: 31 3f        	<unknown>
1000c762: af bc bf bf 03 40 3b 3e      	<unknown>
1000c76a: a2 3d        	<unknown>
1000c76c: 48 3f        	<unknown>
1000c76e: 31 3f        	<unknown>
1000c770: d1 be        	<unknown>
1000c772: 6e 3f        	<unknown>
1000c774: ab 3e 8b 3f e9 be 07 3e      	<unknown>
1000c77c: 8f be 11 3f a7 bf 4f bf      	<unknown>
1000c784: a8 3f        	<unknown>
1000c786: bf be d7 bf 79 bf 54 be      	<unknown>
1000c78e: 97 bd cc 3e da 3e 55 bf      	<unknown>
1000c796: 07 3f 24 3e 88 3e 2e 3e      	<unknown>
1000c79e: cf 3d 0f bf 81 bf 47 3e      	<unknown>
1000c7a6: 7f be 46 bf 94 3f f9 3e      	<unknown>
1000c7ae: 4d bf        	<unknown>
1000c7b0: 0d bf        	<unknown>
1000c7b2: 14 3e        	<unknown>
1000c7b4: 50 3e        	<unknown>
1000c7b6: 3e be        	<unknown>
1000c7b8: 29 3f        	<unknown>
1000c7ba: d8 bf        	<unknown>
1000c7bc: ad 3f        	<unknown>
1000c7be: 9b 3f 88 3f b2 3e fe bf      	<unknown>
1000c7c6: 88 3f        	<unknown>
1000c7c8: 2c bf        	<unknown>
1000c7ca: b1 be        	<unknown>
1000c7cc: bf 3d 23 bf c1 3f 52 be      	<unknown>
1000c7d4: 81 3e        	<unknown>
1000c7d6: 5f 3f e8 be 25 be ac bf      	<unknown>
1000c7de: 97 bf b6 bf e5 bd e4 3d      	<unknown>
1000c7e6: 00 00        	<unknown>
1000c7e8: 57 bf 13 3f 93 3f ca bf      	<unknown>
1000c7f0: 9b 3f 1d bf 2e bf 00 00      	<unknown>
1000c7f8: 6a bf        	<unknown>
1000c7fa: cc 3f        	<unknown>
1000c7fc: d3 be 97 3f 97 3e b6 bf      	<unknown>
1000c804: 85 3f        	<unknown>
1000c806: 92 bf        	<unknown>
1000c808: bb 3f 65 bf 7b bf d6 bf      	<unknown>
1000c810: 8e be        	<unknown>
1000c812: dd be        	<unknown>
1000c814: cc 3e        	<unknown>
1000c816: 96 3e        	<unknown>
1000c818: c3 3f 0f bf 98 be 55 be      	<unknown>
1000c820: 1c be        	<unknown>
1000c822: aa bd        	<unknown>
1000c824: 10 be        	<unknown>
1000c826: 5f be 8b bf 93 bd a2 3e      	<unknown>
1000c82e: b9 3f        	<unknown>
1000c830: 0c 3f        	<unknown>
1000c832: f5 3c        	<unknown>
1000c834: 7a 3e        	<unknown>
1000c836: 2b 3c c8 3e 53 be 75 3f      	<unknown>
1000c83e: 91 3d        	<unknown>
1000c840: 3c 3f        	<unknown>
1000c842: 54 3d        	<unknown>
1000c844: 07 3e c9 be a9 3d b6 be      	<unknown>
1000c84c: e3 3e ea be cf be b0 bf      	<unknown>
1000c854: 6f 3e 83 3f df 3f 94 3f      	<unknown>
1000c85c: 81 3f        	<unknown>
1000c85e: bf 3f 8f bf 0c 3f c1 3e      	<unknown>
1000c866: 37 bf fb 3d 8e 3f 42 bf      	<unknown>
1000c86e: d6 bf        	<unknown>
1000c870: 35 3f        	<unknown>
1000c872: 7c bf        	<unknown>
1000c874: 65 3d        	<unknown>
1000c876: 17 3f 99 3e d5 3f 11 bf      	<unknown>
1000c87e: c0 bf        	<unknown>
1000c880: 5c bf        	<unknown>
1000c882: 97 3f 1e 3f c0 3f d9 3c      	<unknown>
1000c88a: 33 bf 84 bf 20 bf 5a 3f      	<unknown>
1000c892: 02 bf        	<unknown>
1000c894: c5 bf        	<unknown>
1000c896: c0 3f        	<unknown>
1000c898: 0f 3f 36 be a1 be 3a 3f      	<unknown>
1000c8a0: ad be        	<unknown>
1000c8a2: b0 bf        	<unknown>
1000c8a4: 38 3f        	<unknown>
1000c8a6: 09 40        	<unknown>
1000c8a8: 5a bf        	<unknown>
1000c8aa: bd 3e        	<unknown>
1000c8ac: 78 bf        	<unknown>
1000c8ae: 03 3f 2e 3f 36 3d 18 bf      	<unknown>
1000c8b6: 87 3e 83 3f a0 bf 39 bf      	<unknown>
1000c8be: 4f be f5 3e f0 3e 03 bf      	<unknown>
1000c8c6: 9c 3f        	<unknown>
1000c8c8: c6 bf        	<unknown>
1000c8ca: 7b 3d c5 bd 00 00 40 bf      	<unknown>
1000c8d2: 96 bf        	<unknown>
1000c8d4: 05 40        	<unknown>
1000c8d6: f0 bd        	<unknown>
1000c8d8: f6 bd        	<unknown>
1000c8da: 5d 3f        	<unknown>
1000c8dc: af 3f 00 00 45 be 2b 3f      	<unknown>
1000c8e4: 51 bf        	<unknown>
1000c8e6: 88 bf        	<unknown>
1000c8e8: c4 be        	<unknown>
1000c8ea: 50 40        	<unknown>
1000c8ec: 1e 3f        	<unknown>
1000c8ee: 2c bd        	<unknown>
1000c8f0: 87 bf d0 3f bb be 95 3e      	<unknown>
1000c8f8: 06 c0        	<unknown>
1000c8fa: 3a 3f        	<unknown>
1000c8fc: ad be        	<unknown>
1000c8fe: 3f bf 27 3d e7 3f 8f bf      	<unknown>
1000c906: a3 bf 98 3f a4 3f e8 3f      	<unknown>
1000c90e: 19 bf        	<unknown>
1000c910: 5c 3f        	<unknown>
1000c912: 93 3f b6 3f 19 3f 53 3e      	<unknown>
1000c91a: aa bd        	<unknown>
1000c91c: 8a 3f        	<unknown>
1000c91e: 0a 3f        	<unknown>
1000c920: 3f 3f 5b bf 34 3f 82 3f      	<unknown>
1000c928: c0 be        	<unknown>
1000c92a: c8 3f        	<unknown>
1000c92c: 86 3e        	<unknown>
1000c92e: f5 bd        	<unknown>
1000c930: 95 bf        	<unknown>
1000c932: 19 40        	<unknown>
1000c934: 02 bf        	<unknown>
1000c936: 6b 3f 04 3f dd 3f 87 3f      	<unknown>
1000c93e: 8b 3e ad 3f 23 bf 72 3f      	<unknown>
1000c946: 21 bf        	<unknown>
1000c948: 86 3f        	<unknown>
1000c94a: 83 bf a1 3e 51 3e e4 3e      	<unknown>
1000c952: fb 3e f3 3e b7 3e 56 3e      	<unknown>
1000c95a: 81 3f        	<unknown>
1000c95c: 39 bf        	<unknown>
1000c95e: c6 bf        	<unknown>
1000c960: 91 3f        	<unknown>
1000c962: 0d bf        	<unknown>
1000c964: 81 bf        	<unknown>
1000c966: 0e 40        	<unknown>
1000c968: b0 3f        	<unknown>
1000c96a: 8b 3f e9 3f f3 bf 5f be      	<unknown>
1000c972: 54 bf        	<unknown>
1000c974: 1d bf        	<unknown>
1000c976: 00 40        	<unknown>
1000c978: 3b bd 0b 3f 38 3e 7f bf      	<unknown>
1000c980: 2c bf        	<unknown>
1000c982: e0 be        	<unknown>
1000c984: 23 3f 18 be 43 3f 61 be      	<unknown>
1000c98c: 97 3f af 3e 48 3f 34 bf      	<unknown>
1000c994: 75 3f        	<unknown>
1000c996: d8 bf        	<unknown>
1000c998: df bf 32 bf e2 3f 2e 40      	<unknown>
1000c9a0: a1 3f        	<unknown>
1000c9a2: ed 3f        	<unknown>
1000c9a4: bf be 97 bf 39 bf 13 40      	<unknown>
1000c9ac: 07 bd 7b 3f ea bf 44 3f      	<unknown>
1000c9b4: a3 3e d6 bf 21 bf 63 be      	<unknown>
1000c9bc: b8 3f        	<unknown>
1000c9be: 1f 3f 81 bf 96 bf 05 3f      	<unknown>
1000c9c6: 0c 3f        	<unknown>
1000c9c8: cc 3e        	<unknown>
1000c9ca: a8 bf        	<unknown>
1000c9cc: 3a 3f        	<unknown>
1000c9ce: e3 bf b6 3f 29 be 41 bf      	<unknown>
1000c9d6: fa bd        	<unknown>
1000c9d8: 7f bf 81 3f 93 3f 4a bf      	<unknown>
1000c9e0: c9 3f        	<unknown>
1000c9e2: 74 bf        	<unknown>
1000c9e4: 16 bf        	<unknown>
1000c9e6: 83 3f 97 bf 8c bf a3 bf      	<unknown>
1000c9ee: f0 3f        	<unknown>
1000c9f0: 6f 3f f8 3e 22 be 90 3e      	<unknown>
1000c9f8: 9f bf 41 be 91 3e b1 3f      	<unknown>
1000ca00: 10 bf        	<unknown>
1000ca02: dd 3f        	<unknown>
1000ca04: 15 40        	<unknown>
1000ca06: c6 3f        	<unknown>
1000ca08: 70 3f        	<unknown>
1000ca0a: 7d 3f        	<unknown>
1000ca0c: 06 3f        	<unknown>
1000ca0e: 0e bf        	<unknown>
1000ca10: a2 be        	<unknown>
1000ca12: e5 bd        	<unknown>
1000ca14: ea 3d        	<unknown>
1000ca16: 9e 3e        	<unknown>
1000ca18: 70 3e        	<unknown>
1000ca1a: f9 3d        	<unknown>
1000ca1c: 35 3f        	<unknown>
1000ca1e: 3a bf        	<unknown>
1000ca20: 26 bf        	<unknown>
1000ca22: 6c bf        	<unknown>
1000ca24: cb be 8a 3e 2d bf 92 bf      	<unknown>
1000ca2c: 47 3e 0e 3f 41 bf b2 3f      	<unknown>
1000ca34: 84 bf        	<unknown>
1000ca36: 2c bf        	<unknown>
1000ca38: a2 3f        	<unknown>
1000ca3a: d1 3e        	<unknown>
1000ca3c: 32 3d        	<unknown>
1000ca3e: fe bd        	<unknown>
1000ca40: 95 3f        	<unknown>
1000ca42: bb bf b0 3e c5 be 73 bf      	<unknown>
1000ca4a: 13 3e 00 bf 20 bf a4 3e      	<unknown>
1000ca52: f0 be        	<unknown>
1000ca54: 91 be        	<unknown>
1000ca56: 60 3f        	<unknown>
1000ca58: 36 bf        	<unknown>
1000ca5a: 60 bf        	<unknown>
1000ca5c: 8b bf 11 3f cc 3e 23 3f      	<unknown>
1000ca64: 9f be 62 bf 24 3e 97 bf      	<unknown>
1000ca6c: 3b 3f ef 3f ed bd 93 bf      	<unknown>
1000ca74: b9 bf        	<unknown>
1000ca76: 3a 3f        	<unknown>
1000ca78: cc bf        	<unknown>
1000ca7a: 08 3f        	<unknown>
1000ca7c: 2f bf 04 3f be bf 2c bf      	<unknown>
1000ca84: 86 3f        	<unknown>
1000ca86: a5 3f        	<unknown>
1000ca88: 1e bf        	<unknown>
1000ca8a: 27 be e9 3f 8a 3e b8 3f      	<unknown>
1000ca92: 36 3f        	<unknown>
1000ca94: 04 40        	<unknown>
1000ca96: 44 3e        	<unknown>
1000ca98: 60 3f        	<unknown>
1000ca9a: 7d 3e        	<unknown>
1000ca9c: 6d bf        	<unknown>
1000ca9e: bb 3e 00 bf b8 3e aa bf      	<unknown>
1000caa6: f6 bf        	<unknown>
1000caa8: cc 3c        	<unknown>
1000caaa: 5e 3f        	<unknown>
1000caac: 02 bf        	<unknown>
1000caae: 3e bf        	<unknown>
1000cab0: df be 90 3c 29 be ac 3e      	<unknown>
1000cab8: 1b be ab 3e b6 3f 5d bf      	<unknown>
1000cac0: 96 bf        	<unknown>
1000cac2: 5b be 84 bf 69 be db 3d      	<unknown>
1000caca: a2 3e        	<unknown>
1000cacc: 2a c0        	<unknown>
1000cace: ad 3e        	<unknown>
1000cad0: 83 bf 7e bf d1 3e 7c bd      	<unknown>
1000cad8: c6 bf        	<unknown>
1000cada: 75 bf        	<unknown>
1000cadc: c3 3e c2 3f 29 be eb bf      	<unknown>
1000cae4: 14 c0        	<unknown>
1000cae6: 23 c0 8a 3e f2 be 1f 3f      	<unknown>
1000caee: d5 3f        	<unknown>
1000caf0: 67 bf 08 40 dd 3f 31 bf      	<unknown>
1000caf8: 3c bf        	<unknown>
1000cafa: 7e 3f        	<unknown>
1000cafc: 67 bf 6a bf 11 3e 16 3e      	<unknown>
1000cb04: 9c bf        	<unknown>
1000cb06: ce be        	<unknown>
1000cb08: ae bc        	<unknown>
1000cb0a: 10 bd        	<unknown>
1000cb0c: e1 bf        	<unknown>
1000cb0e: 8a be        	<unknown>
1000cb10: 70 3d        	<unknown>
1000cb12: b7 3f 1e 3e 90 3e 5a bf      	<unknown>
1000cb1a: 97 be 5a bd 00 be c1 bf      	<unknown>
1000cb22: 9e 3e        	<unknown>
1000cb24: ce bf        	<unknown>
1000cb26: 8a be        	<unknown>
1000cb28: 47 bf 31 be 94 3f ec bf      	<unknown>
1000cb30: d1 be        	<unknown>
1000cb32: bd be        	<unknown>
1000cb34: e1 3e        	<unknown>
1000cb36: 5b bf e2 3f 4d bf e3 3e      	<unknown>
1000cb3e: 12 be        	<unknown>
1000cb40: c2 bc        	<unknown>
1000cb42: 11 bf        	<unknown>
1000cb44: e9 3f        	<unknown>
1000cb46: c9 3e        	<unknown>
1000cb48: 17 bf e9 3f 01 bf 74 3f      	<unknown>
1000cb50: 84 3f        	<unknown>
1000cb52: ec 3f        	<unknown>
1000cb54: 01 3f        	<unknown>
1000cb56: 8d 3e        	<unknown>
1000cb58: d3 3e 01 3f 30 3f f8 be      	<unknown>
1000cb60: 2c bf        	<unknown>
1000cb62: 74 3f        	<unknown>
1000cb64: dd 3f        	<unknown>
1000cb66: 7f be e4 3c 9f be 6f be      	<unknown>
1000cb6e: fc 3e        	<unknown>
1000cb70: 9f bf 31 bf 26 40 a2 3f      	<unknown>
1000cb78: ac bd        	<unknown>
1000cb7a: 3b 3e f0 3e 35 be 01 bf      	<unknown>
1000cb82: 18 bf        	<unknown>
1000cb84: 3c 3f        	<unknown>
1000cb86: e0 3e        	<unknown>
1000cb88: a8 3f        	<unknown>
1000cb8a: 3a bf        	<unknown>
1000cb8c: 72 bf        	<unknown>
1000cb8e: fc 3e        	<unknown>
1000cb90: a7 3f 99 3f 90 3e a9 3f      	<unknown>
1000cb98: 56 be        	<unknown>
1000cb9a: 62 be        	<unknown>
1000cb9c: f3 bf fc 3d 9d 3a 83 bf      	<unknown>
1000cba4: 96 3e        	<unknown>
1000cba6: 12 bf        	<unknown>
1000cba8: b9 be        	<unknown>
1000cbaa: fe 3f        	<unknown>
1000cbac: 3a 3f        	<unknown>
1000cbae: bf be 1e 40 fe bc 51 3f      	<unknown>
1000cbb6: 10 3f        	<unknown>
1000cbb8: 52 3e        	<unknown>
1000cbba: 82 be        	<unknown>
1000cbbc: c4 bf        	<unknown>
1000cbbe: 48 3f        	<unknown>
1000cbc0: 8d 3e        	<unknown>
1000cbc2: 4a 3e        	<unknown>
1000cbc4: 4a 3e        	<unknown>
1000cbc6: ba 3e        	<unknown>
1000cbc8: ea 3e        	<unknown>
1000cbca: 3b bf 23 be 2a 3f ca 3f      	<unknown>
1000cbd2: a8 3f        	<unknown>
1000cbd4: 93 be 9d bf 1a 3e ae be      	<unknown>
1000cbdc: e4 3e        	<unknown>
1000cbde: e8 bf        	<unknown>
1000cbe0: c1 3e        	<unknown>
1000cbe2: 4d 3f        	<unknown>
1000cbe4: 5b bf 1f 3e 34 bf 1f 40      	<unknown>
1000cbec: 35 bf        	<unknown>
1000cbee: d8 be        	<unknown>
1000cbf0: 15 3e        	<unknown>
1000cbf2: 54 bd        	<unknown>
1000cbf4: ab 3f 18 bf 08 40 25 be      	<unknown>
1000cbfc: 1e bf        	<unknown>
1000cbfe: e4 3e        	<unknown>
1000cc00: 3b 3e 31 3f 25 3f 91 3e      	<unknown>
1000cc08: c4 3f        	<unknown>
1000cc0a: c9 3c        	<unknown>
1000cc0c: 24 bf        	<unknown>
1000cc0e: 56 3f        	<unknown>
1000cc10: 86 3f        	<unknown>
1000cc12: dc bf        	<unknown>
1000cc14: 82 3f        	<unknown>
1000cc16: c7 be 2a bf 27 bf b2 bf      	<unknown>
1000cc1e: be 3e        	<unknown>
1000cc20: 8c be        	<unknown>
1000cc22: 4d bf        	<unknown>
1000cc24: eb be 97 3f fb bf 64 3f      	<unknown>
1000cc2c: 54 bf        	<unknown>
1000cc2e: 17 bf 98 be 9a bf 1b bf      	<unknown>
1000cc36: 9b be 8e bf 7c 3f 68 3e      	<unknown>
1000cc3e: 15 bf        	<unknown>
1000cc40: bc 3f        	<unknown>
1000cc42: e5 3e        	<unknown>
1000cc44: 1d bf        	<unknown>
1000cc46: 75 bf        	<unknown>
1000cc48: 74 bd        	<unknown>
1000cc4a: 1d 40        	<unknown>
1000cc4c: 81 3f        	<unknown>
1000cc4e: 8b bf 40 be 8b 3f a2 3c      	<unknown>
1000cc56: 79 be        	<unknown>
1000cc58: 16 3f        	<unknown>
1000cc5a: 8c 3f        	<unknown>
1000cc5c: 99 3d        	<unknown>
1000cc5e: 55 3f        	<unknown>
1000cc60: 23 3f 48 3e f7 be 9b be      	<unknown>
1000cc68: 8d 3f        	<unknown>
1000cc6a: 99 be        	<unknown>
1000cc6c: 75 3f        	<unknown>
1000cc6e: 30 3c        	<unknown>
1000cc70: 38 bf        	<unknown>
1000cc72: f4 3f        	<unknown>
1000cc74: ab bd 76 bf a4 be ad 3f      	<unknown>
1000cc7c: c0 bf        	<unknown>
1000cc7e: d8 bf        	<unknown>
1000cc80: 0b 40 98 3f b5 3f 0f c0      	<unknown>
1000cc88: d3 be 46 3f 97 be 79 3f      	<unknown>
1000cc90: 6f bf 07 3f b5 3e 7f bf      	<unknown>
1000cc98: 03 bd 10 bf aa 3f 56 3f      	<unknown>
1000cca0: d7 bf 9d 3f 3c bf 01 c0      	<unknown>
1000cca8: 95 bf        	<unknown>
1000ccaa: ca 3f        	<unknown>
1000ccac: 13 3f 79 bf 72 be 9d 3f      	<unknown>
1000ccb4: d6 3f        	<unknown>
1000ccb6: e6 3e        	<unknown>
1000ccb8: 99 3e        	<unknown>
1000ccba: eb be 3c 3f 5e 3e b7 3e      	<unknown>
1000ccc2: 03 bf 16 3f 8c bf 0b be      	<unknown>
1000ccca: 76 bf        	<unknown>
1000cccc: 81 be        	<unknown>
1000ccce: 90 3e        	<unknown>
1000ccd0: 9e 3e        	<unknown>
1000ccd2: d7 be 1e bf 98 bf 65 bf      	<unknown>
1000ccda: fe 3c        	<unknown>
1000ccdc: 46 3c        	<unknown>
1000ccde: 25 bf        	<unknown>
1000cce0: f2 bf        	<unknown>
1000cce2: 42 3f        	<unknown>
1000cce4: 20 3f        	<unknown>
1000cce6: c3 3f 47 be dc 3f a0 3f      	<unknown>
1000ccee: 71 3e        	<unknown>
1000ccf0: 13 bf 42 3f 90 bf 56 bf      	<unknown>
1000ccf8: 32 3f        	<unknown>
1000ccfa: f9 bf        	<unknown>
1000ccfc: f0 3f        	<unknown>
1000ccfe: 00 00        	<unknown>
1000cd00: 1e bf        	<unknown>
1000cd02: da bd        	<unknown>
1000cd04: 5b 3f 02 3f 84 be bd bf      	<unknown>
1000cd0c: 16 3f        	<unknown>
1000cd0e: 6f 3f e3 bf 86 3f ce be      	<unknown>
1000cd16: dc bf        	<unknown>
1000cd18: b5 bf        	<unknown>
1000cd1a: a9 3e        	<unknown>
1000cd1c: e8 be        	<unknown>
1000cd1e: ce be        	<unknown>
1000cd20: 8c 3f        	<unknown>
1000cd22: 2b 3f 5b be 5e bf 2a 3f      	<unknown>
1000cd2a: 84 be        	<unknown>
1000cd2c: fa 3f        	<unknown>
1000cd2e: bf 3e 03 bf 47 3f 02 bf      	<unknown>
1000cd36: 5c 3a        	<unknown>
1000cd38: dd 3f        	<unknown>
1000cd3a: b5 bf        	<unknown>
1000cd3c: e0 3e        	<unknown>
1000cd3e: 85 3f        	<unknown>
1000cd40: c8 bf        	<unknown>
1000cd42: 9c bf        	<unknown>
1000cd44: c3 3f 6c 3e d0 bf 84 bf      	<unknown>
1000cd4c: bd bf        	<unknown>
1000cd4e: 2e bf        	<unknown>
1000cd50: aa 3f        	<unknown>
1000cd52: 69 3f        	<unknown>
1000cd54: ed 3f        	<unknown>
1000cd56: 56 3e        	<unknown>
1000cd58: 15 3f        	<unknown>
1000cd5a: 06 bf        	<unknown>
1000cd5c: f9 bf        	<unknown>
1000cd5e: a1 bf        	<unknown>
1000cd60: d3 3e 88 be fa be 8a 3f      	<unknown>
1000cd68: 34 3f        	<unknown>
1000cd6a: 4b bf 58 bf 1e bf b5 3e      	<unknown>
1000cd72: 52 be        	<unknown>
1000cd74: 1b bd 90 3f 51 be 21 c0      	<unknown>
1000cd7c: 5d 3e        	<unknown>
1000cd7e: f3 be cc bf 7c bd 7c 3d      	<unknown>
1000cd86: 9b 3f 06 c0 44 3f 4c 3b      	<unknown>
1000cd8e: ed bf        	<unknown>
1000cd90: b1 bf        	<unknown>
1000cd92: 33 bf d2 3e 4e 3f 40 3f      	<unknown>
1000cd9a: a2 3e        	<unknown>
1000cd9c: fb be c3 3f fe 3f 91 3f      	<unknown>
1000cda4: bb 3d 86 bd cf 3f 78 3d      	<unknown>
1000cdac: 79 be        	<unknown>
1000cdae: f0 be        	<unknown>
1000cdb0: 13 bf 39 be 9e be 72 bd      	<unknown>
1000cdb8: 13 40 e0 bd 3c 3f 9c bf      	<unknown>
1000cdc0: cd be        	<unknown>
1000cdc2: 46 3f        	<unknown>
1000cdc4: a0 3f        	<unknown>
1000cdc6: ed 3f        	<unknown>
1000cdc8: 7f be 5a 3b 6a 3f d4 bb      	<unknown>
1000cdd0: 71 3e        	<unknown>
1000cdd2: 46 3f        	<unknown>
1000cdd4: a6 bd        	<unknown>
1000cdd6: c2 3f        	<unknown>
1000cdd8: d3 bf b5 bd 8d bf 90 3e      	<unknown>
1000cde0: e1 bf        	<unknown>
1000cde2: 54 3f        	<unknown>
1000cde4: 13 3f 28 bf c7 be 1b be      	<unknown>
1000cdec: b4 3e        	<unknown>
1000cdee: 3e 3f        	<unknown>
1000cdf0: c7 be a3 3e 8b 3e 12 bf      	<unknown>
1000cdf8: b0 bf        	<unknown>
1000cdfa: dd bf        	<unknown>
1000cdfc: 16 3f        	<unknown>
1000cdfe: c7 bf 91 bf bf be 94 bf      	<unknown>
1000ce06: c8 bd        	<unknown>
1000ce08: 2d 3d        	<unknown>
1000ce0a: b1 3e        	<unknown>
1000ce0c: a4 bf        	<unknown>
1000ce0e: 33 be b1 be a3 3e 16 3f      	<unknown>
1000ce16: 09 bf        	<unknown>
1000ce18: 90 bf        	<unknown>
1000ce1a: 3d 3e        	<unknown>
1000ce1c: cc bd        	<unknown>
1000ce1e: cb 3e 97 3f 10 bf 38 be      	<unknown>
1000ce26: c1 bf        	<unknown>
1000ce28: ad be        	<unknown>
1000ce2a: 2c 3f        	<unknown>
1000ce2c: dd 3e        	<unknown>
1000ce2e: 87 3f 6c 3f 57 bd 12 bf      	<unknown>
1000ce36: 6b bf e4 be 48 3f c8 3e      	<unknown>
1000ce3e: 3b 3e c0 3e 3a 3f f1 3f      	<unknown>
1000ce46: 95 bf        	<unknown>
1000ce48: 4e 3e        	<unknown>
1000ce4a: 08 3e        	<unknown>
1000ce4c: 34 3f        	<unknown>
1000ce4e: c4 bf        	<unknown>
1000ce50: f2 3f        	<unknown>
1000ce52: 10 bf        	<unknown>
1000ce54: af bf 0a bf 9d bf a6 3f      	<unknown>
1000ce5c: f0 3e        	<unknown>
1000ce5e: c2 bf        	<unknown>
1000ce60: 66 3f        	<unknown>
1000ce62: 08 3f        	<unknown>
1000ce64: aa be        	<unknown>
1000ce66: 19 3f        	<unknown>
1000ce68: 77 3f cc 3e ef 3e bf 3f      	<unknown>
1000ce70: 08 bf        	<unknown>
1000ce72: 61 3e        	<unknown>
1000ce74: 86 bf        	<unknown>
1000ce76: 52 bf        	<unknown>
1000ce78: 28 bf        	<unknown>
1000ce7a: 7f bf 80 3f bf bf 36 bf      	<unknown>
1000ce82: 36 bf        	<unknown>
1000ce84: 49 3e        	<unknown>
1000ce86: 70 3f        	<unknown>
1000ce88: 1a bf        	<unknown>
1000ce8a: f5 3e        	<unknown>
1000ce8c: 63 bf 60 be 25 3f 0c bf      	<unknown>
1000ce94: c6 3e        	<unknown>
1000ce96: 60 bf        	<unknown>
1000ce98: af 3f 40 bf 2e bf 29 3f      	<unknown>
1000cea0: 8e 3f        	<unknown>
1000cea2: bd 3f        	<unknown>
1000cea4: 6b 3f e4 bc ea bd 86 3f      	<unknown>
1000ceac: ca 3e        	<unknown>
1000ceae: 89 3f        	<unknown>
1000ceb0: 85 bf        	<unknown>
1000ceb2: 9b 3f 89 be 9b 3f 90 3f      	<unknown>
1000ceba: f2 bf        	<unknown>
1000cebc: 00 c0        	<unknown>
1000cebe: d3 bd 27 3d 89 bf 42 be      	<unknown>
1000cec6: 05 40        	<unknown>
1000cec8: 25 bf        	<unknown>
1000ceca: 24 3e        	<unknown>
1000cecc: cb bf 1d bf 8b bf 69 3f      	<unknown>
1000ced4: 8c 3f        	<unknown>
1000ced6: 51 3d        	<unknown>
1000ced8: a0 bc        	<unknown>
1000ceda: 7a bf        	<unknown>
1000cedc: 8d bf        	<unknown>
1000cede: 01 3f        	<unknown>
1000cee0: c4 3e        	<unknown>
1000cee2: 4f bf 16 bf a2 bf 55 3f      	<unknown>
1000ceea: 19 bf        	<unknown>
1000ceec: 49 be        	<unknown>
1000ceee: 8a 3d        	<unknown>
1000cef0: 40 3f        	<unknown>
1000cef2: 2b 3f b6 3f 05 3f fc be      	<unknown>
1000cefa: d5 3d        	<unknown>
1000cefc: ae be        	<unknown>
1000cefe: 7a bf        	<unknown>
1000cf00: 61 be        	<unknown>
1000cf02: ed bf        	<unknown>
1000cf04: 41 bf        	<unknown>
1000cf06: 21 3f        	<unknown>
1000cf08: 8d 3f        	<unknown>
1000cf0a: a7 3f 77 3f ab 3e ff 3d      	<unknown>
1000cf12: 6c be        	<unknown>
1000cf14: a7 3f d7 3e 5d 3d ad bd      	<unknown>
1000cf1c: 80 bd        	<unknown>
1000cf1e: 02 c0        	<unknown>
1000cf20: 7c bf        	<unknown>
1000cf22: 43 3f 13 c0 d6 3e 81 bf      	<unknown>
1000cf2a: 60 bf        	<unknown>
1000cf2c: cd 3d        	<unknown>
1000cf2e: a2 3f        	<unknown>
1000cf30: b5 3e        	<unknown>
1000cf32: cd bf        	<unknown>
1000cf34: 52 bf        	<unknown>
1000cf36: 72 3e        	<unknown>
1000cf38: e9 3e        	<unknown>
1000cf3a: ca 3e        	<unknown>
1000cf3c: 42 bf        	<unknown>
1000cf3e: a9 3f        	<unknown>
1000cf40: 67 3f 66 3f 9e be cb 3f      	<unknown>
1000cf48: da 3e        	<unknown>
1000cf4a: f0 be        	<unknown>
1000cf4c: fa be        	<unknown>
1000cf4e: 14 be        	<unknown>
1000cf50: fe be        	<unknown>
1000cf52: 46 3f        	<unknown>
1000cf54: b7 be be bf 84 3f 9c bf      	<unknown>
1000cf5c: 98 3f        	<unknown>
1000cf5e: 4b bf b0 3e e2 3f 3b 3f      	<unknown>
1000cf66: 5b 3f 01 3d 16 40 0a 3f      	<unknown>
1000cf6e: 53 bf 2c bf 49 3f b7 3f      	<unknown>
1000cf76: 5b bf 2a 3f b3 3f 01 bf      	<unknown>
1000cf7e: 1e 3f        	<unknown>
1000cf80: 90 3f        	<unknown>
1000cf82: a3 3c b0 3d 1b bf b2 bf      	<unknown>
1000cf8a: 14 c0        	<unknown>
1000cf8c: bb 3d 49 be 00 3f 4b be      	<unknown>
1000cf94: 56 3f        	<unknown>
1000cf96: d8 be        	<unknown>
1000cf98: fe be        	<unknown>
1000cf9a: 96 3f        	<unknown>
1000cf9c: a4 3f        	<unknown>
1000cf9e: 32 bf        	<unknown>
1000cfa0: d3 be d4 bd d0 3f 22 be      	<unknown>
1000cfa8: 67 bf a8 be 03 40 85 3f      	<unknown>
1000cfb0: 45 3f        	<unknown>
1000cfb2: f5 be        	<unknown>
1000cfb4: 15 bf        	<unknown>
1000cfb6: e9 be        	<unknown>
1000cfb8: c2 3f        	<unknown>
1000cfba: 95 bf        	<unknown>
1000cfbc: 03 3f eb 3f a1 3e 55 3d      	<unknown>
1000cfc4: 19 bf        	<unknown>
1000cfc6: a0 bf        	<unknown>
1000cfc8: a3 3e b5 bf 8d bf 7a 3f      	<unknown>
1000cfd0: cb 3f b1 bf cf 3e 5e be      	<unknown>
1000cfd8: 1b c0 0e bf 7b 3e 1e bf      	<unknown>
1000cfe0: 3c be        	<unknown>
1000cfe2: 03 3f be 3b e5 bf 91 bf      	<unknown>
1000cfea: 73 3e 29 bf f5 bf 26 bf      	<unknown>
1000cff2: 4f 3d 6a bf 69 3e 58 bf      	<unknown>
1000cffa: dc be        	<unknown>
1000cffc: a8 bd        	<unknown>
1000cffe: 8c 3e        	<unknown>
1000d000: 4c be        	<unknown>
1000d002: 93 3e 9e bf f3 be 9b be      	<unknown>
1000d00a: 07 c0 ad be 1c 3f 65 3f      	<unknown>
1000d012: 72 be        	<unknown>
1000d014: 97 bf 05 3f af 3f 8f 3f      	<unknown>
1000d01c: 4e bf        	<unknown>
1000d01e: 09 bf        	<unknown>
1000d020: 81 bf        	<unknown>
1000d022: e3 bd a0 3e 4f bf 8a be      	<unknown>
1000d02a: da be        	<unknown>
1000d02c: ad bf        	<unknown>
1000d02e: be 3f        	<unknown>
1000d030: 79 3f        	<unknown>
1000d032: a3 be 2b 3f da 3e b0 3f      	<unknown>
1000d03a: 0f bf 8f 3e 95 3d ba be      	<unknown>
1000d042: 8c bf        	<unknown>
1000d044: 3a 3f        	<unknown>
1000d046: 62 3f        	<unknown>
1000d048: 04 3f        	<unknown>
1000d04a: 5d bf        	<unknown>
1000d04c: 44 3f        	<unknown>
1000d04e: 7b 3f 9a 3d 2a bf c4 bf      	<unknown>
1000d056: 1d 3e        	<unknown>
1000d058: 13 40 10 c0 10 3f 41 be      	<unknown>
1000d060: cf be 75 bf 69 bf a8 be      	<unknown>
1000d068: 81 bf        	<unknown>
1000d06a: c7 3f 5b bf 49 bf 91 3f      	<unknown>
1000d072: e4 be        	<unknown>
1000d074: 23 3e a7 3e a5 3f f1 3f      	<unknown>
1000d07c: 24 3f        	<unknown>
1000d07e: d3 be 5b 3f 02 c0 92 3f      	<unknown>
1000d086: 97 bf 8d 3f 09 3f f8 be      	<unknown>
1000d08e: b2 bd        	<unknown>
1000d090: 4d bf        	<unknown>
1000d092: 73 bf b2 3e 08 3f b5 bf      	<unknown>
1000d09a: c7 be e0 3e 00 3f 16 3f      	<unknown>
1000d0a2: c1 be        	<unknown>
1000d0a4: 1a bf        	<unknown>
1000d0a6: 22 bf        	<unknown>
1000d0a8: b7 be d0 3d 1e 3f 8a 3f      	<unknown>
1000d0b0: 41 bf        	<unknown>
1000d0b2: fd be        	<unknown>
1000d0b4: dd bf        	<unknown>
1000d0b6: db be 59 bf b0 be 7a 3d      	<unknown>
1000d0be: ee be        	<unknown>
1000d0c0: 9f bf b8 bf 14 3f 27 3f      	<unknown>
1000d0c8: 0f 40 71 3f f1 3e da be      	<unknown>
1000d0d0: 6e 3f        	<unknown>
1000d0d2: ed be        	<unknown>
1000d0d4: 6a 3d        	<unknown>
1000d0d6: 8c bf        	<unknown>
1000d0d8: 5c 3f        	<unknown>
1000d0da: 4f 3f a4 bf 3d bf 92 be      	<unknown>
1000d0e2: e2 3f        	<unknown>
1000d0e4: 01 c0        	<unknown>
1000d0e6: cf bf d8 be 85 bf 1b bf      	<unknown>
1000d0ee: a5 bf        	<unknown>
1000d0f0: a9 bf        	<unknown>
1000d0f2: ea bd        	<unknown>
1000d0f4: bd bd        	<unknown>
1000d0f6: 90 bf        	<unknown>
1000d0f8: 09 3d        	<unknown>
1000d0fa: 5d 3e        	<unknown>
1000d0fc: 1a 3a        	<unknown>
1000d0fe: ae 3f        	<unknown>
1000d100: ca 3f        	<unknown>
1000d102: 1d bf        	<unknown>
1000d104: 0b 3f e3 bf 30 3d 82 3f      	<unknown>
1000d10c: c3 3f e9 be 4f be 5e 3f      	<unknown>
1000d114: d2 bf        	<unknown>
1000d116: 0a bf        	<unknown>
1000d118: 68 3f        	<unknown>
1000d11a: a6 3f        	<unknown>
1000d11c: 3e c0        	<unknown>
1000d11e: df be 25 bf a2 3f 0c 3f      	<unknown>
1000d126: 03 40 85 3e 9a 3e 7c bf      	<unknown>
1000d12e: 0c 3f        	<unknown>
1000d130: 69 3f        	<unknown>
1000d132: 0c bf        	<unknown>
1000d134: f1 3e        	<unknown>
1000d136: d6 3f        	<unknown>
1000d138: 59 3f        	<unknown>
1000d13a: 00 3f        	<unknown>
1000d13c: 80 be        	<unknown>
1000d13e: 7e bf        	<unknown>
1000d140: 2c 3e        	<unknown>
1000d142: 95 bf        	<unknown>
1000d144: 06 bf        	<unknown>
1000d146: f9 3e        	<unknown>
1000d148: d5 3f        	<unknown>
1000d14a: d5 3f        	<unknown>
1000d14c: d3 be 32 bd a9 3e 2b 3e      	<unknown>
1000d154: ae bf        	<unknown>
1000d156: 94 3e        	<unknown>
1000d158: 9b bf dd bd fe 3e f3 3f      	<unknown>
1000d160: 32 3f        	<unknown>
1000d162: 28 bf        	<unknown>
1000d164: fb 3e c3 bf b0 be 4f bf      	<unknown>
1000d16c: 52 bf        	<unknown>
1000d16e: 11 40        	<unknown>
1000d170: 12 bf        	<unknown>
1000d172: d2 be        	<unknown>
1000d174: 23 be 5f 3e 39 3f 1a 3f      	<unknown>
1000d17c: 95 3f        	<unknown>
1000d17e: 88 bf        	<unknown>
1000d180: 54 bf        	<unknown>
1000d182: 09 3a        	<unknown>
1000d184: ab 3f 80 bd b3 3d c0 bc      	<unknown>
1000d18c: 87 3e 0e 3f 66 be 8a 3f      	<unknown>
1000d194: 99 be        	<unknown>
1000d196: 65 3f        	<unknown>
1000d198: 64 bc        	<unknown>
1000d19a: 88 be        	<unknown>
1000d19c: 88 3f        	<unknown>
1000d19e: 2c 3f        	<unknown>
1000d1a0: 40 3e        	<unknown>
1000d1a2: 1d bf        	<unknown>
1000d1a4: 16 3e        	<unknown>
1000d1a6: 0a c0        	<unknown>
1000d1a8: 9d be        	<unknown>
1000d1aa: ee bf        	<unknown>
1000d1ac: 52 bf        	<unknown>
1000d1ae: b5 3f        	<unknown>
1000d1b0: ef bf 7d bf bb be 62 bf      	<unknown>
1000d1b8: d8 bf        	<unknown>
1000d1ba: 6d be        	<unknown>
1000d1bc: 50 3f        	<unknown>
1000d1be: 58 3f        	<unknown>
1000d1c0: 52 bf        	<unknown>
1000d1c2: 8b bf 38 bf 24 bf 68 bf      	<unknown>
1000d1ca: 98 3e        	<unknown>
1000d1cc: 30 be        	<unknown>
1000d1ce: 0c bf        	<unknown>
1000d1d0: 5e 3f        	<unknown>
1000d1d2: 14 3f        	<unknown>
1000d1d4: 48 be        	<unknown>
1000d1d6: 32 bf        	<unknown>
1000d1d8: 94 3f        	<unknown>
1000d1da: 46 3f        	<unknown>
1000d1dc: 7e 3f        	<unknown>
1000d1de: 46 bf        	<unknown>
1000d1e0: 3c 3f        	<unknown>
1000d1e2: 0f 3e 7d 3e 36 3e 44 3f      	<unknown>
1000d1ea: 6a 3f        	<unknown>
1000d1ec: 8a bf        	<unknown>
1000d1ee: 27 bf 30 bf 8e 3f 2c bf      	<unknown>
1000d1f6: b9 bd        	<unknown>
1000d1f8: 97 3e b9 3d 27 bf 04 c0      	<unknown>
1000d200: d4 3e        	<unknown>
1000d202: e9 3e        	<unknown>
1000d204: 67 bf ec 3e e7 3d 03 bf      	<unknown>
1000d20c: 27 3d 27 3f 27 3f 2a bf      	<unknown>
1000d214: 0c bf        	<unknown>
1000d216: 2b bf 28 be 85 be 5c 3f      	<unknown>
1000d21e: 10 3f        	<unknown>
1000d220: 54 bd        	<unknown>
1000d222: a0 3f        	<unknown>
1000d224: 94 bf        	<unknown>
1000d226: 41 bf        	<unknown>
1000d228: df be 72 3f b2 bf ce 3e      	<unknown>
1000d230: 86 3e        	<unknown>
1000d232: 2a bd        	<unknown>
1000d234: 0f bd 24 3f 20 3e bf be      	<unknown>
1000d23c: 42 c0        	<unknown>
1000d23e: e7 3f c6 3d c5 3e e1 3e      	<unknown>
1000d246: 35 c0        	<unknown>
1000d248: fe 3e        	<unknown>
1000d24a: fe be        	<unknown>
1000d24c: 35 3f        	<unknown>
1000d24e: 80 bf        	<unknown>
1000d250: 87 be dd 3f 5e 3d e2 bf      	<unknown>
1000d258: 53 3f b2 3e eb 3f 45 3f      	<unknown>
1000d260: 2b 3f 41 bf d8 3c 6c bf      	<unknown>
1000d268: 90 3f        	<unknown>
1000d26a: 54 3f        	<unknown>
1000d26c: a0 be        	<unknown>
1000d26e: 6b be 42 bf b4 be 8d 3f      	<unknown>
1000d276: a7 3f 78 3f 88 3f 50 bf      	<unknown>
1000d27e: b0 be        	<unknown>
1000d280: 10 c0        	<unknown>
1000d282: 3b 3f 9b 3d 80 bf 93 be      	<unknown>
1000d28a: 84 bc        	<unknown>
1000d28c: cc 3f        	<unknown>
1000d28e: d2 3f        	<unknown>
1000d290: 4e bf        	<unknown>
1000d292: 3b 3f 01 c0 33 3e a0 3d      	<unknown>
1000d29a: 34 3f        	<unknown>
1000d29c: f8 3f        	<unknown>
1000d29e: 85 be        	<unknown>
1000d2a0: e1 be        	<unknown>
1000d2a2: e1 3f        	<unknown>
1000d2a4: 7a be        	<unknown>
1000d2a6: d9 be        	<unknown>
1000d2a8: 96 3e        	<unknown>
1000d2aa: 84 3e        	<unknown>
1000d2ac: 0e 3f        	<unknown>
1000d2ae: a3 3f e4 bd 9d 3e 46 bf      	<unknown>
1000d2b6: 02 3f        	<unknown>
1000d2b8: d7 3d a9 bf 97 3f 8f bf      	<unknown>
1000d2c0: 09 3f        	<unknown>
1000d2c2: e9 3f        	<unknown>
1000d2c4: 0f bf 2b bf 23 bf 87 bf      	<unknown>
1000d2cc: 8e be        	<unknown>
1000d2ce: a5 3f        	<unknown>
1000d2d0: be 3d        	<unknown>
1000d2d2: 94 be        	<unknown>
1000d2d4: 9c bf        	<unknown>
1000d2d6: a0 3e        	<unknown>
1000d2d8: 66 bf        	<unknown>
1000d2da: 94 3f        	<unknown>
1000d2dc: 0f be 43 bf 56 bf c1 bf      	<unknown>
1000d2e4: 0d be        	<unknown>
1000d2e6: 93 be 95 be 9b 3f d4 3f      	<unknown>
1000d2ee: 65 3f        	<unknown>
1000d2f0: 25 3f        	<unknown>
1000d2f2: a0 3e        	<unknown>
1000d2f4: 41 bf        	<unknown>
1000d2f6: ba 3f        	<unknown>
1000d2f8: 55 bf        	<unknown>
1000d2fa: ab 3f 12 c0 7c 3e 38 3f      	<unknown>
1000d302: a2 3e        	<unknown>
1000d304: c6 3e        	<unknown>
1000d306: af be 90 bf 80 bf 9a 3f      	<unknown>
1000d30e: f0 3e        	<unknown>
1000d310: 43 bf 9b bf 71 3f b2 3f      	<unknown>
1000d318: 9c be        	<unknown>
1000d31a: 95 3f        	<unknown>
1000d31c: aa 3f        	<unknown>
1000d31e: e5 bf        	<unknown>
1000d320: f7 be 80 bf 39 3e 84 3f      	<unknown>
1000d328: 18 be        	<unknown>
1000d32a: fd 3d        	<unknown>
1000d32c: 33 bf 14 c0 dd 3f 0b c0      	<unknown>
1000d334: 0c 3f        	<unknown>
1000d336: 99 be        	<unknown>
1000d338: 74 be        	<unknown>
1000d33a: a1 bc        	<unknown>
1000d33c: 65 3f        	<unknown>
1000d33e: 38 be        	<unknown>
1000d340: 14 be        	<unknown>
1000d342: 33 bf 42 bf 62 bd f0 be      	<unknown>
1000d34a: 30 3e        	<unknown>
1000d34c: 06 be        	<unknown>
1000d34e: 08 3e        	<unknown>
1000d350: a8 3e        	<unknown>
1000d352: 92 be        	<unknown>
1000d354: 15 3d        	<unknown>
1000d356: a2 3e        	<unknown>
1000d358: a2 be        	<unknown>
1000d35a: 41 3d        	<unknown>
1000d35c: a3 bd a6 3f 8b bf e9 3c      	<unknown>
1000d364: 8a bf        	<unknown>
1000d366: 4f 3f b3 bf 0a 3f 30 3e      	<unknown>
1000d36e: 9f bf d2 3f 98 3f 1c bf      	<unknown>
1000d376: a3 3d ab bf 33 be 28 bf      	<unknown>
1000d37e: d1 bf        	<unknown>
1000d380: 66 be        	<unknown>
1000d382: cd be        	<unknown>
1000d384: fe be        	<unknown>
1000d386: 01 3f        	<unknown>
1000d388: 38 bf        	<unknown>
1000d38a: d3 3f f2 3d 6c 3e 95 3d      	<unknown>
1000d392: a2 bf        	<unknown>
1000d394: 86 3f        	<unknown>
1000d396: a4 3e        	<unknown>
1000d398: b9 3f        	<unknown>
1000d39a: 94 3f        	<unknown>
1000d39c: 2d 3f        	<unknown>
1000d39e: df bf 68 bf 19 bf 09 bf      	<unknown>
1000d3a6: 67 bf 8d bf 09 3f b4 bf      	<unknown>
1000d3ae: 6e be        	<unknown>
1000d3b0: 41 3e        	<unknown>
1000d3b2: 28 3e        	<unknown>
1000d3b4: 6e bf        	<unknown>
1000d3b6: 22 3e        	<unknown>
1000d3b8: 8c bf        	<unknown>
1000d3ba: f9 3e        	<unknown>
1000d3bc: 00 bf        	<unknown>
1000d3be: ab 3f f8 be 78 3f a9 3d      	<unknown>
1000d3c6: 84 be        	<unknown>
1000d3c8: c5 3e        	<unknown>
1000d3ca: 14 bf        	<unknown>
1000d3cc: 1c bf        	<unknown>
1000d3ce: 75 bf        	<unknown>
1000d3d0: 57 bf aa bf 02 3d 22 40      	<unknown>
1000d3d8: bc bf        	<unknown>
1000d3da: 80 3f        	<unknown>
1000d3dc: 5c bf        	<unknown>
1000d3de: 10 3f        	<unknown>
1000d3e0: 8d 3f        	<unknown>
1000d3e2: 6c be        	<unknown>
1000d3e4: f2 bf        	<unknown>
1000d3e6: 00 00        	<unknown>
1000d3e8: 40 3f        	<unknown>
1000d3ea: 95 3f        	<unknown>
1000d3ec: 98 be        	<unknown>
1000d3ee: a9 3f        	<unknown>
1000d3f0: f9 3f        	<unknown>
1000d3f2: 6d bf        	<unknown>
1000d3f4: 1a 3e        	<unknown>
1000d3f6: 00 00        	<unknown>
1000d3f8: e4 3e        	<unknown>
1000d3fa: 8e 3f        	<unknown>
1000d3fc: ba 3d        	<unknown>
1000d3fe: bb 3f 53 3f 0c 3f 37 bf      	<unknown>
1000d406: 3d 3e        	<unknown>
1000d408: 3d 3f        	<unknown>
1000d40a: 5b be 5e bf 94 3f f2 bf      	<unknown>
1000d412: 73 be a5 3e 90 bf e0 3d      	<unknown>
1000d41a: 02 bf        	<unknown>
1000d41c: 44 be        	<unknown>
1000d41e: 72 3f        	<unknown>
1000d420: 08 bf        	<unknown>
1000d422: 9e 3f        	<unknown>
1000d424: 98 3f        	<unknown>
1000d426: 70 3a        	<unknown>
1000d428: 49 3e        	<unknown>
1000d42a: 88 be        	<unknown>
1000d42c: 82 bf        	<unknown>
1000d42e: 14 40        	<unknown>
1000d430: 28 bf        	<unknown>
1000d432: 81 3f        	<unknown>
1000d434: b1 be        	<unknown>
1000d436: f2 3f        	<unknown>
1000d438: 40 bf        	<unknown>
1000d43a: d0 3c        	<unknown>
1000d43c: a7 be a2 bf bb 3d 0c bf      	<unknown>
1000d444: d3 3f c9 be 2d 3f 25 be      	<unknown>
1000d44c: 07 3e eb 3e af bd aa 3f      	<unknown>
1000d454: 09 bf        	<unknown>
1000d456: 53 3f f1 3f eb bf 9f bd      	<unknown>
1000d45e: 77 bf 81 3d d7 3e 2f bf      	<unknown>
1000d466: 6d be        	<unknown>
1000d468: f6 be        	<unknown>
1000d46a: 45 3d        	<unknown>
1000d46c: 12 be        	<unknown>
1000d46e: 24 3e        	<unknown>
1000d470: f4 be        	<unknown>
1000d472: b0 3e        	<unknown>
1000d474: b4 3c        	<unknown>
1000d476: ce be        	<unknown>
1000d478: 77 3f 82 3f 15 3f 1c bf      	<unknown>
1000d480: 87 bf fc bf a4 bf 12 3e      	<unknown>
1000d488: 58 3f        	<unknown>
1000d48a: 87 3f 13 3d 08 40 24 bf      	<unknown>
1000d492: c1 3d        	<unknown>
1000d494: d2 3f        	<unknown>
1000d496: 52 3f        	<unknown>
1000d498: f4 3e        	<unknown>
1000d49a: 7d bf        	<unknown>
1000d49c: 01 3f        	<unknown>
1000d49e: 96 bf        	<unknown>
1000d4a0: fa 3e        	<unknown>
1000d4a2: a4 3e        	<unknown>
1000d4a4: 60 3f        	<unknown>
1000d4a6: 7a bf        	<unknown>
1000d4a8: 91 be        	<unknown>
1000d4aa: bb 3f 98 3f 9c 3e aa be      	<unknown>
1000d4b2: 86 3f        	<unknown>
1000d4b4: 0e 3f        	<unknown>
1000d4b6: 0f 3e b8 3f 14 40 1b bf      	<unknown>
1000d4be: 3e 40        	<unknown>
1000d4c0: 23 3f 16 3f 0c bf 8e 3f      	<unknown>
1000d4c8: 89 bd        	<unknown>
1000d4ca: c5 3f        	<unknown>
1000d4cc: e8 3e        	<unknown>
1000d4ce: 38 40        	<unknown>
1000d4d0: 00 00        	<unknown>
1000d4d2: 92 bf        	<unknown>
1000d4d4: 9e bd        	<unknown>
1000d4d6: a0 bf        	<unknown>
1000d4d8: 74 3f        	<unknown>
1000d4da: bc 3f        	<unknown>
1000d4dc: c8 3e        	<unknown>
1000d4de: 98 3f        	<unknown>
1000d4e0: bd 3e        	<unknown>
1000d4e2: ec be        	<unknown>
1000d4e4: bd 3f        	<unknown>
1000d4e6: 79 bc        	<unknown>
1000d4e8: f7 3f a7 3f 98 3e 5a bf      	<unknown>
1000d4f0: d4 3f        	<unknown>
1000d4f2: 16 3d        	<unknown>
1000d4f4: 26 40        	<unknown>
1000d4f6: 5e 3e        	<unknown>
1000d4f8: 84 3f        	<unknown>
1000d4fa: d7 bf 22 bc 42 3e 7a 3f      	<unknown>
1000d502: 88 be        	<unknown>
1000d504: 8a be        	<unknown>
1000d506: ef 3e ec bf d2 3f 6e 3f      	<unknown>
1000d50e: b8 3f        	<unknown>
1000d510: dc 3f        	<unknown>
1000d512: 52 be        	<unknown>
1000d514: 4e 3e        	<unknown>
1000d516: 3b bf 77 bf 57 be 17 3f      	<unknown>
1000d51e: cb 3f 99 be 23 3f 5e be      	<unknown>
1000d526: c2 3e        	<unknown>
1000d528: f7 be ed 3e 1c bf 0a 40      	<unknown>
1000d530: d8 be        	<unknown>
1000d532: d9 3e        	<unknown>
1000d534: ba 3e        	<unknown>
1000d536: 2c 3e        	<unknown>
1000d538: c3 bf 23 bf 00 be 88 3e      	<unknown>
1000d540: c2 bf        	<unknown>
1000d542: 1f be d0 3e 15 3f 14 3e      	<unknown>
1000d54a: b9 3e        	<unknown>
1000d54c: ac bd        	<unknown>
1000d54e: 83 bf af bf 64 3f 2d 40      	<unknown>
1000d556: 29 bf        	<unknown>
1000d558: 78 3e        	<unknown>
1000d55a: 27 bf f7 3e 36 bf 0f c0      	<unknown>
1000d562: 28 bf        	<unknown>
1000d564: 0a 3f        	<unknown>
1000d566: 53 3f 4f be be 3f 33 3f      	<unknown>
1000d56e: c3 bf 32 be 4e 3e 78 bf      	<unknown>
1000d576: a7 be d0 3e 72 be 65 3f      	<unknown>
1000d57e: ce bf        	<unknown>
1000d580: 9b bf 78 3f 5d bf 48 3e      	<unknown>
1000d588: 72 bf        	<unknown>
1000d58a: 7e 3f        	<unknown>
1000d58c: 25 bf        	<unknown>
1000d58e: 81 bd        	<unknown>
1000d590: 8c 3f        	<unknown>
1000d592: cd 3e        	<unknown>
1000d594: de bf        	<unknown>
1000d596: 08 be        	<unknown>
1000d598: ab bf 85 3f 1f 3f 2f 40      	<unknown>
1000d5a0: 38 3e        	<unknown>
1000d5a2: 05 3f        	<unknown>
1000d5a4: 64 3d        	<unknown>
1000d5a6: da 3e        	<unknown>
1000d5a8: d3 bc 74 3f 89 bf 58 3f      	<unknown>
1000d5b0: e0 3f        	<unknown>
1000d5b2: 41 bf        	<unknown>
1000d5b4: 48 3f        	<unknown>
1000d5b6: fe bd        	<unknown>
1000d5b8: 5d be        	<unknown>
1000d5ba: 5b be 3f 3e 4e c0 f8 3e      	<unknown>
1000d5c2: 8d bf        	<unknown>
1000d5c4: 13 40 f0 be 88 3f 75 bf      	<unknown>
1000d5cc: 86 3f        	<unknown>
1000d5ce: 09 3c        	<unknown>
1000d5d0: 93 3d 04 40 a6 3f d6 3d      	<unknown>
1000d5d8: 54 3f        	<unknown>
1000d5da: 37 bf c3 bf a9 bf 83 bf      	<unknown>
1000d5e2: 86 3f        	<unknown>
1000d5e4: 2f bf 09 3e 6f 3e 84 3f      	<unknown>
1000d5ec: 5b 3f e2 bf 8e be 13 bf      	<unknown>
1000d5f4: 01 bd        	<unknown>
1000d5f6: 0b 3f eb 3c ea 3e 0c be      	<unknown>
1000d5fe: 10 3e        	<unknown>
1000d600: 22 bf        	<unknown>
1000d602: 9a 3f        	<unknown>
1000d604: 5a bf        	<unknown>
1000d606: 11 bf        	<unknown>
1000d608: 84 3f        	<unknown>
1000d60a: 01 bf        	<unknown>
1000d60c: 6a 3f        	<unknown>
1000d60e: ff be 12 3f b7 3d 58 3a      	<unknown>
1000d616: 29 3f        	<unknown>
1000d618: f7 3f 6f bf 01 bf 83 3c      	<unknown>
1000d620: 84 3f        	<unknown>
1000d622: c7 3f 1a 40 00 00 a6 3e      	<unknown>
1000d62a: 07 3d 1f 3f b1 3f bd be      	<unknown>
1000d632: 02 bf        	<unknown>
1000d634: fd bf        	<unknown>
1000d636: 00 00        	<unknown>
1000d638: 3b 3e b0 3f 34 bf 88 be      	<unknown>
1000d640: 64 3f        	<unknown>
1000d642: 98 3f        	<unknown>
1000d644: fe 3e        	<unknown>
1000d646: fd be        	<unknown>
1000d648: 81 bf        	<unknown>
1000d64a: ce 3e        	<unknown>
1000d64c: 04 c0        	<unknown>
1000d64e: 4b bf e8 be 07 3f 8b be      	<unknown>
1000d656: e0 bf        	<unknown>
1000d658: 1d bf        	<unknown>
1000d65a: 9c bf        	<unknown>
1000d65c: 3d 3f        	<unknown>
1000d65e: dd bf        	<unknown>
1000d660: d7 3f 93 be 93 3f 19 40      	<unknown>
1000d668: 14 bf        	<unknown>
1000d66a: c4 bf        	<unknown>
1000d66c: 3d bf        	<unknown>
1000d66e: fc bd        	<unknown>
1000d670: 2a 3e        	<unknown>
1000d672: 96 bd        	<unknown>
1000d674: e8 be        	<unknown>
1000d676: 1f be a6 bd c8 3e af bf      	<unknown>
1000d67e: 20 3f        	<unknown>
1000d680: 9c 3f        	<unknown>
1000d682: b1 3f        	<unknown>
1000d684: df bf eb bf 93 be cb bd      	<unknown>
1000d68c: c8 bf        	<unknown>
1000d68e: 98 be        	<unknown>
1000d690: 47 be 89 bf b7 3f 8a 3f      	<unknown>
1000d698: 80 be        	<unknown>
1000d69a: 9c bd        	<unknown>
1000d69c: 33 bf fc bf d3 be 1b bf      	<unknown>
1000d6a4: 16 be        	<unknown>
1000d6a6: 6a bf        	<unknown>
1000d6a8: 18 be        	<unknown>
1000d6aa: 54 3f        	<unknown>
1000d6ac: d5 bc        	<unknown>
1000d6ae: d2 be        	<unknown>
1000d6b0: 97 bf 74 be 4d bf 91 bd      	<unknown>
1000d6b8: 1c 3d        	<unknown>
1000d6ba: 2e bf        	<unknown>
1000d6bc: 97 be 15 bf 8f bf 5b 3f      	<unknown>
1000d6c4: 50 bf        	<unknown>
1000d6c6: 10 bf        	<unknown>
1000d6c8: 11 3f        	<unknown>
1000d6ca: 2e 3f        	<unknown>
1000d6cc: de 3f        	<unknown>
1000d6ce: 8e bf        	<unknown>
1000d6d0: 3a 40        	<unknown>
1000d6d2: d8 3f        	<unknown>
1000d6d4: 8e 3f        	<unknown>
1000d6d6: bb 3f 08 bf 3f 3e c7 be      	<unknown>
1000d6de: 0d be        	<unknown>
1000d6e0: 11 3e        	<unknown>
1000d6e2: 3b 3f 18 3f 37 3f d1 be      	<unknown>
1000d6ea: e7 3e 96 3f 60 3f b0 3f      	<unknown>
1000d6f2: b7 3f 03 3f e9 bd a1 be      	<unknown>
1000d6fa: a8 be        	<unknown>
1000d6fc: 6b 3f 41 3f 90 3f f0 be      	<unknown>
1000d704: 17 3f a5 be 80 3f bc 3d      	<unknown>
1000d70c: 62 3e        	<unknown>
1000d70e: c1 bf        	<unknown>
1000d710: 94 be        	<unknown>
1000d712: 2a 3f        	<unknown>
1000d714: 17 3f 6c bf c0 3f 0f bf      	<unknown>
1000d71c: 4c 3e        	<unknown>
1000d71e: 6b bf 8d bf 21 bf 5e bc      	<unknown>
1000d726: 08 3e        	<unknown>
1000d728: 87 bf 30 bf a6 3d a2 bf      	<unknown>
1000d730: ac 3e        	<unknown>
1000d732: 0c bf        	<unknown>
1000d734: 0b bf ef 3f ac 3f 9e 3e      	<unknown>
1000d73c: 22 be        	<unknown>
1000d73e: 5b 3f 39 3e e1 3e 09 3f      	<unknown>
1000d746: b0 3e        	<unknown>
1000d748: a5 3f        	<unknown>
1000d74a: c5 3e        	<unknown>
1000d74c: 11 3e        	<unknown>
1000d74e: d9 bf        	<unknown>
1000d750: 69 3f        	<unknown>
1000d752: 12 be        	<unknown>
1000d754: 1f 3f c0 bf c7 bf 60 3f      	<unknown>
1000d75c: b0 3e        	<unknown>
1000d75e: c1 3e        	<unknown>
1000d760: dc 3f        	<unknown>
1000d762: 4b bf 2d 3e 3c 3f 3a bf      	<unknown>
1000d76a: e3 3e 20 3f 0c 3f 59 3e      	<unknown>
1000d772: 44 3f        	<unknown>
1000d774: 42 3f        	<unknown>
1000d776: 62 bf        	<unknown>
1000d778: ca bf        	<unknown>
1000d77a: 1a 3f        	<unknown>
1000d77c: d0 3f        	<unknown>
1000d77e: df 3d 53 bf cf bf 2f 3f      	<unknown>
1000d786: 14 bf        	<unknown>
1000d788: ad 3e        	<unknown>
1000d78a: ce bf        	<unknown>
1000d78c: fd 3e        	<unknown>
1000d78e: 45 3d        	<unknown>
1000d790: 4a bf        	<unknown>
1000d792: d3 be ba 3e f3 3e f9 3d      	<unknown>
1000d79a: ab 3e cf 3f 96 be 95 bf      	<unknown>
1000d7a2: 99 3f        	<unknown>
1000d7a4: 54 be        	<unknown>
1000d7a6: 89 3f        	<unknown>
1000d7a8: 04 3f        	<unknown>
1000d7aa: e4 bf        	<unknown>
1000d7ac: 7a bc        	<unknown>
1000d7ae: 0e be        	<unknown>
1000d7b0: 3b bf 43 be 88 3e 23 3e      	<unknown>
1000d7b8: 11 c0        	<unknown>
1000d7ba: bd 3e        	<unknown>
1000d7bc: 2a 3f        	<unknown>
1000d7be: ff 3e 31 3d c2 3e a7 3d      	<unknown>
1000d7c6: b2 bd        	<unknown>
1000d7c8: f5 be        	<unknown>
1000d7ca: fe 3e        	<unknown>
1000d7cc: a1 bf        	<unknown>
1000d7ce: b6 3f        	<unknown>
1000d7d0: 6a 3f        	<unknown>
1000d7d2: 38 c0        	<unknown>
1000d7d4: dd 3f        	<unknown>
1000d7d6: 13 bf c8 3f 71 3e a0 3a      	<unknown>
1000d7de: 0f 3d c7 3f 00 be 49 bf      	<unknown>
1000d7e6: 7a bf        	<unknown>
1000d7e8: 84 3f        	<unknown>
1000d7ea: 88 3f        	<unknown>
1000d7ec: ae bc        	<unknown>
1000d7ee: 83 be 87 bf e5 3f ff 3e      	<unknown>
1000d7f6: e0 be        	<unknown>
1000d7f8: 02 3e        	<unknown>
1000d7fa: 49 3f        	<unknown>
1000d7fc: 5a bf        	<unknown>
1000d7fe: 49 be        	<unknown>
1000d800: 03 40 95 3f 81 bf 3b 3e      	<unknown>
1000d808: cc 3e        	<unknown>
1000d80a: f5 3e        	<unknown>
1000d80c: 31 bf        	<unknown>
1000d80e: 14 3f        	<unknown>
1000d810: 68 3f        	<unknown>
1000d812: fb bf 89 3f 88 be f5 be      	<unknown>
1000d81a: b9 bf        	<unknown>
1000d81c: f5 bd        	<unknown>
1000d81e: da 3e        	<unknown>
1000d820: 93 bd 82 be f5 3e c0 3f      	<unknown>
1000d828: fc bf        	<unknown>
1000d82a: a1 be        	<unknown>
1000d82c: 6c bf        	<unknown>
1000d82e: 29 40        	<unknown>
1000d830: ba 3e        	<unknown>
1000d832: d7 bf bf 3e 63 3e ae be      	<unknown>
1000d83a: 8e bf        	<unknown>
1000d83c: 53 3e 02 bf e7 be 53 be      	<unknown>
1000d844: 1f be f1 bd 1c 3f a6 bf      	<unknown>
1000d84c: 95 bd        	<unknown>
1000d84e: f9 bf        	<unknown>
1000d850: ce 3d        	<unknown>
1000d852: 91 bf        	<unknown>
1000d854: e2 bf        	<unknown>
1000d856: 0c bf        	<unknown>
1000d858: 3b bf 50 bf cc be dc be      	<unknown>
1000d860: 60 bf        	<unknown>
1000d862: 1f 3f 70 be de bf 0f 3f      	<unknown>
1000d86a: 10 bf        	<unknown>
1000d86c: 59 3e        	<unknown>
1000d86e: 8a 3f        	<unknown>
1000d870: 4a bf        	<unknown>
1000d872: 4c 3f        	<unknown>
1000d874: a4 bf        	<unknown>
1000d876: aa 3d        	<unknown>
1000d878: b5 be        	<unknown>
1000d87a: 8f bd d7 3f 2c c0 b5 bf      	<unknown>
1000d882: 47 bf 99 be 7e 3f 64 3f      	<unknown>
1000d88a: 16 bf        	<unknown>
1000d88c: 9f be 9a 3e ad bf b9 3f      	<unknown>
1000d894: d2 3e        	<unknown>
1000d896: b4 3f        	<unknown>
1000d898: 84 be        	<unknown>
1000d89a: d7 bf a1 3f d1 3e 47 bf      	<unknown>
1000d8a2: 8e bf        	<unknown>
1000d8a4: f1 be        	<unknown>
1000d8a6: a2 be        	<unknown>
1000d8a8: d6 3f        	<unknown>
1000d8aa: 9f 3d 65 bf 6b bf cb 3d      	<unknown>
1000d8b2: 9a be        	<unknown>
1000d8b4: a9 3e        	<unknown>
1000d8b6: 91 3f        	<unknown>
1000d8b8: 39 bf        	<unknown>
1000d8ba: a0 3e        	<unknown>
1000d8bc: 8d bf        	<unknown>
1000d8be: f7 3f df 3f b6 bf a6 3f      	<unknown>
1000d8c6: b4 3f        	<unknown>
1000d8c8: 0e 3f        	<unknown>
1000d8ca: ca be        	<unknown>
1000d8cc: 56 bf        	<unknown>
1000d8ce: 7e bf        	<unknown>
1000d8d0: b1 3e        	<unknown>
1000d8d2: 22 bf        	<unknown>
1000d8d4: 10 bf        	<unknown>
1000d8d6: 46 bf        	<unknown>
1000d8d8: 2b bf 8c be 69 3f 01 3e      	<unknown>
1000d8e0: 75 3f        	<unknown>
1000d8e2: cf bf 68 3f f8 3f 3d 3e      	<unknown>
1000d8ea: 81 bd        	<unknown>
1000d8ec: bf 3f 9a 3e 95 3e 49 bd      	<unknown>
1000d8f4: 35 3f        	<unknown>
1000d8f6: f8 3e        	<unknown>
1000d8f8: 2b c0 38 bf 1e 3f 71 3e      	<unknown>
1000d900: 8e bf        	<unknown>
1000d902: 5f 3e 00 00 e5 bd 28 3f      	<unknown>
1000d90a: 39 bf        	<unknown>
1000d90c: 33 3f 29 40 ad 3e ed bb      	<unknown>
1000d914: 00 00        	<unknown>
1000d916: 54 be        	<unknown>
1000d918: 97 bf 92 3e 38 be b4 bd      	<unknown>
1000d920: d4 3f        	<unknown>
1000d922: 83 bf 43 bf 92 be 02 c0      	<unknown>
1000d92a: 77 bf 40 bf 32 bf 0b 3f      	<unknown>
1000d932: a8 be        	<unknown>
1000d934: 9d bf        	<unknown>
1000d936: b9 3f        	<unknown>
1000d938: 92 be        	<unknown>
1000d93a: 87 3f 6a be 21 3f 83 3f      	<unknown>
1000d942: dc bf        	<unknown>
1000d944: 9b 3e 4a 3e 13 bf 7f bf      	<unknown>
1000d94c: 9a 3f        	<unknown>
1000d94e: 3d be        	<unknown>
1000d950: 1d 3f        	<unknown>
1000d952: a9 3f        	<unknown>
1000d954: 45 3e        	<unknown>
1000d956: cf bc a9 3d 9e bf 29 bf      	<unknown>
1000d95e: c6 bf        	<unknown>
1000d960: a9 3e        	<unknown>
1000d962: dd 3f        	<unknown>
1000d964: 9e 3e        	<unknown>
1000d966: 5a bf        	<unknown>
1000d968: 3e bf        	<unknown>
1000d96a: bd 3e        	<unknown>
1000d96c: 29 bf        	<unknown>
1000d96e: 67 bd d8 3e 00 00 97 bf      	<unknown>
1000d976: ad 3e        	<unknown>
1000d978: c9 3e        	<unknown>
1000d97a: 15 3d        	<unknown>
1000d97c: 33 3f 24 bf 21 3f a3 3d      	<unknown>
1000d984: 6e be        	<unknown>
1000d986: 9d 3e        	<unknown>
1000d988: 64 bf        	<unknown>
1000d98a: 0c c0        	<unknown>
1000d98c: a2 3e        	<unknown>
1000d98e: c8 3e        	<unknown>
1000d990: 7d 3f        	<unknown>
1000d992: 8a be        	<unknown>
1000d994: dd be        	<unknown>
1000d996: 6d 3f        	<unknown>
1000d998: 01 3f        	<unknown>
1000d99a: 65 bf        	<unknown>
1000d99c: 79 bd        	<unknown>
1000d99e: cf bc 1a c0 04 3f 50 be      	<unknown>
1000d9a6: b6 3f        	<unknown>
1000d9a8: 8d 3e        	<unknown>
1000d9aa: 12 3f        	<unknown>
1000d9ac: 99 be        	<unknown>
1000d9ae: 07 bf 19 3b ac 3f 89 be      	<unknown>
1000d9b6: bd bd        	<unknown>
1000d9b8: 87 bf 88 3f 19 40 b6 3e      	<unknown>
1000d9c0: b3 bf a9 3e a6 3e 43 be      	<unknown>
1000d9c8: 98 3d        	<unknown>
1000d9ca: 77 3f 42 bf a0 3e ec bf      	<unknown>
1000d9d2: 12 be        	<unknown>
1000d9d4: 1d 3e        	<unknown>
1000d9d6: 55 3e        	<unknown>
1000d9d8: 3e be        	<unknown>
1000d9da: 6c 3f        	<unknown>
1000d9dc: a8 bf        	<unknown>
1000d9de: 36 3f        	<unknown>
1000d9e0: bd be        	<unknown>
1000d9e2: bd bf        	<unknown>
1000d9e4: 28 bf        	<unknown>
1000d9e6: 3e 3f        	<unknown>
1000d9e8: 1a 3f        	<unknown>
1000d9ea: 96 be        	<unknown>
1000d9ec: 81 3d        	<unknown>
1000d9ee: 0e bf        	<unknown>
1000d9f0: 3f be b5 bf 71 3e be 3e      	<unknown>
1000d9f8: 5b 3f d4 be 62 3f 0a 3f      	<unknown>
1000da00: d8 3e        	<unknown>
1000da02: 12 c0        	<unknown>
1000da04: 5b bf c9 3f fe bf ea 3d      	<unknown>
1000da0c: 7a 3f        	<unknown>
1000da0e: 4c 3f        	<unknown>
1000da10: b7 bf 6f bf 05 40 d0 bd      	<unknown>
1000da18: 8f be 91 bf f6 3f b9 bf      	<unknown>
1000da20: 2e c0        	<unknown>
1000da22: ae bf        	<unknown>
1000da24: 57 bf 6b bf b5 3f 93 3f      	<unknown>
1000da2c: 62 3f        	<unknown>
1000da2e: 04 bd        	<unknown>
1000da30: c4 be        	<unknown>
1000da32: 90 3e        	<unknown>
1000da34: 1e bd        	<unknown>
1000da36: 30 bf        	<unknown>
1000da38: 2a bf        	<unknown>
1000da3a: 4f 3f 95 3e a6 bf 7a be      	<unknown>
1000da42: 3d 3f        	<unknown>
1000da44: 83 3e e9 3e b8 3f c6 3e      	<unknown>
1000da4c: 1d be        	<unknown>
1000da4e: 8d bf        	<unknown>
1000da50: fa 3f        	<unknown>
1000da52: f0 bd        	<unknown>
1000da54: 2a 3f        	<unknown>
1000da56: a4 3e        	<unknown>
1000da58: e0 3e        	<unknown>
1000da5a: a2 3f        	<unknown>
1000da5c: 83 3f 1a c0 3e 40 27 3f      	<unknown>
1000da64: 3d 3f        	<unknown>
1000da66: a2 be        	<unknown>
1000da68: 2f be a3 3f 62 3f 1f 3e      	<unknown>
1000da70: 45 be        	<unknown>
1000da72: 01 bf        	<unknown>
1000da74: 80 3f        	<unknown>
1000da76: 40 bf        	<unknown>
1000da78: f9 bf        	<unknown>
1000da7a: 41 3e        	<unknown>
1000da7c: c3 be 72 bf 8f 3f 39 3d      	<unknown>
1000da84: 2c bf        	<unknown>
1000da86: aa bf        	<unknown>
1000da88: be bf        	<unknown>
1000da8a: 0c bf        	<unknown>
1000da8c: ab 3e d8 3e 00 00 9c bd      	<unknown>
1000da94: 55 bf        	<unknown>
1000da96: 7d bf        	<unknown>
1000da98: 47 bf 83 3f 78 be ef 3e      	<unknown>
1000daa0: 33 3f 01 bf 20 bf 86 3d      	<unknown>
1000daa8: 05 3f        	<unknown>
1000daaa: da 3f        	<unknown>
1000daac: c7 bd ce 3e 12 40 70 3f      	<unknown>
1000dab4: c9 be        	<unknown>
1000dab6: b1 3f        	<unknown>
1000dab8: a2 3f        	<unknown>
1000daba: 9e bf        	<unknown>
1000dabc: 50 bf        	<unknown>
1000dabe: 35 3f        	<unknown>
1000dac0: 96 3f        	<unknown>
1000dac2: 5a 3f        	<unknown>
1000dac4: c7 be 10 bf 19 40 29 3e      	<unknown>
1000dacc: ad 3f        	<unknown>
1000dace: 0d 3e        	<unknown>
1000dad0: 68 bf        	<unknown>
1000dad2: 70 3f        	<unknown>
1000dad4: 27 40 68 bf 9c bf 58 3e      	<unknown>
1000dadc: 4d 3e        	<unknown>
1000dade: 6b 3f 39 3f 09 be 55 3f      	<unknown>
1000dae6: 58 bf        	<unknown>
1000dae8: 46 be        	<unknown>
1000daea: ce 3e        	<unknown>
1000daec: 47 bf 36 bf 09 3f 9b 3d      	<unknown>
1000daf4: e2 bc        	<unknown>
1000daf6: 03 40 66 be a8 3f b2 be      	<unknown>
1000dafe: dd 3f        	<unknown>
1000db00: c8 3e        	<unknown>
1000db02: 77 bf a5 3f e0 bf 4b bf      	<unknown>
1000db0a: 28 3f        	<unknown>
1000db0c: 76 bf        	<unknown>
1000db0e: a2 3f        	<unknown>
1000db10: 97 3f 21 40 81 3f 27 be      	<unknown>
1000db18: 17 3f 97 bf 2c 3f 00 bf      	<unknown>
1000db20: b5 3f        	<unknown>
1000db22: 5b 3e 0e 40 03 c0 a7 3e      	<unknown>
1000db2a: 73 bf 71 be 71 bf 2a bf      	<unknown>
1000db32: c1 3e        	<unknown>
1000db34: a9 3e        	<unknown>
1000db36: 28 bf        	<unknown>
1000db38: 7c bf        	<unknown>
1000db3a: d9 be        	<unknown>
1000db3c: b5 be        	<unknown>
1000db3e: 99 3d        	<unknown>
1000db40: 3f 3f 09 3f 52 3e 7c bf      	<unknown>
1000db48: e9 3c        	<unknown>
1000db4a: b4 be        	<unknown>
1000db4c: 96 3f        	<unknown>
1000db4e: b7 bf ee bf cf 3f a5 be      	<unknown>
1000db56: 09 c0        	<unknown>
1000db58: 98 3f        	<unknown>
1000db5a: a2 be        	<unknown>
1000db5c: c6 3e        	<unknown>
1000db5e: dc 3f        	<unknown>
1000db60: bb bf 9c bf 6c 3d ae 3f      	<unknown>
1000db68: 94 3f        	<unknown>
1000db6a: 40 3e        	<unknown>
1000db6c: 32 be        	<unknown>
1000db6e: 27 3e be be bf 3e 1a 40      	<unknown>
1000db76: 25 3f        	<unknown>
1000db78: 74 bf        	<unknown>
1000db7a: 75 bf        	<unknown>
1000db7c: 1f 3d 8b 3f dc bf 77 bf      	<unknown>
1000db84: e3 bd ba bd 8c 3f 24 bf      	<unknown>
1000db8c: 68 bf        	<unknown>
1000db8e: 69 be        	<unknown>
1000db90: c2 be        	<unknown>
1000db92: 07 c0 a1 bf 98 3e 58 bf      	<unknown>
1000db9a: 0f bf ec 3e 50 3f cd bf      	<unknown>
1000dba2: f5 3f        	<unknown>
1000dba4: 89 3f        	<unknown>
1000dba6: 00 3f        	<unknown>
1000dba8: 2e 3f        	<unknown>
1000dbaa: d5 bf        	<unknown>
1000dbac: 91 bf        	<unknown>
1000dbae: be bf        	<unknown>
1000dbb0: ca bf        	<unknown>
1000dbb2: 87 bf 8e bd a0 bf 7a be      	<unknown>
1000dbba: 0a 3f        	<unknown>
1000dbbc: 19 3f        	<unknown>
1000dbbe: 09 3f        	<unknown>
1000dbc0: 88 3f        	<unknown>
1000dbc2: 3c be        	<unknown>
1000dbc4: 9d be        	<unknown>
1000dbc6: b3 3d 83 be 5a 3f bf 3f      	<unknown>
1000dbce: dc bf        	<unknown>
1000dbd0: 2e be        	<unknown>
1000dbd2: 70 3e        	<unknown>
1000dbd4: 26 3e        	<unknown>
1000dbd6: e3 be a7 3e 83 bf 8a bf      	<unknown>
1000dbde: 7a 3f        	<unknown>
1000dbe0: 98 3e        	<unknown>
1000dbe2: fa 3e        	<unknown>
1000dbe4: 0e bf        	<unknown>
1000dbe6: 51 bf        	<unknown>
1000dbe8: ae bf        	<unknown>
1000dbea: a2 3a        	<unknown>
1000dbec: 7e 3f        	<unknown>
1000dbee: 8c bf        	<unknown>
1000dbf0: 79 3f        	<unknown>
1000dbf2: 5c 3f        	<unknown>
1000dbf4: a2 3f        	<unknown>
1000dbf6: 15 c0        	<unknown>
1000dbf8: 0e bf        	<unknown>
1000dbfa: 23 40 3c 3f 41 be 9b 3e      	<unknown>
1000dc02: 3a 3f        	<unknown>
1000dc04: ba 3f        	<unknown>
1000dc06: 43 bf b6 be 43 3f a7 3f      	<unknown>
1000dc0e: a8 3d        	<unknown>
1000dc10: c6 bf        	<unknown>
1000dc12: fd be        	<unknown>
1000dc14: 30 3f        	<unknown>
1000dc16: ae be        	<unknown>
1000dc18: 1e bf        	<unknown>
1000dc1a: b6 3f        	<unknown>
1000dc1c: 9d bf        	<unknown>
1000dc1e: a0 be        	<unknown>
1000dc20: a1 3e        	<unknown>
1000dc22: 23 bf e4 3f 1e bf 93 be      	<unknown>
1000dc2a: 3b bf 17 3f 43 3f 5b bf      	<unknown>
1000dc32: fa 3e        	<unknown>
1000dc34: 87 3e dd 3d 20 bf ad bf      	<unknown>
1000dc3c: 08 3e        	<unknown>
1000dc3e: 67 3d d9 3e db 3e d6 bf      	<unknown>
1000dc46: 6e bf        	<unknown>
1000dc48: 03 bf 83 bf 19 3d da 3e      	<unknown>
1000dc50: 94 bf        	<unknown>
1000dc52: 89 bf        	<unknown>
1000dc54: e9 3f        	<unknown>
1000dc56: 2a c0        	<unknown>
1000dc58: 28 be        	<unknown>
1000dc5a: dc 3f        	<unknown>
1000dc5c: a4 3d        	<unknown>
1000dc5e: bf be 67 3f 09 be f3 be      	<unknown>
1000dc66: 12 40        	<unknown>
1000dc68: fe 3e        	<unknown>
1000dc6a: 0c 3f        	<unknown>
1000dc6c: af be 2f bf 09 3e 0b 3f      	<unknown>
1000dc74: 53 bf 65 3d 0b c0 40 bf      	<unknown>
1000dc7c: 4f bf e3 3f 59 bf c4 3e      	<unknown>
1000dc84: 28 40        	<unknown>
1000dc86: 9f 3f 55 be 4e be b1 3f      	<unknown>
1000dc8e: 03 40 7c bf b0 3d d5 bf      	<unknown>
1000dc96: d1 3e        	<unknown>
1000dc98: 3c bf        	<unknown>
1000dc9a: ad 3f        	<unknown>
1000dc9c: 01 c0        	<unknown>
1000dc9e: 03 3f 0c 3f 1b 3f 27 3f      	<unknown>
1000dca6: 5f bf b0 bf 1c 40 44 be      	<unknown>
1000dcae: a7 3e 7e bf 00 00 42 3f      	<unknown>
1000dcb6: 58 3f        	<unknown>
1000dcb8: fb be b9 3e 94 3e ab bd      	<unknown>
1000dcc0: 2f bc 07 3f 07 bf 04 40      	<unknown>
1000dcc8: 76 bf        	<unknown>
1000dcca: a3 bf 7e bf f2 bf 1c 3e      	<unknown>
1000dcd2: 15 3f        	<unknown>
1000dcd4: 59 bf        	<unknown>
1000dcd6: 2e 3f        	<unknown>
1000dcd8: fe 3c        	<unknown>
1000dcda: 01 3f        	<unknown>
1000dcdc: e3 be 8e 3f ae bf 09 40      	<unknown>
1000dce4: 99 bf        	<unknown>
1000dce6: e0 3e        	<unknown>
1000dce8: 03 3f 23 bf 20 be 46 3f      	<unknown>
1000dcf0: 09 bf        	<unknown>
1000dcf2: 45 bf        	<unknown>
1000dcf4: a6 bf        	<unknown>
1000dcf6: b9 be        	<unknown>
1000dcf8: 9b be e5 3e e5 be b9 3f      	<unknown>
1000dd00: cc be        	<unknown>
1000dd02: e0 3d        	<unknown>
1000dd04: ad 3f        	<unknown>
1000dd06: 38 be        	<unknown>
1000dd08: 83 bf 11 bf 38 c0 92 3f      	<unknown>
1000dd10: 4d 3f        	<unknown>
1000dd12: 2b bf 38 bd e2 3f 8b 3f      	<unknown>
1000dd1a: 29 3f        	<unknown>
1000dd1c: d8 3f        	<unknown>
1000dd1e: d1 be        	<unknown>
1000dd20: 54 bf        	<unknown>
1000dd22: af bf 09 3f b8 bf c1 3f      	<unknown>
1000dd2a: 72 bf        	<unknown>
1000dd2c: 94 3f        	<unknown>
1000dd2e: 0f 40 e0 3e 9b be 0b 40      	<unknown>
1000dd36: 97 be 88 3f 80 bf 04 3f      	<unknown>
1000dd3e: 62 bf        	<unknown>
1000dd40: 47 bf b7 3e ca be 3b 3f      	<unknown>
1000dd48: ac be        	<unknown>
1000dd4a: 6a bf        	<unknown>
1000dd4c: db bf e9 bf a7 3f 3b bd      	<unknown>
1000dd54: 05 bf        	<unknown>
1000dd56: 27 3e 3b bf 8f be 26 40      	<unknown>
1000dd5e: 14 3e        	<unknown>
1000dd60: 0c be        	<unknown>
1000dd62: a9 bf        	<unknown>
1000dd64: ef be e6 be 18 bf 06 3f      	<unknown>
1000dd6c: 5d 3e        	<unknown>
1000dd6e: 1c be        	<unknown>
1000dd70: 8c 3f        	<unknown>
1000dd72: d7 3d c3 3f 39 bf 39 be      	<unknown>
1000dd7a: 00 00        	<unknown>
1000dd7c: d1 bf        	<unknown>
1000dd7e: bd bd        	<unknown>
1000dd80: 02 40        	<unknown>
1000dd82: 22 3e        	<unknown>
1000dd84: 9b bf 26 3f 2b bf 16 bf      	<unknown>
1000dd8c: 69 bf        	<unknown>
1000dd8e: fb 3e 56 3f 77 bf 6f bf      	<unknown>
1000dd96: 61 3f        	<unknown>
1000dd98: c2 3e        	<unknown>
1000dd9a: 8c 3f        	<unknown>
1000dd9c: bb bf 84 bf 66 bf 9e 3f      	<unknown>
1000dda4: 75 3f        	<unknown>
1000dda6: 93 bf 75 bf 89 3f 8e bf      	<unknown>
1000ddae: 1e c0        	<unknown>
1000ddb0: 21 3f        	<unknown>
1000ddb2: ec 3f        	<unknown>
1000ddb4: b8 3f        	<unknown>
1000ddb6: 61 bf        	<unknown>
1000ddb8: 86 3f        	<unknown>
1000ddba: 0c be        	<unknown>
1000ddbc: b0 bf        	<unknown>
1000ddbe: 0f 40 22 3f 6d bf ae bf      	<unknown>
1000ddc6: 4a 3a        	<unknown>
1000ddc8: 39 3f        	<unknown>
1000ddca: c9 3f        	<unknown>
1000ddcc: 96 be        	<unknown>
1000ddce: 1e 3f        	<unknown>
1000ddd0: b2 be        	<unknown>
1000ddd2: 35 3d        	<unknown>
1000ddd4: d8 bd        	<unknown>
1000ddd6: cc 3f        	<unknown>
1000ddd8: 6d 3f        	<unknown>
1000ddda: b4 be        	<unknown>
1000dddc: d4 be        	<unknown>
1000ddde: 40 3e        	<unknown>
1000dde0: 47 bf c8 bf 4e 3f 84 3f      	<unknown>
1000dde8: 7e bf        	<unknown>
1000ddea: 92 bf        	<unknown>
1000ddec: 8c bf        	<unknown>
1000ddee: 26 bf        	<unknown>
1000ddf0: e1 be        	<unknown>
1000ddf2: 54 3f        	<unknown>
1000ddf4: 7a 3e        	<unknown>
1000ddf6: e4 be        	<unknown>
1000ddf8: e3 be ce bf 86 bf 95 3e      	<unknown>
1000de00: 2a 3f        	<unknown>
1000de02: d6 3e        	<unknown>
1000de04: 38 3f        	<unknown>
1000de06: 5a be        	<unknown>
1000de08: 00 00        	<unknown>
1000de0a: da be        	<unknown>
1000de0c: a1 bf        	<unknown>
1000de0e: 7b bf 9a bf c4 3f c1 bf      	<unknown>
1000de16: 04 3f        	<unknown>
1000de18: 00 00        	<unknown>
1000de1a: b3 bd 35 be 41 bf 0c bf      	<unknown>
1000de22: 58 3e        	<unknown>
1000de24: fd be        	<unknown>
1000de26: ad 3f        	<unknown>
1000de28: 67 3f c5 3f 9e 3e 1b 3f      	<unknown>
1000de30: aa 3f        	<unknown>
1000de32: b4 3f        	<unknown>
1000de34: 9e be        	<unknown>
1000de36: b3 bd a6 be 69 bf c9 bf      	<unknown>
1000de3e: 0b be 22 c0 81 bf f8 3f      	<unknown>
1000de46: 88 3f        	<unknown>
1000de48: 41 39        	<unknown>
1000de4a: e1 bf        	<unknown>
1000de4c: 41 3f        	<unknown>
1000de4e: f3 bf 4e 3e c3 3f cc bf      	<unknown>
1000de56: eb be c3 3e 0b be 85 bf      	<unknown>
1000de5e: 7f bf e6 be 7c 3e 87 3f      	<unknown>
1000de66: 65 3f        	<unknown>
1000de68: 73 3e d4 3f 98 3e b1 bd      	<unknown>
1000de70: 12 40        	<unknown>
1000de72: c0 bf        	<unknown>
1000de74: a2 bf        	<unknown>
1000de76: c6 be        	<unknown>
1000de78: c0 3e        	<unknown>
1000de7a: 55 3f        	<unknown>
1000de7c: 00 bf        	<unknown>
1000de7e: 9d 3f        	<unknown>
1000de80: 9d bf        	<unknown>
1000de82: 97 bf 94 bf ef be 0c 3f      	<unknown>
1000de8a: a5 3f        	<unknown>
1000de8c: 93 3f 91 be 13 40 af bf      	<unknown>
1000de94: 2a 3e        	<unknown>
1000de96: 82 bf        	<unknown>
1000de98: 0c 3f        	<unknown>
1000de9a: b6 3f        	<unknown>
1000de9c: f6 3f        	<unknown>
1000de9e: af 3e 52 bc b0 bf 48 bf      	<unknown>
1000dea6: 0d 3f        	<unknown>
1000dea8: 49 bf        	<unknown>
1000deaa: 6c 3e        	<unknown>
1000deac: cd bf        	<unknown>
1000deae: 1c bf        	<unknown>
1000deb0: 0f 3f cd 3f d1 be da be      	<unknown>
1000deb8: 2b 3f fc 3e b9 3f 48 3f      	<unknown>
1000dec0: 70 3e        	<unknown>
1000dec2: 3e 3f        	<unknown>
1000dec4: 75 3e        	<unknown>
1000dec6: 33 c0 38 3f 0d 3f b0 3f      	<unknown>
1000dece: 0b bf 35 3f 96 3d 18 c0      	<unknown>
1000ded6: c9 be        	<unknown>
1000ded8: e9 be        	<unknown>
1000deda: 5f 3f d1 3d 44 bf 42 bf      	<unknown>
1000dee2: 7f bf af 3f 66 bf 16 bf      	<unknown>
1000deea: 00 00        	<unknown>
1000deec: 21 3f        	<unknown>
1000deee: fd bf        	<unknown>
1000def0: 08 40        	<unknown>
1000def2: 7d 3a        	<unknown>
1000def4: 00 00        	<unknown>
1000def6: 64 3f        	<unknown>
1000def8: 38 3e        	<unknown>
1000defa: 00 00        	<unknown>
1000defc: 0a 3f        	<unknown>
1000defe: 7c be        	<unknown>
1000df00: 4e 3e        	<unknown>
1000df02: c8 3f        	<unknown>
1000df04: f9 be        	<unknown>
1000df06: 66 3e        	<unknown>
1000df08: 9b be 16 3b 67 3f 2c bf      	<unknown>
1000df10: 45 bf        	<unknown>
1000df12: b3 3e dc bd 9e be 7d 3f      	<unknown>
1000df1a: b8 be        	<unknown>
1000df1c: 28 bf        	<unknown>
1000df1e: 0d bf        	<unknown>
1000df20: 06 c0        	<unknown>
1000df22: d1 3e        	<unknown>
1000df24: 55 bf        	<unknown>
1000df26: f1 be        	<unknown>
1000df28: 71 3f        	<unknown>
1000df2a: c1 3f        	<unknown>
1000df2c: 6b 3f 9c be ba bf 3d bf      	<unknown>
1000df34: c0 3e        	<unknown>
1000df36: c5 3f        	<unknown>
1000df38: 21 3f        	<unknown>
1000df3a: 3e 3e        	<unknown>
1000df3c: 82 3f        	<unknown>
1000df3e: 7f 3f b7 bf 14 3f d8 bf      	<unknown>
1000df46: 09 bf        	<unknown>
1000df48: d2 be        	<unknown>
1000df4a: ee 3f        	<unknown>
1000df4c: 18 c0        	<unknown>
1000df4e: 10 c0        	<unknown>
1000df50: 41 3f        	<unknown>
1000df52: 34 3e        	<unknown>
1000df54: 31 3f        	<unknown>
1000df56: f9 3e        	<unknown>
1000df58: 52 bd        	<unknown>
1000df5a: 7e 3f        	<unknown>
1000df5c: 68 3e        	<unknown>
1000df5e: 0a c0        	<unknown>
1000df60: 61 3e        	<unknown>
1000df62: b9 3e        	<unknown>
1000df64: 28 be        	<unknown>
1000df66: 24 bf        	<unknown>
1000df68: 26 3e        	<unknown>
1000df6a: ce 3f        	<unknown>
1000df6c: 09 3e        	<unknown>
1000df6e: 3a 3f        	<unknown>
1000df70: 75 bf        	<unknown>
1000df72: 76 3e        	<unknown>
1000df74: b7 be 22 bf 1e bf 0e c0      	<unknown>
1000df7c: 30 be        	<unknown>
1000df7e: 9a 3e        	<unknown>
1000df80: 99 bf        	<unknown>
1000df82: a9 bf        	<unknown>
1000df84: 5c bd        	<unknown>
1000df86: a0 be        	<unknown>
1000df88: fa 3d        	<unknown>
1000df8a: a6 be        	<unknown>
1000df8c: 11 bf        	<unknown>
1000df8e: 40 3f        	<unknown>
1000df90: d8 3f        	<unknown>
1000df92: 28 be        	<unknown>
1000df94: 94 3f        	<unknown>
1000df96: ba be        	<unknown>
1000df98: ee be        	<unknown>
1000df9a: 84 bf        	<unknown>
1000df9c: db 3f 29 bf 75 3d 12 3e      	<unknown>
1000dfa4: d4 3f        	<unknown>
1000dfa6: 23 be c2 3e 42 3f c7 bf      	<unknown>
1000dfae: 90 bf        	<unknown>
1000dfb0: cc bf        	<unknown>
1000dfb2: 00 40        	<unknown>
1000dfb4: 90 bf        	<unknown>
1000dfb6: f4 bd        	<unknown>
1000dfb8: 9f 3e 0d bf 0c c0 8b 3f      	<unknown>
1000dfc0: 7d 3f        	<unknown>
1000dfc2: e9 be        	<unknown>
1000dfc4: 4e bf        	<unknown>
1000dfc6: 0f 3e 69 3f 2a 3e bc 3f      	<unknown>
1000dfce: 41 3f        	<unknown>
1000dfd0: 8b 3e b9 bf 2f 3f b2 bf      	<unknown>
1000dfd8: 2c 3f        	<unknown>
1000dfda: 83 3d 14 bf 68 bf 71 3f      	<unknown>
1000dfe2: 9b 3f cf bc 12 bf f7 3f      	<unknown>
1000dfea: 15 bf        	<unknown>
1000dfec: 4f bc fa bf d6 3e df be      	<unknown>
1000dff4: 8d 3f        	<unknown>
1000dff6: 10 bf        	<unknown>
1000dff8: e7 bf 44 bf ff 3d 09 40      	<unknown>
1000e000: 30 3e        	<unknown>
1000e002: 27 40 5c 3f fe 3e 14 bd      	<unknown>
1000e00a: f2 be        	<unknown>
1000e00c: 7e bf        	<unknown>
1000e00e: 36 3f        	<unknown>
1000e010: 30 3d        	<unknown>
1000e012: 8a 3f        	<unknown>
1000e014: 2d 3d        	<unknown>
1000e016: 88 3f        	<unknown>
1000e018: d3 be 84 bf ed 3e 36 3f      	<unknown>
1000e020: aa bf        	<unknown>
1000e022: ab 3f 89 bf 73 3f fd bc      	<unknown>
1000e02a: 58 bf        	<unknown>
1000e02c: 9b bd 0c 3f da 3f 00 00      	<unknown>
1000e034: 9f bf 33 3f 0d bf c2 3e      	<unknown>
1000e03c: 76 be        	<unknown>
1000e03e: a6 be        	<unknown>
1000e040: 56 bf        	<unknown>
1000e042: 32 bf        	<unknown>
1000e044: 89 bf        	<unknown>
1000e046: 57 3f 04 3e 1c be 0e 3f      	<unknown>
1000e04e: 8d 3f        	<unknown>
1000e050: 84 bf        	<unknown>
1000e052: 9a bf        	<unknown>
1000e054: 00 3f        	<unknown>
1000e056: e5 3e        	<unknown>
1000e058: a8 bd        	<unknown>
1000e05a: 9b bc 4f bf 16 bd 28 bf      	<unknown>
1000e062: 65 3f        	<unknown>
1000e064: 06 c0        	<unknown>
1000e066: 9d bd        	<unknown>
1000e068: 59 bf        	<unknown>
1000e06a: aa 3f        	<unknown>
1000e06c: 17 3f 42 bf 18 bf a6 bf      	<unknown>
1000e074: b9 be        	<unknown>
1000e076: 08 be        	<unknown>
1000e078: 84 be        	<unknown>
1000e07a: 06 3e        	<unknown>
1000e07c: 83 be 15 bf d9 3f 07 3f      	<unknown>
1000e084: df 3f f0 3e be 3f fc 3e      	<unknown>
1000e08c: c8 bf        	<unknown>
1000e08e: 62 bf        	<unknown>
1000e090: 0d bf        	<unknown>
1000e092: 6f 3f 84 3e 37 c0 00 00      	<unknown>
1000e09a: be 3f        	<unknown>
1000e09c: d9 bf        	<unknown>
1000e09e: 60 3f        	<unknown>
1000e0a0: d4 3e        	<unknown>
1000e0a2: 53 3a de bf b0 3f 97 bd      	<unknown>
1000e0aa: 03 3f f4 bd b9 bf 01 3e      	<unknown>
1000e0b2: d5 3f        	<unknown>
1000e0b4: aa 3d        	<unknown>
1000e0b6: 08 be        	<unknown>
1000e0b8: bf 3e 1c 3d 1d bd 8e 3d      	<unknown>
1000e0c0: 72 3f        	<unknown>
1000e0c2: 00 bf        	<unknown>
1000e0c4: 09 40        	<unknown>
1000e0c6: 05 bf        	<unknown>
1000e0c8: 39 3e        	<unknown>
1000e0ca: 98 bf        	<unknown>
1000e0cc: 9e be        	<unknown>
1000e0ce: ff 3d db bf 8b bf 92 bd      	<unknown>
1000e0d6: d3 bf 9a 3f 0e 3f 26 3f      	<unknown>
1000e0de: 04 bc        	<unknown>
1000e0e0: 00 bf        	<unknown>
1000e0e2: 22 3f        	<unknown>
1000e0e4: b7 3f df 3e dc bf 8e bd      	<unknown>
1000e0ec: fb bf da 39 35 3f a5 be      	<unknown>
1000e0f4: d4 be        	<unknown>
1000e0f6: 95 3e        	<unknown>
1000e0f8: b5 3f        	<unknown>
1000e0fa: 4a bf        	<unknown>
1000e0fc: af 3e 5c 3f c8 bf 9b be      	<unknown>
1000e104: 6e 3e        	<unknown>
1000e106: d3 bf 95 be 19 3f f7 bd      	<unknown>
1000e10e: 41 3f        	<unknown>
1000e110: 02 3f        	<unknown>
1000e112: 4a bf        	<unknown>
1000e114: 52 be        	<unknown>
1000e116: 08 bf        	<unknown>
1000e118: 85 3f        	<unknown>
1000e11a: 88 3e        	<unknown>
1000e11c: 98 3f        	<unknown>
1000e11e: 97 bf d8 3e 2d 3f 71 3f      	<unknown>
1000e126: 37 3e 82 3c 00 3a bf 3f      	<unknown>
1000e12e: 1b 3d f4 be f3 3e 8c 3f      	<unknown>
1000e136: 8b bf 20 c0 81 3f 98 3e      	<unknown>
1000e13e: 0c bf        	<unknown>
1000e140: 4c 3e        	<unknown>
1000e142: 7f 3f 39 c0 9a 3f 20 3f      	<unknown>
1000e14a: 63 3f 9d bd 8f 3f b5 3d      	<unknown>
1000e152: 97 3d 0e 3e 75 3e b6 3f      	<unknown>
1000e15a: c8 3f        	<unknown>
1000e15c: 60 bf        	<unknown>
1000e15e: aa 3d        	<unknown>
1000e160: c1 3e        	<unknown>
1000e162: 2b bf f2 3d fa 3e 91 be      	<unknown>
1000e16a: 9e 3f        	<unknown>
1000e16c: 90 3d        	<unknown>
1000e16e: e1 bf        	<unknown>
1000e170: f8 be        	<unknown>
1000e172: ff 3e 20 40 dc be 18 3f      	<unknown>
1000e17a: a4 bd        	<unknown>
1000e17c: be 3f        	<unknown>
1000e17e: f6 3e        	<unknown>
1000e180: b4 3f        	<unknown>
1000e182: 48 bf        	<unknown>
1000e184: 90 bf        	<unknown>
1000e186: c9 bf        	<unknown>
1000e188: 00 c0        	<unknown>
1000e18a: fa be        	<unknown>
1000e18c: d7 3f da bc 65 be e2 be      	<unknown>
1000e194: 49 bf        	<unknown>
1000e196: cc be        	<unknown>
1000e198: d5 3e        	<unknown>
1000e19a: 49 bf        	<unknown>
1000e19c: 0d 3f        	<unknown>
1000e19e: ad bd        	<unknown>
1000e1a0: a6 be        	<unknown>
1000e1a2: 59 3f        	<unknown>
1000e1a4: 8e 3f        	<unknown>
1000e1a6: 84 be        	<unknown>
1000e1a8: 14 bf        	<unknown>
1000e1aa: 34 3f        	<unknown>
1000e1ac: 62 bf        	<unknown>
1000e1ae: 0e 3f        	<unknown>
1000e1b0: 34 bf        	<unknown>
1000e1b2: d3 bf c2 bf 99 bf a6 bd      	<unknown>
1000e1ba: 00 00        	<unknown>
1000e1bc: 39 be        	<unknown>
1000e1be: 5b bd 9b bf e1 3c cd 3e      	<unknown>
1000e1c6: b4 3f        	<unknown>
1000e1c8: a8 bf        	<unknown>
1000e1ca: 5e 3f        	<unknown>
1000e1cc: a7 3d e2 be ba 3f 93 3f      	<unknown>
1000e1d4: 13 40 a1 be 8a 3f 9e 3f      	<unknown>
1000e1dc: 0b c0 b3 bf e4 be 84 bf      	<unknown>
1000e1e4: d8 3f        	<unknown>
1000e1e6: 9d bf        	<unknown>
1000e1e8: c9 be        	<unknown>
1000e1ea: 01 3e        	<unknown>
1000e1ec: 45 bf        	<unknown>
1000e1ee: 22 3f        	<unknown>
1000e1f0: ca bf        	<unknown>
1000e1f2: 5b 3e 96 3e 86 3f 5a bf      	<unknown>
1000e1fa: 74 bf        	<unknown>
1000e1fc: 9f bf 05 3f 0a c0 85 bf      	<unknown>
1000e204: 51 bf        	<unknown>
1000e206: 71 be        	<unknown>
1000e208: 17 3d b1 be a3 3e 0f bf      	<unknown>
1000e210: ae 3f        	<unknown>
1000e212: ee be        	<unknown>
1000e214: bd 3e        	<unknown>
1000e216: 39 be        	<unknown>
1000e218: 18 3e        	<unknown>
1000e21a: 20 3e        	<unknown>
1000e21c: b2 bf        	<unknown>
1000e21e: 91 be        	<unknown>
1000e220: 96 bf        	<unknown>
1000e222: 0e bf        	<unknown>
1000e224: 75 be        	<unknown>
1000e226: ba bf        	<unknown>
1000e228: c5 be        	<unknown>
1000e22a: 75 3f        	<unknown>
1000e22c: e7 3e 89 bf a3 bf 16 bf      	<unknown>
1000e234: 79 3f        	<unknown>
1000e236: a6 3e        	<unknown>
1000e238: 45 40        	<unknown>
1000e23a: 93 bf 76 3f 88 bf ef bf      	<unknown>
1000e242: 9a bf        	<unknown>
1000e244: a5 bf        	<unknown>
1000e246: 4e bd        	<unknown>
1000e248: 86 bf        	<unknown>
1000e24a: 30 3f        	<unknown>
1000e24c: 7f be a2 bf b7 3d 50 3f      	<unknown>
1000e254: 02 3f        	<unknown>
1000e256: 01 c0        	<unknown>
1000e258: 6f 3e ad 3f 93 bf 18 3f      	<unknown>
1000e260: 39 3f        	<unknown>
1000e262: 2d bf        	<unknown>
1000e264: 27 3f f1 bf 8d bf c1 3d      	<unknown>
1000e26c: 1e be        	<unknown>
1000e26e: 27 bf 57 3f b0 3e 42 3f      	<unknown>
1000e276: 37 3e 3e 3f ae bf 01 be      	<unknown>
1000e27e: 55 3f        	<unknown>
1000e280: 1b c0 88 3f 1a bf 67 bf      	<unknown>
1000e288: d9 3d        	<unknown>
1000e28a: 18 bf        	<unknown>
1000e28c: c7 3f a1 3f b7 3f 20 bf      	<unknown>
1000e294: 66 bd        	<unknown>
1000e296: 49 bf        	<unknown>
1000e298: 84 3f        	<unknown>
1000e29a: 8d bf        	<unknown>
1000e29c: 9c 3d        	<unknown>
1000e29e: b6 bf        	<unknown>
1000e2a0: c5 3e        	<unknown>
1000e2a2: 07 bf e4 3f e8 bd ba 3e      	<unknown>
1000e2aa: bd bf        	<unknown>
1000e2ac: da be        	<unknown>
1000e2ae: 5f 3e 32 bf b6 3e 07 3e      	<unknown>
1000e2b6: a5 bf        	<unknown>
1000e2b8: 47 3f 1b 3f d1 be aa bf      	<unknown>
1000e2c0: 3f be 29 bf 53 be a9 bf      	<unknown>
1000e2c8: 92 3d        	<unknown>
1000e2ca: 52 3f        	<unknown>
1000e2cc: c9 be        	<unknown>
1000e2ce: 98 3e        	<unknown>
1000e2d0: 55 c0        	<unknown>
1000e2d2: 52 bd        	<unknown>
1000e2d4: 74 bf        	<unknown>
1000e2d6: 40 3f        	<unknown>
1000e2d8: 93 3e 18 bf 22 bf 99 3f      	<unknown>
1000e2e0: 73 3d 20 3f ac 3d 4b 3f      	<unknown>
1000e2e8: 03 c0 54 bf 4e bf e1 3f      	<unknown>
1000e2f0: e6 be        	<unknown>
1000e2f2: 59 3f        	<unknown>
1000e2f4: 9b bf 0d 3e 3c 3f b8 bf      	<unknown>
1000e2fc: 01 bf        	<unknown>
1000e2fe: 24 c0        	<unknown>
1000e300: 54 3f        	<unknown>
1000e302: d9 be        	<unknown>
1000e304: aa be        	<unknown>
1000e306: f8 3e        	<unknown>
1000e308: bb 3f 15 3f b4 bf 0e bf      	<unknown>
1000e310: 10 c0        	<unknown>
1000e312: 7f 3e 13 bf 9a bf 22 bf      	<unknown>
1000e31a: 2d be        	<unknown>
1000e31c: 2e bd        	<unknown>
1000e31e: a8 3e        	<unknown>
1000e320: 14 bf        	<unknown>
1000e322: bd bf        	<unknown>
1000e324: 5a be        	<unknown>
1000e326: ef bc 2d 3e 24 bf 36 bf      	<unknown>
1000e32e: df bf bb 3e 46 bf 1b c0      	<unknown>
1000e336: 96 bf        	<unknown>
1000e338: 2e 3f        	<unknown>
1000e33a: 8e bf        	<unknown>
1000e33c: fd be        	<unknown>
1000e33e: dd 3a        	<unknown>
1000e340: 82 3f        	<unknown>
1000e342: 20 bf        	<unknown>
1000e344: c9 be        	<unknown>
1000e346: 93 3f db bf 8e bf ec be      	<unknown>
1000e34e: d0 3d        	<unknown>
1000e350: 0a 3f        	<unknown>
1000e352: 44 3e        	<unknown>
1000e354: b3 3f a2 3e 5a be e9 3e      	<unknown>
1000e35c: 41 be        	<unknown>
1000e35e: 9d be        	<unknown>
1000e360: af 3f 85 3f e1 be da bd      	<unknown>
1000e368: 86 bf        	<unknown>
1000e36a: bc bf        	<unknown>
1000e36c: bd 3e        	<unknown>
1000e36e: 98 3f        	<unknown>
1000e370: 6d bf        	<unknown>
1000e372: 29 bf        	<unknown>
1000e374: 31 be        	<unknown>
1000e376: 9b bf 85 3a 05 c0 f1 3e      	<unknown>
1000e37e: 34 3e        	<unknown>
1000e380: 3c bf        	<unknown>
1000e382: a4 3e        	<unknown>
1000e384: 84 be        	<unknown>
1000e386: 54 bf        	<unknown>
1000e388: ab 3f 0b 3e e9 3c ba bf      	<unknown>
1000e390: 15 c0        	<unknown>
1000e392: 65 3f        	<unknown>
1000e394: 2c bf        	<unknown>
1000e396: 2d bf        	<unknown>
1000e398: 5a be        	<unknown>
1000e39a: 54 bf        	<unknown>
1000e39c: 42 bf        	<unknown>
1000e39e: 45 3f        	<unknown>
1000e3a0: 09 40        	<unknown>
1000e3a2: 11 bf        	<unknown>
1000e3a4: 94 3f        	<unknown>
1000e3a6: 55 3d        	<unknown>
1000e3a8: a3 3e 3b bf 5d 3e c0 bf      	<unknown>
1000e3b0: 81 bf        	<unknown>
1000e3b2: b0 be        	<unknown>
1000e3b4: d4 3e        	<unknown>
1000e3b6: 0b 40 ac be a2 3f 35 3f      	<unknown>
1000e3be: 85 be        	<unknown>
1000e3c0: ce 3e        	<unknown>
1000e3c2: d5 bf        	<unknown>
1000e3c4: 9f be 0d 40 99 bf 09 3f      	<unknown>
1000e3cc: 8d 3f        	<unknown>
1000e3ce: 85 3f        	<unknown>
1000e3d0: c1 be        	<unknown>
1000e3d2: 40 3f        	<unknown>
1000e3d4: da bf        	<unknown>
1000e3d6: 90 be        	<unknown>
1000e3d8: 0a 3f        	<unknown>
1000e3da: 44 3e        	<unknown>
1000e3dc: f4 be        	<unknown>
1000e3de: 41 bf        	<unknown>
1000e3e0: 7d bf        	<unknown>
1000e3e2: 93 3e 11 3f a6 3e 9e 3f      	<unknown>
1000e3ea: 2c 3f        	<unknown>
1000e3ec: f2 3d        	<unknown>
1000e3ee: 80 bd        	<unknown>
1000e3f0: 21 3f        	<unknown>
1000e3f2: 48 be        	<unknown>
1000e3f4: ec 3f        	<unknown>
1000e3f6: 9e bf        	<unknown>
1000e3f8: f3 bd 1d 40 08 be 64 3f      	<unknown>
1000e400: 1d 40        	<unknown>
1000e402: 04 3f        	<unknown>
1000e404: df 3f 65 3f f9 3f 07 3d      	<unknown>
1000e40c: bd bf        	<unknown>
1000e40e: 34 bf        	<unknown>
1000e410: 23 be a8 3e 63 bf 3b 3f      	<unknown>
1000e418: 9e be        	<unknown>
1000e41a: f7 3d 30 bf a2 3e f3 be      	<unknown>
1000e422: 04 3f        	<unknown>
1000e424: c9 be        	<unknown>
1000e426: db 3d 52 3f 2e 3c de 3e      	<unknown>
1000e42e: 29 3f        	<unknown>
1000e430: c6 3f        	<unknown>
1000e432: 11 3f        	<unknown>
1000e434: 2e 3f        	<unknown>
1000e436: 0a 3f        	<unknown>
1000e438: 97 be e3 3e f2 bf 4e 3f      	<unknown>
1000e440: 69 3f        	<unknown>
1000e442: ba 3f        	<unknown>
1000e444: 93 bd 9a 3f c1 3e 07 40      	<unknown>
1000e44c: 8b bf 17 3f 00 bf 5c 3e      	<unknown>
1000e454: 53 be fe 3e af 3e dd 3f      	<unknown>
1000e45c: 0f 3d 10 c0 a2 bf 00 3a      	<unknown>
1000e464: 83 bf f8 be e5 3e 80 bd      	<unknown>
1000e46c: 62 3f        	<unknown>
1000e46e: 56 bf        	<unknown>
1000e470: 17 bf 81 3f d2 bf 97 be      	<unknown>
1000e478: 4c 3e        	<unknown>
1000e47a: de bd        	<unknown>
1000e47c: b2 3d        	<unknown>
1000e47e: a0 bd        	<unknown>
1000e480: a5 3f        	<unknown>
1000e482: d7 3f 4b 3e f8 bd 89 bd      	<unknown>
1000e48a: fb bf ce bf b3 be c4 3d      	<unknown>
1000e492: ab 3e 8b be 82 3e 28 3f      	<unknown>
1000e49a: ad be        	<unknown>
1000e49c: 73 3f d0 3e ce bc b9 3f      	<unknown>
1000e4a4: 05 bf        	<unknown>
1000e4a6: a2 be        	<unknown>
1000e4a8: 4d be        	<unknown>
1000e4aa: f0 be        	<unknown>
1000e4ac: 98 3f        	<unknown>
1000e4ae: 97 be 0b 3f 8f bf b4 be      	<unknown>
1000e4b6: bc bf        	<unknown>
1000e4b8: d7 bf 0b bf b4 3d da 3f      	<unknown>
1000e4c0: 0b bd 19 c0 37 bf 44 c0      	<unknown>
1000e4c8: 88 3f        	<unknown>
1000e4ca: 46 3f        	<unknown>
1000e4cc: 20 3e        	<unknown>
1000e4ce: 0a 3f        	<unknown>
1000e4d0: af bf 9b 3e 97 3e 09 3f      	<unknown>
1000e4d8: 06 3e        	<unknown>
1000e4da: 66 be        	<unknown>
1000e4dc: 70 3e        	<unknown>
1000e4de: 68 bf        	<unknown>
1000e4e0: c4 bf        	<unknown>
1000e4e2: 90 3f        	<unknown>
1000e4e4: a6 bf        	<unknown>
1000e4e6: 06 bf        	<unknown>
1000e4e8: 46 3e        	<unknown>
1000e4ea: d9 bd        	<unknown>
1000e4ec: 55 3d        	<unknown>
1000e4ee: 52 bf        	<unknown>
1000e4f0: 87 be 78 3f 88 3f 8d 3f      	<unknown>
1000e4f8: e1 3e        	<unknown>
1000e4fa: 9a bf        	<unknown>
1000e4fc: 0b 40 d6 3d 8a 3f 06 bf      	<unknown>
1000e504: b2 be        	<unknown>
1000e506: 6e 3f        	<unknown>
1000e508: ce be        	<unknown>
1000e50a: a7 bf 06 3e b4 3d a7 3f      	<unknown>
1000e512: 88 be        	<unknown>
1000e514: b0 3e        	<unknown>
1000e516: 8b be 04 3f 7a bf 2a 3f      	<unknown>
1000e51e: e3 3e f6 be 7a bf da 3f      	<unknown>
1000e526: ad 3f        	<unknown>
1000e528: 40 3e        	<unknown>
1000e52a: b8 3f        	<unknown>
1000e52c: 2b 3f 06 bf 6e bc 92 3f      	<unknown>
1000e534: 5e bf        	<unknown>
1000e536: a2 bf        	<unknown>
1000e538: 8a 3d        	<unknown>
1000e53a: 59 bf        	<unknown>
1000e53c: 1b 3f ed bd bc bf 72 be      	<unknown>
1000e544: 29 3f        	<unknown>
1000e546: 8b bf 57 bf ae 3f a5 bf      	<unknown>
1000e54e: 06 bf        	<unknown>
1000e550: 14 3f        	<unknown>
1000e552: d2 3e        	<unknown>
1000e554: 84 bf        	<unknown>
1000e556: b6 bf        	<unknown>
1000e558: e2 be        	<unknown>
1000e55a: e5 3e        	<unknown>
1000e55c: 28 3f        	<unknown>
1000e55e: 49 bf        	<unknown>
1000e560: ae bf        	<unknown>
1000e562: f3 be 7d 3e 88 3f 1a 3f      	<unknown>
1000e56a: f0 be        	<unknown>
1000e56c: c6 3e        	<unknown>
1000e56e: 3b be 38 3f 09 40 24 3f      	<unknown>
1000e576: f2 3e        	<unknown>
1000e578: c8 3f        	<unknown>
1000e57a: 2a 3f        	<unknown>
1000e57c: 1b bf 80 bf f2 3f f7 bf      	<unknown>
1000e584: 79 3f        	<unknown>
1000e586: e2 3f        	<unknown>
1000e588: 28 3f        	<unknown>
1000e58a: 25 be        	<unknown>
1000e58c: db bd 2f be 89 3f ef 3f      	<unknown>
1000e594: fe be        	<unknown>
1000e596: 31 3d        	<unknown>
1000e598: 28 bf        	<unknown>
1000e59a: 8f be fe be 92 3f 03 3f      	<unknown>
1000e5a2: 16 3f        	<unknown>
1000e5a4: 82 3e        	<unknown>
1000e5a6: 64 bf        	<unknown>
1000e5a8: 9e bf        	<unknown>
1000e5aa: fa bf        	<unknown>
1000e5ac: 01 bf        	<unknown>
1000e5ae: 67 be 1f 3e f5 3f 13 3f      	<unknown>
1000e5b6: 8b 3e e0 bf 4e 3f 99 bf      	<unknown>
1000e5be: 86 bf        	<unknown>
1000e5c0: 8b bf f9 be 21 3f 94 3f      	<unknown>
1000e5c8: fe be        	<unknown>
1000e5ca: aa bf        	<unknown>
1000e5cc: ef bf 02 3f 4f 3f 15 3f      	<unknown>
1000e5d4: be be        	<unknown>
1000e5d6: e7 bf a5 3f df bf b2 3f      	<unknown>
1000e5de: 5b bf db 3e 2a 3e 28 3e      	<unknown>
1000e5e6: 02 bf        	<unknown>
1000e5e8: 30 bf        	<unknown>
1000e5ea: 3d 3f        	<unknown>
1000e5ec: b5 3e        	<unknown>
1000e5ee: e7 bd f8 be 2a 3e 09 3f      	<unknown>
1000e5f6: 16 c0        	<unknown>
1000e5f8: b3 be d0 be 47 be 1e bf      	<unknown>
1000e600: 81 3e        	<unknown>
1000e602: e1 3e        	<unknown>
1000e604: b8 3f        	<unknown>
1000e606: 53 bf fd be fd bd e3 3c      	<unknown>
1000e60e: c3 be af 3e 4b bf de bf      	<unknown>
1000e616: fb bf 09 bf b4 bf 3d bf      	<unknown>
1000e61e: c4 bf        	<unknown>
1000e620: 43 3f 01 40 73 3f 1a bf      	<unknown>
1000e628: 09 bf        	<unknown>
1000e62a: 3d be        	<unknown>
1000e62c: 07 bf b3 3e 3b 3f 92 3f      	<unknown>
1000e634: 63 bf 9d 3e 85 bc bd 3f      	<unknown>
1000e63c: 93 bf 00 be 16 be ea be      	<unknown>
1000e644: af bf 87 bd 78 3e 18 40      	<unknown>
1000e64c: 72 bf        	<unknown>
1000e64e: d0 3e        	<unknown>
1000e650: b8 3f        	<unknown>
1000e652: 1a bf        	<unknown>
1000e654: 72 be        	<unknown>
1000e656: 71 3f        	<unknown>
1000e658: 7a 3f        	<unknown>
1000e65a: ac 3f        	<unknown>
1000e65c: 09 bf        	<unknown>
1000e65e: 15 40        	<unknown>
1000e660: 95 be        	<unknown>
1000e662: 0d bf        	<unknown>
1000e664: d0 bf        	<unknown>
1000e666: 15 bf        	<unknown>
1000e668: 01 bf        	<unknown>
1000e66a: cf bf 2b bf 88 bf f7 bf      	<unknown>
1000e672: 0b bf 91 3f 85 be e4 bd      	<unknown>
1000e67a: b0 3f        	<unknown>
1000e67c: 9e bf        	<unknown>
1000e67e: e5 3f        	<unknown>
1000e680: 2f 3e 43 3e 9c bf 89 be      	<unknown>
1000e688: 2f 3f c6 3f 34 3f 3c bf      	<unknown>
1000e690: cf bd f2 bf 57 be 8a bf      	<unknown>
1000e698: b0 3e        	<unknown>
1000e69a: 0e bf        	<unknown>
1000e69c: 08 40        	<unknown>
1000e69e: 77 bf 2c bf b8 3f 9c 3f      	<unknown>
1000e6a6: 51 be        	<unknown>
1000e6a8: 69 3f        	<unknown>
1000e6aa: 7c 3f        	<unknown>
1000e6ac: 76 bd        	<unknown>
1000e6ae: c8 bf        	<unknown>
1000e6b0: 1a 40        	<unknown>
1000e6b2: 0a 40        	<unknown>
1000e6b4: b5 be        	<unknown>
1000e6b6: 5d 3e        	<unknown>
1000e6b8: 8a 3d        	<unknown>
1000e6ba: 62 be        	<unknown>
1000e6bc: 2f bf 93 bd 32 3f fb bd      	<unknown>
1000e6c4: da be        	<unknown>
1000e6c6: ce be        	<unknown>
1000e6c8: d0 be        	<unknown>
1000e6ca: 84 bd        	<unknown>
1000e6cc: 89 3f        	<unknown>
1000e6ce: c7 be cc bf d0 3c 1d 3e      	<unknown>
1000e6d6: f8 3e        	<unknown>
1000e6d8: 92 3f        	<unknown>
1000e6da: b5 be        	<unknown>
1000e6dc: 23 3e 96 3f 34 3f 00 3f      	<unknown>
1000e6e4: be bd        	<unknown>
1000e6e6: 0f c0 30 bf 65 bf 86 3f      	<unknown>
1000e6ee: ec 3c        	<unknown>
1000e6f0: 00 00        	<unknown>
1000e6f2: f5 bf        	<unknown>
1000e6f4: fa bd        	<unknown>
1000e6f6: a1 be        	<unknown>
1000e6f8: 64 3e        	<unknown>
1000e6fa: f0 be        	<unknown>
1000e6fc: 4f be 34 be 25 3e 91 3e      	<unknown>
1000e704: e1 3e        	<unknown>
1000e706: 91 3f        	<unknown>
1000e708: 07 3f 58 3f 40 3e f3 3e      	<unknown>
1000e710: a4 3f        	<unknown>
1000e712: 34 bf        	<unknown>
1000e714: 24 bf        	<unknown>
1000e716: 39 be        	<unknown>
1000e718: 18 bf        	<unknown>
1000e71a: 29 3f        	<unknown>
1000e71c: 37 bf a5 be 6c 3f 31 be      	<unknown>
1000e724: d0 bc        	<unknown>
1000e726: bb bf 21 3f be bf 57 3f      	<unknown>
1000e72e: 7b bf b1 3f fd be e8 be      	<unknown>
1000e736: 06 3f        	<unknown>
1000e738: 8e 3f        	<unknown>
1000e73a: aa 3e        	<unknown>
1000e73c: 92 3f        	<unknown>
1000e73e: fe be        	<unknown>
1000e740: 18 bf        	<unknown>
1000e742: 96 3f        	<unknown>
1000e744: 08 c0        	<unknown>
1000e746: a6 bf        	<unknown>
1000e748: a7 3f 6d 3f c0 3e ab bf      	<unknown>
1000e750: 3d bd        	<unknown>
1000e752: da bf        	<unknown>
1000e754: 50 3e        	<unknown>
1000e756: 66 be        	<unknown>
1000e758: 04 3e        	<unknown>
1000e75a: bb 3d b0 3f 97 be 09 bf      	<unknown>
1000e762: 9d bf        	<unknown>
1000e764: 7b bf bf 3f 9e bf cb bf      	<unknown>
1000e76c: 53 be 02 40 cf 3f 31 bf      	<unknown>
1000e774: 97 3f 72 3f 02 3f 4b be      	<unknown>
1000e77c: 16 c0        	<unknown>
1000e77e: cc 3d        	<unknown>
1000e780: 00 00        	<unknown>
1000e782: 22 be        	<unknown>
1000e784: 71 be        	<unknown>
1000e786: fd be        	<unknown>
1000e788: 1a 3f        	<unknown>
1000e78a: d4 bf        	<unknown>
1000e78c: 3b 3f b1 bd 00 00 5e 3e      	<unknown>
1000e794: 45 3f        	<unknown>
1000e796: a4 3f        	<unknown>
1000e798: 97 bf 45 bf dd be ef 3f      	<unknown>
1000e7a0: 9e 3e        	<unknown>
1000e7a2: 12 c0        	<unknown>
1000e7a4: 3c 3f        	<unknown>
1000e7a6: e0 bf        	<unknown>
1000e7a8: fa 3d        	<unknown>
1000e7aa: ea bd        	<unknown>
1000e7ac: 3e bf        	<unknown>
1000e7ae: 37 be 3c 3e ac 3f c9 3e      	<unknown>
1000e7b6: 8e 3f        	<unknown>
1000e7b8: 74 be        	<unknown>
1000e7ba: 90 3f        	<unknown>
1000e7bc: b2 3e        	<unknown>
1000e7be: ee 3e        	<unknown>
1000e7c0: ae bf        	<unknown>
1000e7c2: c6 bf        	<unknown>
1000e7c4: 61 bf        	<unknown>
1000e7c6: 5c 3f        	<unknown>
1000e7c8: fa be        	<unknown>
1000e7ca: f6 be        	<unknown>
1000e7cc: 9e 3e        	<unknown>
1000e7ce: f8 3f        	<unknown>
1000e7d0: b1 be        	<unknown>
1000e7d2: 1c 3f        	<unknown>
1000e7d4: 1d 3f        	<unknown>
1000e7d6: 73 3f 30 bf 92 bf 13 3f      	<unknown>
1000e7de: 88 bf        	<unknown>
1000e7e0: 04 bf        	<unknown>
1000e7e2: a2 3d        	<unknown>
1000e7e4: 5f bf 00 00 a0 3f ac 3f      	<unknown>
1000e7ec: 33 be e5 be 65 bf 23 3d      	<unknown>
1000e7f4: c1 3f        	<unknown>
1000e7f6: 00 00        	<unknown>
1000e7f8: fb 3c 5b be ff bf 70 3f      	<unknown>
1000e800: f7 bf 1f 3f 01 be 11 40      	<unknown>
1000e808: e6 3e        	<unknown>
1000e80a: b9 bf        	<unknown>
1000e80c: 87 3e fc 3e da be d4 3e      	<unknown>
1000e814: 9f 3f d6 3f bc 3f 52 3f      	<unknown>
1000e81c: 89 3f        	<unknown>
1000e81e: 64 bf        	<unknown>
1000e820: e6 3f        	<unknown>
1000e822: a7 3f 6f 3f 72 3e 00 00      	<unknown>
1000e82a: ac 3e        	<unknown>
1000e82c: 98 bf        	<unknown>
1000e82e: 16 bf        	<unknown>
1000e830: ee bd        	<unknown>
1000e832: d9 be        	<unknown>
1000e834: 39 bf        	<unknown>
1000e836: e5 bf        	<unknown>
1000e838: 00 00        	<unknown>
1000e83a: b1 bd        	<unknown>
1000e83c: 41 3f        	<unknown>
1000e83e: a3 bf e5 3f c2 be dd 3f      	<unknown>
1000e846: cf bc 8c bf c1 3f ae 3f      	<unknown>
1000e84e: 63 3f cf 3f 1c bf b0 3e      	<unknown>
1000e856: 8d 3f        	<unknown>
1000e858: 0e 3f        	<unknown>
1000e85a: 2e c0        	<unknown>
1000e85c: 8a 3e        	<unknown>
1000e85e: 11 be        	<unknown>
1000e860: dc bf        	<unknown>
1000e862: e4 bd        	<unknown>
1000e864: 63 3f 05 3f 62 bf 26 bf      	<unknown>
1000e86c: ae 3f        	<unknown>
1000e86e: f8 bf        	<unknown>
1000e870: c0 bf        	<unknown>
1000e872: 24 3f        	<unknown>
1000e874: 27 3f 0d bf a1 be e8 3d      	<unknown>
1000e87c: 2f 3f be 3d 33 3f da 3e      	<unknown>
1000e884: 3a bf        	<unknown>
1000e886: 29 be        	<unknown>
1000e888: 57 bf e2 3c a3 be 42 bf      	<unknown>
1000e890: 82 bf        	<unknown>
1000e892: c6 3e        	<unknown>
1000e894: 95 bf        	<unknown>
1000e896: ce 3e        	<unknown>
1000e898: a4 3d        	<unknown>
1000e89a: 15 3f        	<unknown>
1000e89c: 92 3f        	<unknown>
1000e89e: 08 3f        	<unknown>
1000e8a0: 12 bf        	<unknown>
1000e8a2: 60 be        	<unknown>
1000e8a4: e1 3f        	<unknown>
1000e8a6: f7 3f ed 3e 0f bf 87 bf      	<unknown>
1000e8ae: b3 3f 11 bf 7c 3f 32 bf      	<unknown>
1000e8b6: 83 bd a1 be 6b be 9d bf      	<unknown>
1000e8be: a0 be        	<unknown>
1000e8c0: 99 bf        	<unknown>
1000e8c2: 12 3f        	<unknown>
1000e8c4: b2 3f        	<unknown>
1000e8c6: 2e c0        	<unknown>
1000e8c8: 0e be        	<unknown>
1000e8ca: ba 3f        	<unknown>
1000e8cc: ae bd        	<unknown>
1000e8ce: ff bf 14 bd 2d 3d c4 3e      	<unknown>
1000e8d6: 58 be        	<unknown>
1000e8d8: 85 3d        	<unknown>
1000e8da: c1 bd        	<unknown>
1000e8dc: 37 bf 1b bf 21 3e 30 be      	<unknown>
1000e8e4: 78 bc        	<unknown>
1000e8e6: 00 00        	<unknown>
1000e8e8: 27 3f fd bd 4b 3f ea be      	<unknown>
1000e8f0: 75 bf        	<unknown>
1000e8f2: b9 bf        	<unknown>
1000e8f4: 29 3f        	<unknown>
1000e8f6: 00 00        	<unknown>
1000e8f8: 5c 3e        	<unknown>
1000e8fa: 2d bf        	<unknown>
1000e8fc: 38 3f        	<unknown>
1000e8fe: 4b 3f 39 bf 76 be 92 bf      	<unknown>
1000e906: a1 3e        	<unknown>
1000e908: 81 bf        	<unknown>
1000e90a: 97 3e 08 3f 18 40 f9 3e      	<unknown>
1000e912: a8 bf        	<unknown>
1000e914: 5a 3f        	<unknown>
1000e916: b0 bf        	<unknown>
1000e918: 2e bf        	<unknown>
1000e91a: aa be        	<unknown>
1000e91c: 86 3d        	<unknown>
1000e91e: 84 bf        	<unknown>
1000e920: a9 be        	<unknown>
1000e922: 86 3f        	<unknown>
1000e924: c8 3f        	<unknown>
1000e926: 43 bf e0 3e 8c bf df 3c      	<unknown>
1000e92e: 93 3f be 3f 5c bf 2d bf      	<unknown>
1000e936: 0c c0        	<unknown>
1000e938: b8 3e        	<unknown>
1000e93a: dd be        	<unknown>
1000e93c: 39 bf        	<unknown>
1000e93e: b3 3f 97 be 0a 3f ac bf      	<unknown>
1000e946: 3e bf        	<unknown>
1000e948: 14 3f        	<unknown>
1000e94a: a8 bf        	<unknown>
1000e94c: 7c be        	<unknown>
1000e94e: 4d 3e        	<unknown>
1000e950: 98 bf        	<unknown>
1000e952: e2 3f        	<unknown>
1000e954: b1 3e        	<unknown>
1000e956: a5 bf        	<unknown>
1000e958: e4 bd        	<unknown>
1000e95a: a1 bf        	<unknown>
1000e95c: d3 3e 93 3f 1c 3f 9d 3e      	<unknown>
1000e964: dd 3e        	<unknown>
1000e966: 49 bf        	<unknown>
1000e968: 40 3f        	<unknown>
1000e96a: a9 3e        	<unknown>
1000e96c: 80 bf        	<unknown>
1000e96e: 48 3f        	<unknown>
1000e970: 15 c0        	<unknown>
1000e972: 9d be        	<unknown>
1000e974: 8a bf        	<unknown>
1000e976: 14 bd        	<unknown>
1000e978: f4 bd        	<unknown>
1000e97a: a1 bf        	<unknown>
1000e97c: b4 bf        	<unknown>
1000e97e: 4f bd c7 be 40 bf 59 3f      	<unknown>
1000e986: d0 3e        	<unknown>
1000e988: 14 c0        	<unknown>
1000e98a: 0c c0        	<unknown>
1000e98c: fc be        	<unknown>
1000e98e: 0f 3d b2 3f b2 bf 31 40      	<unknown>
1000e996: 6f bf f3 3f b2 3f 89 bf      	<unknown>
1000e99e: 88 be        	<unknown>
1000e9a0: a1 3f        	<unknown>
1000e9a2: db 3e a2 3f fd bc 09 bf      	<unknown>
1000e9aa: 37 3f 9e 3f a1 bf e5 3f      	<unknown>
1000e9b2: f8 be        	<unknown>
1000e9b4: 32 bf        	<unknown>
1000e9b6: 0d bf        	<unknown>
1000e9b8: 8a bf        	<unknown>
1000e9ba: 2e c0        	<unknown>
1000e9bc: 03 40 a0 bf 17 bf 0f 40      	<unknown>
1000e9c4: a1 3f        	<unknown>
1000e9c6: 19 3f        	<unknown>
1000e9c8: f7 3e 64 3e 6f bf 85 3f      	<unknown>
1000e9d0: 83 bf 5c be 5a bf a4 3f      	<unknown>
1000e9d8: b3 be 0e bf f3 3e b7 bf      	<unknown>
1000e9e0: c9 3c        	<unknown>
1000e9e2: 8d 3e        	<unknown>
1000e9e4: 85 bf        	<unknown>
1000e9e6: 89 bf        	<unknown>
1000e9e8: 3f 3f bd bf 48 bf 4a bf      	<unknown>
1000e9f0: 83 3f 04 3f aa 3d 49 bd      	<unknown>
1000e9f8: e3 3e 10 3e 07 bf bb bf      	<unknown>
1000ea00: 2c 3d        	<unknown>
1000ea02: c1 bf        	<unknown>
1000ea04: 5f 3f 9a 3f f3 3e 8e 3f      	<unknown>
1000ea0c: ed be        	<unknown>
1000ea0e: 86 bf        	<unknown>
1000ea10: 63 3f a8 bf c9 bf 75 3e      	<unknown>
1000ea18: e8 bf        	<unknown>
1000ea1a: e0 3f        	<unknown>
1000ea1c: 01 bf        	<unknown>
1000ea1e: 12 c0        	<unknown>
1000ea20: 2a be        	<unknown>
1000ea22: 37 3f 3c 40 db 3f 5b 3e      	<unknown>
1000ea2a: b2 be        	<unknown>
1000ea2c: 78 bf        	<unknown>
1000ea2e: ba be        	<unknown>
1000ea30: d1 3f        	<unknown>
1000ea32: cf 3f 03 3f a8 be 8a 3f      	<unknown>
1000ea3a: 1a 3f        	<unknown>
1000ea3c: d0 3f        	<unknown>
1000ea3e: 1c 40        	<unknown>
1000ea40: af 3e b7 3f 46 bf f8 be      	<unknown>
1000ea48: 49 be        	<unknown>
1000ea4a: 35 3f        	<unknown>
1000ea4c: 2f bf 64 bf 46 3e d4 be      	<unknown>
1000ea54: 57 be 57 bf 33 40 35 bf      	<unknown>
1000ea5c: 18 bf        	<unknown>
1000ea5e: 01 bf        	<unknown>
1000ea60: c2 bf        	<unknown>
1000ea62: 49 3f        	<unknown>
1000ea64: 95 bf        	<unknown>
1000ea66: 1e 3f        	<unknown>
1000ea68: 90 3d        	<unknown>
1000ea6a: 73 bf 21 3f 80 be 88 3f      	<unknown>
1000ea72: ff bd 01 c0 ef 3f 5e bd      	<unknown>
1000ea7a: 85 3f        	<unknown>
1000ea7c: a9 bf        	<unknown>
1000ea7e: 81 bf        	<unknown>
1000ea80: 35 bf        	<unknown>
1000ea82: 35 c0        	<unknown>
1000ea84: 12 3f        	<unknown>
1000ea86: aa bf        	<unknown>
1000ea88: 01 40        	<unknown>
1000ea8a: 80 3e        	<unknown>
1000ea8c: 15 3f        	<unknown>
1000ea8e: 75 3d        	<unknown>
1000ea90: d7 bf 16 3f ad be 32 bf      	<unknown>
1000ea98: 55 3f        	<unknown>
1000ea9a: 6a 3f        	<unknown>
1000ea9c: 87 bf cc bf 9d 3f d2 bf      	<unknown>
1000eaa4: aa 3f        	<unknown>
1000eaa6: 3d bf        	<unknown>
1000eaa8: 00 bf        	<unknown>
1000eaaa: 0d bf        	<unknown>
1000eaac: 25 3e        	<unknown>
1000eaae: d3 bf f2 3e cb 3f 62 3f      	<unknown>
1000eab6: 8f 3f ad 3e 35 3f 11 40      	<unknown>
1000eabe: 03 be a1 bf 07 bf 3f 3f      	<unknown>
1000eac6: a9 3e        	<unknown>
1000eac8: 4a bf        	<unknown>
1000eaca: 1d be        	<unknown>
1000eacc: 3d bf        	<unknown>
1000eace: d2 3f        	<unknown>
1000ead0: b0 3e        	<unknown>
1000ead2: 93 bf 4a bf 04 bf 82 be      	<unknown>
1000eada: 9d 3f        	<unknown>
1000eadc: be bf        	<unknown>
1000eade: 8e bf        	<unknown>
1000eae0: 73 3f 12 bf db be 4c 3f      	<unknown>
1000eae8: c5 3f        	<unknown>
1000eaea: 6b 3e ce 3e 31 3f 47 3f      	<unknown>
1000eaf2: 1f 3e 79 3f 82 3f 1b 3d      	<unknown>
1000eafa: 07 bf bb 3e 44 3f cb 3e      	<unknown>
1000eb02: 01 be        	<unknown>
1000eb04: 48 3f        	<unknown>
1000eb06: 23 bf fe 3e ae 3c f3 3e      	<unknown>
1000eb0e: 2b bf 84 3f b4 3d 96 3f      	<unknown>
1000eb16: ab 3f 48 3f af 3d 5c bf      	<unknown>
1000eb1e: ba bf        	<unknown>
1000eb20: 46 3f        	<unknown>
1000eb22: 95 3f        	<unknown>
1000eb24: c9 3f        	<unknown>
1000eb26: 1f 3e 94 3e 00 bd 90 bf      	<unknown>
1000eb2e: dd be        	<unknown>
1000eb30: 0b 3f 18 be 11 bf 12 3f      	<unknown>
1000eb38: f9 be        	<unknown>
1000eb3a: a1 bf        	<unknown>
1000eb3c: b8 3f        	<unknown>
1000eb3e: a7 3f 20 bf 94 3f 72 3f      	<unknown>
1000eb46: 95 3f        	<unknown>
1000eb48: da 3f        	<unknown>
1000eb4a: 55 be        	<unknown>
1000eb4c: 61 3f        	<unknown>
1000eb4e: 5e be        	<unknown>
1000eb50: a1 bf        	<unknown>
1000eb52: b2 bf        	<unknown>
1000eb54: 10 3f        	<unknown>
1000eb56: d6 3e        	<unknown>
1000eb58: 00 00        	<unknown>
1000eb5a: 18 bf        	<unknown>
1000eb5c: 2e bf        	<unknown>
1000eb5e: 5f bf 9e bf 6e bf 31 be      	<unknown>
1000eb66: e3 be 08 3f bb bf 17 40      	<unknown>
1000eb6e: 1b 3f 6b bf 4f bf fd be      	<unknown>
1000eb76: 1c c0        	<unknown>
1000eb78: 72 3e        	<unknown>
1000eb7a: 8f 3d 17 3f 89 3f d1 3f      	<unknown>
1000eb82: 52 3e        	<unknown>
1000eb84: 81 3d        	<unknown>
1000eb86: 06 40        	<unknown>
1000eb88: 24 bf        	<unknown>
1000eb8a: a6 3e        	<unknown>
1000eb8c: 3e 3f        	<unknown>
1000eb8e: 55 be        	<unknown>
1000eb90: 4e 3e        	<unknown>
1000eb92: 02 c0        	<unknown>
1000eb94: d6 bf        	<unknown>
1000eb96: f0 be        	<unknown>
1000eb98: 76 bf        	<unknown>
1000eb9a: 62 be        	<unknown>
1000eb9c: ed bf        	<unknown>
1000eb9e: 9a 3f        	<unknown>
1000eba0: b7 bf 1c 3e 1a 3f 66 bf      	<unknown>
1000eba8: 92 3f        	<unknown>
1000ebaa: 8d 3f        	<unknown>
1000ebac: da 3e        	<unknown>
1000ebae: 46 be        	<unknown>
1000ebb0: 98 3e        	<unknown>
1000ebb2: d5 be        	<unknown>
1000ebb4: e9 3f        	<unknown>
1000ebb6: a2 bf        	<unknown>
1000ebb8: 1b bd 3d 3f d1 3e cf bd      	<unknown>
1000ebc0: a4 3f        	<unknown>
1000ebc2: d7 be 5f 3f cd bf 2c 3f      	<unknown>
1000ebca: bc bf        	<unknown>
1000ebcc: 9e be        	<unknown>
1000ebce: 0e 3f        	<unknown>
1000ebd0: 51 be        	<unknown>
1000ebd2: b1 3e        	<unknown>
1000ebd4: eb bf 79 bf 21 bf b4 bf      	<unknown>
1000ebdc: 63 bf 86 3e dc 3f e6 be      	<unknown>
1000ebe4: f7 3d f7 3a 8e 3f 35 3f      	<unknown>
1000ebec: 4d bf        	<unknown>
1000ebee: 5d be        	<unknown>
1000ebf0: 15 40        	<unknown>
1000ebf2: 39 bf        	<unknown>
1000ebf4: 4f be 98 be 9d 3f cf bf      	<unknown>
1000ebfc: b2 bf        	<unknown>
1000ebfe: 2f bf 27 3f 99 3f a3 bf      	<unknown>
1000ec06: 47 bf 6f bf 8a 3d ac bf      	<unknown>
1000ec0e: 6f 3f eb 3e 00 00 39 3f      	<unknown>
1000ec16: 58 bf        	<unknown>
1000ec18: 98 3d        	<unknown>
1000ec1a: e5 bf        	<unknown>
1000ec1c: 0e 3f        	<unknown>
1000ec1e: d3 3f dd be c0 3e 2e bf      	<unknown>
1000ec26: f8 3f        	<unknown>
1000ec28: cf 3f a5 3e ac bf 7c bf      	<unknown>
1000ec30: af bf 12 c0 4a 3f 43 3d      	<unknown>
1000ec38: 83 3f 01 bf 02 40 b2 3f      	<unknown>
1000ec40: 60 3d        	<unknown>
1000ec42: 74 bf        	<unknown>
1000ec44: dd 3f        	<unknown>
1000ec46: 10 3e        	<unknown>
1000ec48: 90 3e        	<unknown>
1000ec4a: 96 3a        	<unknown>
1000ec4c: d1 3f        	<unknown>
1000ec4e: 00 40        	<unknown>
1000ec50: 4a bf        	<unknown>
1000ec52: 6c 3f        	<unknown>
1000ec54: d4 3f        	<unknown>
1000ec56: 5b bf 6b 3f 17 40 a6 3e      	<unknown>
1000ec5e: ab 3f 27 3f 80 be 61 3f      	<unknown>
1000ec66: 3e bf        	<unknown>
1000ec68: c2 bf        	<unknown>
1000ec6a: 7f bf 4d 3f 26 40 eb 3e      	<unknown>
1000ec72: 4b bf bb 3f bd bd ff bf      	<unknown>
1000ec7a: be bd        	<unknown>
1000ec7c: 9e bd        	<unknown>
1000ec7e: b0 bd        	<unknown>
1000ec80: cc 3f        	<unknown>
1000ec82: 9d 3e        	<unknown>
1000ec84: 14 c0        	<unknown>
1000ec86: 37 3e b8 3e aa bf 3c bf      	<unknown>
1000ec8e: 83 be e0 3e 03 bf af 3f      	<unknown>
1000ec96: 82 3e        	<unknown>
1000ec98: 00 00        	<unknown>
1000ec9a: 65 bf        	<unknown>
1000ec9c: 9b 3e 49 be 8d bf d5 be      	<unknown>
1000eca4: e0 bf        	<unknown>
1000eca6: b4 bf        	<unknown>
1000eca8: 9b bd 71 3e 87 3f 38 3f      	<unknown>
1000ecb0: 45 3e        	<unknown>
1000ecb2: a9 bf        	<unknown>
1000ecb4: 51 3f        	<unknown>
1000ecb6: b2 bf        	<unknown>
1000ecb8: ac bf        	<unknown>
1000ecba: 54 40        	<unknown>
1000ecbc: fe be        	<unknown>
1000ecbe: 22 bf        	<unknown>
1000ecc0: 33 3f a3 3d fd 3e 94 bc      	<unknown>
1000ecc8: e9 3e        	<unknown>
1000ecca: 5b bf 7e bf 0e bf 14 bf      	<unknown>
1000ecd2: 22 3f        	<unknown>
1000ecd4: 91 bf        	<unknown>
1000ecd6: 1c be        	<unknown>
1000ecd8: 63 bf a6 3f c0 3f f3 3e      	<unknown>
1000ece0: 66 3f        	<unknown>
1000ece2: 0b 3f 9e 3f 90 be 71 be      	<unknown>
1000ecea: 67 3f b6 be 26 40 0f c0      	<unknown>
1000ecf2: 0b 3f a5 3f 59 3f e9 bb      	<unknown>
1000ecfa: 89 3d        	<unknown>
1000ecfc: 00 bf        	<unknown>
1000ecfe: ff be ab 3f a0 be 51 bf      	<unknown>
1000ed06: 51 bf        	<unknown>
1000ed08: de 3e        	<unknown>
1000ed0a: c2 bf        	<unknown>
1000ed0c: 7b 3f 72 3e 77 bf 2e bf      	<unknown>
1000ed14: 11 bf        	<unknown>
1000ed16: fe 3f        	<unknown>
1000ed18: 40 be        	<unknown>
1000ed1a: 0b 3f 05 bd 84 bf aa 3f      	<unknown>
1000ed22: b5 bf        	<unknown>
1000ed24: a5 3e        	<unknown>
1000ed26: b2 3f        	<unknown>
1000ed28: 04 3f        	<unknown>
1000ed2a: fd bf        	<unknown>
1000ed2c: ec 3f        	<unknown>
1000ed2e: 6d bf        	<unknown>
1000ed30: 6d 3e        	<unknown>
1000ed32: 62 bf        	<unknown>
1000ed34: 03 be 05 40 33 3f 81 3f      	<unknown>
1000ed3c: 17 40 bb 3e 7e 3f 9f 3f      	<unknown>
1000ed44: a2 3f        	<unknown>
1000ed46: 1f be 03 3f c6 3f ca be      	<unknown>
1000ed4e: b8 be        	<unknown>
1000ed50: 02 be        	<unknown>
1000ed52: 95 bf        	<unknown>
1000ed54: d0 bf        	<unknown>
1000ed56: 64 3f        	<unknown>
1000ed58: c6 bf        	<unknown>
1000ed5a: 10 c0        	<unknown>
1000ed5c: 05 bf        	<unknown>
1000ed5e: b0 be        	<unknown>
1000ed60: 83 3f 0f 40 63 bf 81 3f      	<unknown>
1000ed68: 2f 3f 57 3f d1 be 1c 3e      	<unknown>
1000ed70: ec bf        	<unknown>
1000ed72: c9 3f        	<unknown>
1000ed74: a0 bf        	<unknown>
1000ed76: 92 bf        	<unknown>
1000ed78: 09 3d        	<unknown>
1000ed7a: 12 bf        	<unknown>
1000ed7c: 95 bf        	<unknown>
1000ed7e: b3 be cf bc 82 3f 7a 3f      	<unknown>
1000ed86: 12 be        	<unknown>
1000ed88: 9d 3e        	<unknown>
1000ed8a: bf bf 45 be 35 bd 82 bf      	<unknown>
1000ed92: 0a bd        	<unknown>
1000ed94: 05 bd        	<unknown>
1000ed96: 67 3d b2 be f7 3e 87 bf      	<unknown>
1000ed9e: f7 3f 6b bf 17 3f c8 3e      	<unknown>
1000eda6: 93 3f e0 be f9 be 61 3d      	<unknown>
1000edae: 80 bf        	<unknown>
1000edb0: ee be        	<unknown>
1000edb2: 27 3f 34 bf 72 bf 29 3f      	<unknown>
1000edba: 08 3f        	<unknown>
1000edbc: bb bf 7e 3a 23 bf 64 be      	<unknown>
1000edc4: 9e 3e        	<unknown>
1000edc6: e9 bd        	<unknown>
1000edc8: 35 3e        	<unknown>
1000edca: 88 bd        	<unknown>
1000edcc: fc 3e        	<unknown>
1000edce: 21 3f        	<unknown>
1000edd0: e9 bf        	<unknown>
1000edd2: 84 bf        	<unknown>
1000edd4: 0f bf 8f 3f b2 3c 41 bf      	<unknown>
1000eddc: ac bf        	<unknown>
1000edde: bf 3e 5c bf 49 bf 00 be      	<unknown>
1000ede6: bc bd        	<unknown>
1000ede8: bd 3e        	<unknown>
1000edea: 91 be        	<unknown>
1000edec: d0 3e        	<unknown>
1000edee: de be        	<unknown>
1000edf0: ce 3f        	<unknown>
1000edf2: d3 be 54 bf 3c 3f b4 bf      	<unknown>
1000edfa: dc 3e        	<unknown>
1000edfc: c7 bf 7b be b3 3f 65 bd      	<unknown>
1000ee04: 8e 3f        	<unknown>
1000ee06: c2 3f        	<unknown>
1000ee08: 9f 3d f2 be 67 be f0 3e      	<unknown>
1000ee10: 22 c0        	<unknown>
1000ee12: 4c 3f        	<unknown>
1000ee14: a0 bf        	<unknown>
1000ee16: ae 3e        	<unknown>
1000ee18: a0 3e        	<unknown>
1000ee1a: 37 3f 86 bf c5 be 52 3e      	<unknown>
1000ee22: 84 3f        	<unknown>
1000ee24: a3 3e 62 3f 27 bf e7 bc      	<unknown>
1000ee2c: 63 3f c7 bf 38 40 f9 be      	<unknown>
1000ee34: 1f bf aa 3f 00 3d ce 3e      	<unknown>
1000ee3c: 91 3f        	<unknown>
1000ee3e: f7 bd ce 3f 93 3f be bd      	<unknown>
1000ee46: b8 3d        	<unknown>
1000ee48: 3c bf        	<unknown>
1000ee4a: aa 3f        	<unknown>
1000ee4c: 09 40        	<unknown>
1000ee4e: 04 40        	<unknown>
1000ee50: 76 3f        	<unknown>
1000ee52: 63 bf 00 40 04 3f 10 bf      	<unknown>
1000ee5a: 20 bf        	<unknown>
1000ee5c: 32 bf        	<unknown>
1000ee5e: cc bf        	<unknown>
1000ee60: 32 bf        	<unknown>
1000ee62: 92 3e        	<unknown>
1000ee64: 8e 3f        	<unknown>
1000ee66: a1 3e        	<unknown>
1000ee68: 55 3f        	<unknown>
1000ee6a: b9 3e        	<unknown>
1000ee6c: 04 3f        	<unknown>
1000ee6e: d0 be        	<unknown>
1000ee70: 37 3e 8c bf 4e bf cd bf      	<unknown>
1000ee78: f4 bf        	<unknown>
1000ee7a: 06 bf        	<unknown>
1000ee7c: b7 3d a5 bf f3 3e da be      	<unknown>
1000ee84: 17 3f cf be bd 3e 1c 3f      	<unknown>
1000ee8c: 98 3e        	<unknown>
1000ee8e: b8 be        	<unknown>
1000ee90: f3 3d b2 3f ac 3f 98 bc      	<unknown>
1000ee98: bd be        	<unknown>
1000ee9a: 63 bf 8b 3f 38 40 52 bf      	<unknown>
1000eea2: 91 bf        	<unknown>
1000eea4: 1e bf        	<unknown>
1000eea6: bd 3f        	<unknown>
1000eea8: c4 be        	<unknown>
1000eeaa: 91 bf        	<unknown>
1000eeac: 32 bf        	<unknown>
1000eeae: e0 bf        	<unknown>
1000eeb0: 82 bf        	<unknown>
1000eeb2: b0 be        	<unknown>
1000eeb4: 92 bf        	<unknown>
1000eeb6: 9c bf        	<unknown>
1000eeb8: 7e 3f        	<unknown>
1000eeba: bf bf 37 3e 97 bf aa 3f      	<unknown>
1000eec2: 45 be        	<unknown>
1000eec4: 61 3f        	<unknown>
1000eec6: 3a 3f        	<unknown>
1000eec8: be bf        	<unknown>
1000eeca: 99 bf        	<unknown>
1000eecc: 0e 3e        	<unknown>
1000eece: b5 3e        	<unknown>
1000eed0: 35 3f        	<unknown>
1000eed2: c5 3f        	<unknown>
1000eed4: 1d 3e        	<unknown>
1000eed6: 62 3f        	<unknown>
1000eed8: 2b 3f 88 be 87 bf 7f 3e      	<unknown>
1000eee0: 06 bf        	<unknown>
1000eee2: 81 bf        	<unknown>
1000eee4: 5c 3d        	<unknown>
1000eee6: 56 3e        	<unknown>
1000eee8: 56 bf        	<unknown>
1000eeea: b8 3f        	<unknown>
1000eeec: fd bd        	<unknown>
1000eeee: 38 be        	<unknown>
1000eef0: cd 3c        	<unknown>
1000eef2: ca 3f        	<unknown>
1000eef4: 41 3f        	<unknown>
1000eef6: b2 3f        	<unknown>
1000eef8: 99 3e        	<unknown>
1000eefa: 81 3f        	<unknown>
1000eefc: 91 3c        	<unknown>
1000eefe: a0 be        	<unknown>
1000ef00: ba 3f        	<unknown>
1000ef02: 2f bf b4 be 54 3e 11 3e      	<unknown>
1000ef0a: 1f c0 1f 40 d4 3f 90 bf      	<unknown>
1000ef12: 8d bf        	<unknown>
1000ef14: ed be        	<unknown>
1000ef16: 33 bf 5c bf 90 3f d4 3f      	<unknown>
1000ef1e: dd 3f        	<unknown>
1000ef20: 4e bf        	<unknown>
1000ef22: f8 3d        	<unknown>
1000ef24: 87 be f2 be aa be 9e bf      	<unknown>
1000ef2c: a0 bf        	<unknown>
1000ef2e: b4 3e        	<unknown>
1000ef30: cf 3f da 3f 1b 3d 98 be      	<unknown>
1000ef38: 74 bf        	<unknown>
1000ef3a: 5c 3e        	<unknown>
1000ef3c: 04 3f        	<unknown>
1000ef3e: a1 3d        	<unknown>
1000ef40: e8 3c        	<unknown>
1000ef42: b5 3f        	<unknown>
1000ef44: b6 3e        	<unknown>
1000ef46: a9 3f        	<unknown>
1000ef48: a8 be        	<unknown>
1000ef4a: 8e bf        	<unknown>
1000ef4c: 53 3f 9d be 19 3f c8 3e      	<unknown>
1000ef54: 0a c0        	<unknown>
1000ef56: da bf        	<unknown>
1000ef58: a7 be b5 3d 3f 3f 03 3f      	<unknown>
1000ef60: f3 be fb 3e cb bf aa 3f      	<unknown>
1000ef68: d6 3d        	<unknown>
1000ef6a: ce 3e        	<unknown>
1000ef6c: 9a 3f        	<unknown>
1000ef6e: 5b 3f f9 3d 23 be 11 bf      	<unknown>
1000ef76: 85 3d        	<unknown>
1000ef78: c1 bf        	<unknown>
1000ef7a: d7 3e 00 40 85 3f 73 3f      	<unknown>
1000ef82: 92 bf        	<unknown>
1000ef84: f3 bd c1 3e 25 3f 09 be      	<unknown>
1000ef8c: 04 bf        	<unknown>
1000ef8e: 75 be        	<unknown>
1000ef90: 33 3f 37 bf 26 bf da be      	<unknown>
1000ef98: 88 3e        	<unknown>
1000ef9a: 8f 3e 84 bf 81 be b9 3f      	<unknown>
1000efa2: 63 bd 37 3f d3 3d 48 3f      	<unknown>
1000efaa: 65 3e        	<unknown>
1000efac: 79 bf        	<unknown>
1000efae: 1b 3f 06 c0 99 3f 3e bd      	<unknown>
1000efb6: 80 3f        	<unknown>
1000efb8: 48 3e        	<unknown>
1000efba: 2d 3f        	<unknown>
1000efbc: 62 3f        	<unknown>
1000efbe: 62 bf        	<unknown>
1000efc0: 00 00        	<unknown>
1000efc2: 4c 3f        	<unknown>
1000efc4: 8b be e7 3f 0c be 68 be      	<unknown>
1000efcc: 08 3f        	<unknown>
1000efce: 7f 3e 00 00 53 bd 31 3e      	<unknown>
1000efd6: 93 3f dd be 68 bf b5 3e      	<unknown>
1000efde: 41 bf        	<unknown>
1000efe0: f8 3d        	<unknown>
1000efe2: a5 be        	<unknown>
1000efe4: 0e be        	<unknown>
1000efe6: 29 c0        	<unknown>
1000efe8: bb 3f 8e 3f 0e bf 10 c0      	<unknown>
1000eff0: cb 3e a4 39 43 bf 01 3e      	<unknown>
1000eff8: 10 be        	<unknown>
1000effa: cc 3e        	<unknown>
1000effc: ea 3e        	<unknown>
1000effe: c6 be        	<unknown>
1000f000: 7d 3c        	<unknown>
1000f002: 42 bf        	<unknown>
1000f004: 94 3d        	<unknown>
1000f006: 0a bf        	<unknown>
1000f008: 30 bd        	<unknown>
1000f00a: b8 3e        	<unknown>
1000f00c: 69 3f        	<unknown>
1000f00e: f7 be 25 3f 9f be 85 bf      	<unknown>
1000f016: bb 3e 30 be 90 3c 69 3f      	<unknown>
1000f01e: 29 c0        	<unknown>
1000f020: 4c 3f        	<unknown>
1000f022: f1 3f        	<unknown>
1000f024: 72 3f        	<unknown>
1000f026: 83 3c 46 3f 41 3f d3 be      	<unknown>
1000f02e: 97 3e a1 3d 3e 3e 80 bf      	<unknown>
1000f036: d9 be        	<unknown>
1000f038: 90 bf        	<unknown>
1000f03a: 5a bf        	<unknown>
1000f03c: bd 3f        	<unknown>
1000f03e: 90 bf        	<unknown>
1000f040: d6 bf        	<unknown>
1000f042: 54 3f        	<unknown>
1000f044: 1b 3f bd 3f 99 3f 88 bf      	<unknown>
1000f04c: d6 3d        	<unknown>
1000f04e: 61 3f        	<unknown>
1000f050: 71 be        	<unknown>
1000f052: 5c bd        	<unknown>
1000f054: 15 3f        	<unknown>
1000f056: 94 3f        	<unknown>
1000f058: 99 3e        	<unknown>
1000f05a: 21 c0        	<unknown>
1000f05c: 08 bf        	<unknown>
1000f05e: a4 bf        	<unknown>
1000f060: 1e 3f        	<unknown>
1000f062: bd be        	<unknown>
1000f064: 15 be        	<unknown>
1000f066: ba 3e        	<unknown>
1000f068: b0 bd        	<unknown>
1000f06a: c4 3f        	<unknown>
1000f06c: b5 3f        	<unknown>
1000f06e: 92 be        	<unknown>
1000f070: 4a 3f        	<unknown>
1000f072: 47 3f e1 3e 35 bf ed 3f      	<unknown>
1000f07a: 29 bf        	<unknown>
1000f07c: 66 be        	<unknown>
1000f07e: dc be        	<unknown>
1000f080: 0b c0 f3 be b8 3f 2f 3f      	<unknown>
1000f088: 0f 3f 42 3e 42 3a 17 be      	<unknown>
1000f090: 8a be        	<unknown>
1000f092: 8a 3f        	<unknown>
1000f094: 0e be        	<unknown>
1000f096: a6 3e        	<unknown>
1000f098: 8d 3f        	<unknown>
1000f09a: 39 bf        	<unknown>
1000f09c: c4 3f        	<unknown>
1000f09e: 26 3d        	<unknown>
1000f0a0: 58 3e        	<unknown>
1000f0a2: 81 3e        	<unknown>
1000f0a4: 03 be 5c be bf bf 4d 3f      	<unknown>
1000f0ac: 87 3f 9a bf 07 bf 82 3f      	<unknown>
1000f0b4: bb bf 9b be be 3a 83 3f      	<unknown>
1000f0bc: a4 3f        	<unknown>
1000f0be: 54 be        	<unknown>
1000f0c0: f1 3c        	<unknown>
1000f0c2: fb be ef 3e 50 bf 28 bf      	<unknown>
1000f0ca: cd 3e        	<unknown>
1000f0cc: 91 3f        	<unknown>
1000f0ce: e6 be        	<unknown>
1000f0d0: 1f 3f 53 40 95 bf 62 bf      	<unknown>
1000f0d8: cd 3f        	<unknown>
1000f0da: cd be        	<unknown>
1000f0dc: 5f be bd be fa bf 33 bf      	<unknown>
1000f0e4: 22 3f        	<unknown>
1000f0e6: d7 bf 7d be 48 bd 06 3f      	<unknown>
1000f0ee: 5f 3e 4d bf 9b 3f 22 3e      	<unknown>
1000f0f6: d4 bf        	<unknown>
1000f0f8: 50 bd        	<unknown>
1000f0fa: d2 be        	<unknown>
1000f0fc: cf be aa bf 1d 3f 32 bf      	<unknown>
1000f104: fb 3f 85 3f 5b 3e ce 3f      	<unknown>
1000f10c: 4a 3d        	<unknown>
1000f10e: c5 bf        	<unknown>
1000f110: ed bf        	<unknown>
1000f112: 42 bf        	<unknown>
1000f114: 46 3e        	<unknown>
1000f116: 22 40        	<unknown>
1000f118: 15 bf        	<unknown>
1000f11a: 8a 3f        	<unknown>
1000f11c: a8 bf        	<unknown>
1000f11e: 8a 3f        	<unknown>
1000f120: e2 3e        	<unknown>
1000f122: e4 bf        	<unknown>
1000f124: ba 3f        	<unknown>
1000f126: 00 40        	<unknown>
1000f128: 9e 3f        	<unknown>
1000f12a: b1 3d        	<unknown>
1000f12c: b5 39        	<unknown>
1000f12e: 11 be        	<unknown>
1000f130: d4 be        	<unknown>
1000f132: 68 3e        	<unknown>
1000f134: c4 bf        	<unknown>
1000f136: cd 3e        	<unknown>
1000f138: a5 3f        	<unknown>
1000f13a: b2 3e        	<unknown>
1000f13c: 36 3f        	<unknown>
1000f13e: 0f be cd 3f 68 3d fc bf      	<unknown>
1000f146: 0e 3c        	<unknown>
1000f148: e6 bf        	<unknown>
1000f14a: 05 3f        	<unknown>
1000f14c: 25 3f        	<unknown>
1000f14e: 86 3d        	<unknown>
1000f150: 9e bf        	<unknown>
1000f152: e4 3d        	<unknown>
1000f154: 84 bf        	<unknown>
1000f156: af bf 9f be 41 bf dc 3e      	<unknown>
1000f15e: de bf        	<unknown>
1000f160: 67 bf be bd 75 bf b4 3f      	<unknown>
1000f168: 92 bf        	<unknown>
1000f16a: e6 bf        	<unknown>
1000f16c: 20 be        	<unknown>
1000f16e: 68 bf        	<unknown>
1000f170: cf be 3e 3f fd 3c d6 3d      	<unknown>
1000f178: cf 3f 82 bf a8 bf 03 be      	<unknown>
1000f180: cb bf 24 3f be 3e a0 bd      	<unknown>
1000f188: f6 3e        	<unknown>
1000f18a: d5 bd        	<unknown>
1000f18c: 45 bf        	<unknown>
1000f18e: 34 3f        	<unknown>
1000f190: cf be e0 bf 51 be db be      	<unknown>
1000f198: 42 3f        	<unknown>
1000f19a: 55 3f        	<unknown>
1000f19c: 8b bf 51 be 82 bf e2 bf      	<unknown>
1000f1a4: 40 3f        	<unknown>
1000f1a6: a0 be        	<unknown>
1000f1a8: aa 3f        	<unknown>
1000f1aa: 37 3d a9 3f d8 3c d4 be      	<unknown>
1000f1b2: 5b bd bb bf 60 3f 98 3e      	<unknown>
1000f1ba: ef 3f 39 bf 8d 3f 3a bf      	<unknown>
1000f1c2: e5 be        	<unknown>
1000f1c4: b1 bd        	<unknown>
1000f1c6: 33 3f 6c 3f 59 be 84 3f      	<unknown>
1000f1ce: 6f 3f bb bf ad 3f 7c bf      	<unknown>
1000f1d6: 82 bf        	<unknown>
1000f1d8: dd 3f        	<unknown>
1000f1da: 2c bf        	<unknown>
1000f1dc: bd 3e        	<unknown>
1000f1de: ce be        	<unknown>
1000f1e0: 99 3f        	<unknown>
1000f1e2: 27 bf 71 3f 49 bf fe 3f      	<unknown>
1000f1ea: 0d bf        	<unknown>
1000f1ec: 06 40        	<unknown>
1000f1ee: 14 bf        	<unknown>
1000f1f0: db 3e 9c 3e 45 3f 2f bf      	<unknown>
1000f1f8: 06 c0        	<unknown>
1000f1fa: 1a 3f        	<unknown>
1000f1fc: d6 3e        	<unknown>
1000f1fe: a8 3e        	<unknown>
1000f200: 58 bf        	<unknown>
1000f202: 10 bf        	<unknown>
1000f204: 2e bf        	<unknown>
1000f206: 67 3f ca 3f ee bf 34 be      	<unknown>
1000f20e: d1 3e        	<unknown>
1000f210: bb bf d7 3e 06 3f a8 bf      	<unknown>
1000f218: 47 3e 2a bf 77 bf c4 be      	<unknown>
1000f220: e0 bd        	<unknown>
1000f222: 75 bf        	<unknown>
1000f224: b0 3f        	<unknown>
1000f226: 99 3a        	<unknown>
1000f228: 53 bf 8e 3e c0 bf d5 bf      	<unknown>
1000f230: 9f bf 5e 3f 60 be 1a 40      	<unknown>
1000f238: 2f 3e cb 3f 1d bf 5c 3d      	<unknown>
1000f240: 1a bf        	<unknown>
1000f242: f7 3e 74 bd 0c 3f ef 3f      	<unknown>
1000f24a: 0f 40 0f 3f 91 bf 86 bf      	<unknown>
1000f252: 5f bf 11 be 8a 3f 38 3f      	<unknown>
1000f25a: dd bf        	<unknown>
1000f25c: b5 be        	<unknown>
1000f25e: 9e 3e        	<unknown>
1000f260: ae bf        	<unknown>
1000f262: 68 3f        	<unknown>
1000f264: cb bf 7e 3f f2 3f a5 3f      	<unknown>
1000f26c: c1 3f        	<unknown>
1000f26e: 92 bf        	<unknown>
1000f270: b8 bf        	<unknown>
1000f272: 7f 3e 51 3d a3 bf 06 40      	<unknown>
1000f27a: f1 bf        	<unknown>
1000f27c: fe 3e        	<unknown>
1000f27e: 49 be        	<unknown>
1000f280: 94 3f        	<unknown>
1000f282: a9 3f        	<unknown>
1000f284: 6b bf 51 bf 12 3f 3b 3e      	<unknown>
1000f28c: c9 3f        	<unknown>
1000f28e: 44 bf        	<unknown>
1000f290: 2f bf 84 3f b9 be a4 be      	<unknown>
1000f298: 66 3f        	<unknown>
1000f29a: 0d bf        	<unknown>
1000f29c: 6e 3e        	<unknown>
1000f29e: 16 3d        	<unknown>
1000f2a0: 2e c0        	<unknown>
1000f2a2: b4 3f        	<unknown>
1000f2a4: fd bf        	<unknown>
1000f2a6: d7 bd c5 3f 9c bf b9 3e      	<unknown>
1000f2ae: b2 bf        	<unknown>
1000f2b0: c4 be        	<unknown>
1000f2b2: bc 3f        	<unknown>
1000f2b4: 82 3d        	<unknown>
1000f2b6: 32 bf        	<unknown>
1000f2b8: 7a be        	<unknown>
1000f2ba: 6f 3d 46 3f 38 3d 2a be      	<unknown>
1000f2c2: c3 3e 57 3d cf 3f 0f c0      	<unknown>
1000f2ca: ff be 15 bf 0e 3f dd be      	<unknown>
1000f2d2: 0b 3f b3 bf 4c 3e db 3f      	<unknown>
1000f2da: c4 be        	<unknown>
1000f2dc: 44 bf        	<unknown>
1000f2de: 8c 3f        	<unknown>
1000f2e0: a7 bf 01 bd 3f bf 7d be      	<unknown>
1000f2e8: b3 3e 29 be a4 bd bc be      	<unknown>
1000f2f0: 94 be        	<unknown>
1000f2f2: 9e 3e        	<unknown>
1000f2f4: 7c bf        	<unknown>
1000f2f6: ad bf        	<unknown>
1000f2f8: aa bf        	<unknown>
1000f2fa: 8e 3e        	<unknown>
1000f2fc: 69 bf        	<unknown>
1000f2fe: 7e be        	<unknown>
1000f300: 7d 3f        	<unknown>
1000f302: 78 bf        	<unknown>
1000f304: cb 3f 81 3e 27 3f 61 3e      	<unknown>
1000f30c: 21 bf        	<unknown>
1000f30e: 88 3f        	<unknown>
1000f310: 21 be        	<unknown>
1000f312: 9f be be bf c5 bf 4c 3e      	<unknown>
1000f31a: 75 bf        	<unknown>
1000f31c: b0 bf        	<unknown>
1000f31e: 6b 3f 9f be ba bf a5 be      	<unknown>
1000f326: 16 40        	<unknown>
1000f328: eb bd 06 3f 1b be cf 3f      	<unknown>
1000f330: 1a bc        	<unknown>
1000f332: 26 bf        	<unknown>
1000f334: 0f bf 81 bf 08 bf f0 3d      	<unknown>
1000f33c: 34 bf        	<unknown>
1000f33e: 83 be 0c 40 a4 3f ec 3d      	<unknown>
1000f346: 36 3f        	<unknown>
1000f348: 6b 3f d0 3e d2 3f 61 3f      	<unknown>
1000f350: 03 c0 28 be 45 3f a4 bf      	<unknown>
1000f358: d5 bf        	<unknown>
1000f35a: fc 3e        	<unknown>
1000f35c: 67 bf 89 3e d6 3e ac 3d      	<unknown>
1000f364: f1 bf        	<unknown>
1000f366: 41 3e        	<unknown>
1000f368: d9 3e        	<unknown>
1000f36a: ff be ad 3e 1c 40 4b 3e      	<unknown>
1000f372: be 3d        	<unknown>
1000f374: fe 3f        	<unknown>
1000f376: 2e c0        	<unknown>
1000f378: 00 00        	<unknown>
1000f37a: c4 be        	<unknown>
1000f37c: 52 3f        	<unknown>
1000f37e: 92 bf        	<unknown>
1000f380: bc bf        	<unknown>
1000f382: af 3f 89 3e 39 40 33 3f      	<unknown>
1000f38a: 18 3d        	<unknown>
1000f38c: 84 3f        	<unknown>
1000f38e: ef 3f 9a bf 03 40 95 bf      	<unknown>
1000f396: 11 3e        	<unknown>
1000f398: f4 bf        	<unknown>
1000f39a: 97 3e 99 be ef 3e 3e 3f      	<unknown>
1000f3a2: ba 3f        	<unknown>
1000f3a4: 45 3f        	<unknown>
1000f3a6: 83 3f 67 3f 55 bf ec bf      	<unknown>
1000f3ae: 6d 3e        	<unknown>
1000f3b0: 73 3f 7d bf 39 bf 10 bf      	<unknown>
1000f3b8: 6d be        	<unknown>
1000f3ba: 1f 3f 17 40 cd bd c5 be      	<unknown>
1000f3c2: 14 3f        	<unknown>
1000f3c4: b2 bf        	<unknown>
1000f3c6: 1f 40 64 3e 4f 3e 04 3f      	<unknown>
1000f3ce: 45 3f        	<unknown>
1000f3d0: c8 3f        	<unknown>
1000f3d2: c0 3f        	<unknown>
1000f3d4: 25 bf        	<unknown>
1000f3d6: 7b 3e a6 be 01 bf ab 3f      	<unknown>
1000f3de: 5e bf        	<unknown>
1000f3e0: 75 be        	<unknown>
1000f3e2: b6 3f        	<unknown>
1000f3e4: 56 3e        	<unknown>
1000f3e6: a9 3f        	<unknown>
1000f3e8: 2a bf        	<unknown>
1000f3ea: c2 3f        	<unknown>
1000f3ec: a8 bd        	<unknown>
1000f3ee: 40 3e        	<unknown>
1000f3f0: 5e 3e        	<unknown>
1000f3f2: 22 3f        	<unknown>
1000f3f4: a3 bf 61 3f 45 3f db bf      	<unknown>
1000f3fc: e3 3f 37 bf 0d 40 0e 3f      	<unknown>
1000f404: 86 be        	<unknown>
1000f406: 3d 3e        	<unknown>
1000f408: a1 bf        	<unknown>
1000f40a: 1e be        	<unknown>
1000f40c: a1 3d        	<unknown>
1000f40e: 19 3f        	<unknown>
1000f410: d0 3f        	<unknown>
1000f412: 98 3e        	<unknown>
1000f414: b8 bf        	<unknown>
1000f416: eb bf 3d 3f 55 40 83 3e      	<unknown>
1000f41e: 59 3f        	<unknown>
1000f420: 34 bf        	<unknown>
1000f422: b0 bf        	<unknown>
1000f424: 72 3f        	<unknown>
1000f426: 89 3e        	<unknown>
1000f428: ff be ea 3e e6 3e ba 3f      	<unknown>
1000f430: 0a bf        	<unknown>
1000f432: 6d bf        	<unknown>
1000f434: 0f bf 99 3f d1 bd 5b 3f      	<unknown>
1000f43c: d2 3f        	<unknown>
1000f43e: 00 c0        	<unknown>
1000f440: 0e bf        	<unknown>
1000f442: 9c 3f        	<unknown>
1000f444: bb 3f 7c 3b d2 3f 6f 3f      	<unknown>
1000f44c: 92 3d        	<unknown>
1000f44e: ad 3f        	<unknown>
1000f450: ec 3d        	<unknown>
1000f452: 1f bf bb 3f 1b bf 36 bf      	<unknown>
1000f45a: 09 c0        	<unknown>
1000f45c: 77 be 0f 3f 35 3f d5 bf      	<unknown>
1000f464: ae 3d        	<unknown>
1000f466: 47 3f 4b 3f 0b bf 6c 3f      	<unknown>
1000f46e: 5f bf 59 bf 03 c0 54 3f      	<unknown>
1000f476: bc 3e        	<unknown>
1000f478: e8 bf        	<unknown>
1000f47a: c2 be        	<unknown>
1000f47c: b1 3f        	<unknown>
1000f47e: 1b bf 27 3e 16 bf 78 bf      	<unknown>
1000f486: 0a 3e        	<unknown>
1000f488: c8 bf        	<unknown>
1000f48a: e3 be 15 3f 97 3f 90 bd      	<unknown>
1000f492: 8c 3f        	<unknown>
1000f494: f7 bd 65 3f aa 3f 78 bf      	<unknown>
1000f49c: e1 bf        	<unknown>
1000f49e: 4d bf        	<unknown>
1000f4a0: 19 3f        	<unknown>
1000f4a2: ef 3e 7e 3f 67 3e 75 be      	<unknown>
1000f4aa: ec 3e        	<unknown>
1000f4ac: 3c 3f        	<unknown>
1000f4ae: 20 3e        	<unknown>
1000f4b0: 52 bf        	<unknown>
1000f4b2: a7 3f 44 bf e8 3d 8e bf      	<unknown>
1000f4ba: 35 bd        	<unknown>
1000f4bc: 34 3f        	<unknown>
1000f4be: 73 bf bb 3f 03 bf 8c 3f      	<unknown>
1000f4c6: 34 3f        	<unknown>
1000f4c8: b8 be        	<unknown>
1000f4ca: 2d bf        	<unknown>
1000f4cc: b4 be        	<unknown>
1000f4ce: 05 40        	<unknown>
1000f4d0: 06 bf        	<unknown>
1000f4d2: 69 be        	<unknown>
1000f4d4: 1a bf        	<unknown>
1000f4d6: fd 3e        	<unknown>
1000f4d8: b9 bf        	<unknown>
1000f4da: c6 3d        	<unknown>
1000f4dc: 93 3f 00 00 22 bf be 3f      	<unknown>
1000f4e4: 8f 3f 99 3f fc 3e 61 bf      	<unknown>
1000f4ec: 0c bf        	<unknown>
1000f4ee: 44 be        	<unknown>
1000f4f0: 3c 3f        	<unknown>
1000f4f2: 60 bf        	<unknown>
1000f4f4: e0 bf        	<unknown>
1000f4f6: 58 3f        	<unknown>
1000f4f8: 64 bf        	<unknown>
1000f4fa: e5 3d        	<unknown>
1000f4fc: 81 bf        	<unknown>
1000f4fe: 78 3f        	<unknown>
1000f500: 13 3e c4 3f 15 bf 08 3f      	<unknown>
1000f508: 35 3f        	<unknown>
1000f50a: 7e 3f        	<unknown>
1000f50c: 55 c0        	<unknown>
1000f50e: 19 be        	<unknown>
1000f510: 0c bf        	<unknown>
1000f512: 90 3f        	<unknown>
1000f514: 05 40        	<unknown>
1000f516: c9 3e        	<unknown>
1000f518: 19 c0        	<unknown>
1000f51a: 50 3f        	<unknown>
1000f51c: 53 3b 99 3f d7 be d0 3d      	<unknown>
1000f524: a4 be        	<unknown>
1000f526: 3a be        	<unknown>
1000f528: aa 3f        	<unknown>
1000f52a: 23 c0 9e 3f 53 bd 13 3f      	<unknown>
1000f532: 09 40        	<unknown>
1000f534: 23 bd c4 3e 1f 40 99 3f      	<unknown>
1000f53c: be bf        	<unknown>
1000f53e: 3c 3f        	<unknown>
1000f540: 9d 3e        	<unknown>
1000f542: 15 bf        	<unknown>
1000f544: c5 3f        	<unknown>
1000f546: 8f bc e5 3f a5 be 82 3f      	<unknown>
1000f54e: 5b 3e 9d be 8b 3f 7a be      	<unknown>
1000f556: 4b be 46 bf d3 3e 19 bf      	<unknown>
1000f55e: 39 bf        	<unknown>
1000f560: 1c be        	<unknown>
1000f562: fd be        	<unknown>
1000f564: 84 3e        	<unknown>
1000f566: c4 bf        	<unknown>
1000f568: fa 3d        	<unknown>
1000f56a: 01 c0        	<unknown>
1000f56c: b8 be        	<unknown>
1000f56e: 3e be        	<unknown>
1000f570: f8 be        	<unknown>
1000f572: 0f 40 fa bf fd be 98 3f      	<unknown>
1000f57a: ae 3f        	<unknown>
1000f57c: 51 3f        	<unknown>
1000f57e: 9d bf        	<unknown>
1000f580: ab 3e 60 3e 8f 3f d3 3f      	<unknown>
1000f588: 1d 3f        	<unknown>
1000f58a: e7 3f 00 40 5f 3d 06 bf      	<unknown>
1000f592: ab bf dc 3e 50 3e 1e 40      	<unknown>
1000f59a: 00 00        	<unknown>
1000f59c: b9 bf        	<unknown>
1000f59e: aa be        	<unknown>
1000f5a0: b8 3f        	<unknown>
1000f5a2: 21 bf        	<unknown>
1000f5a4: ee 3e        	<unknown>
1000f5a6: 20 bf        	<unknown>
1000f5a8: c9 be        	<unknown>
1000f5aa: 36 3f        	<unknown>
1000f5ac: 9f be da 3f 4a bf 1a bf      	<unknown>
1000f5b4: 62 3e        	<unknown>
1000f5b6: b6 3e        	<unknown>
1000f5b8: 96 3e        	<unknown>
1000f5ba: 99 bf        	<unknown>
1000f5bc: e5 3f        	<unknown>
1000f5be: fe be        	<unknown>
1000f5c0: 34 3f        	<unknown>
1000f5c2: e5 be        	<unknown>
1000f5c4: 24 3d        	<unknown>
1000f5c6: f1 3d        	<unknown>
1000f5c8: 07 3f cc bf ce be 89 bf      	<unknown>
1000f5d0: fa 3f        	<unknown>
1000f5d2: cb bf c8 3e 49 3f b8 bf      	<unknown>
1000f5da: fa 3e        	<unknown>
1000f5dc: 0d c0        	<unknown>
1000f5de: ff be bb bf 3a 3e 36 3f      	<unknown>
1000f5e6: ba bf        	<unknown>
1000f5e8: 14 c0        	<unknown>
1000f5ea: 1f bf 55 3f e7 3f 3d 3e      	<unknown>
1000f5f2: f7 3d fe 3f 99 be 21 3f      	<unknown>
1000f5fa: a0 3f        	<unknown>
1000f5fc: 27 3d 26 bf 5f 3e c9 3e      	<unknown>
1000f604: 24 40        	<unknown>
1000f606: b8 bf        	<unknown>
1000f608: a7 be 79 bf b1 be 9d be      	<unknown>
1000f610: db 3e d2 3e 24 3f ee 3e      	<unknown>
1000f618: 03 3f 9e 3d 86 3f cc 3d      	<unknown>
1000f620: 14 c0        	<unknown>
1000f622: af be 3e bf 95 bd d6 3f      	<unknown>
1000f62a: 29 bf        	<unknown>
1000f62c: 84 3f        	<unknown>
1000f62e: 88 3f        	<unknown>
1000f630: 13 3b b9 3e 1c be 84 3f      	<unknown>
1000f638: ec 3e        	<unknown>
1000f63a: d3 be 0c 3f d6 3c be 3f      	<unknown>
1000f642: dc bf        	<unknown>
1000f644: dc 3f        	<unknown>
1000f646: 59 be        	<unknown>
1000f648: dd 3e        	<unknown>
1000f64a: 3c bf        	<unknown>
1000f64c: 91 3f        	<unknown>
1000f64e: 24 3e        	<unknown>
1000f650: 62 3f        	<unknown>
1000f652: c6 bf        	<unknown>
1000f654: 15 40        	<unknown>
1000f656: 42 3f        	<unknown>
1000f658: b5 3f        	<unknown>
1000f65a: 2a 3f        	<unknown>
1000f65c: 82 be        	<unknown>
1000f65e: 14 c0        	<unknown>
1000f660: 82 3f        	<unknown>
1000f662: 26 3f        	<unknown>
1000f664: 5a bf        	<unknown>
1000f666: 0a be        	<unknown>
1000f668: 14 3d        	<unknown>
1000f66a: 39 c0        	<unknown>
1000f66c: fb 3e 1b bf bb 3e 08 40      	<unknown>
1000f674: b7 3f 30 3e 05 bf 92 3f      	<unknown>
1000f67c: 85 bc        	<unknown>
1000f67e: 2a 3f        	<unknown>
1000f680: 75 3f        	<unknown>
1000f682: bb bf 5a 3f b9 3e f8 be      	<unknown>
1000f68a: 80 bf        	<unknown>
1000f68c: 9e bf        	<unknown>
1000f68e: f1 be        	<unknown>
1000f690: b0 be        	<unknown>
1000f692: bf 3e ac be 82 3e 0c 40      	<unknown>
1000f69a: 45 3f        	<unknown>
1000f69c: 27 3f 58 be 97 3f 09 3f      	<unknown>
1000f6a4: 30 c0        	<unknown>
1000f6a6: 91 3f        	<unknown>
1000f6a8: 1d 3d        	<unknown>
1000f6aa: 9e 3f        	<unknown>
1000f6ac: 04 bf        	<unknown>
1000f6ae: af bf 21 3f a3 3d 11 bf      	<unknown>
1000f6b6: 00 00        	<unknown>
1000f6b8: 0a 3f        	<unknown>
1000f6ba: 2e bf        	<unknown>
1000f6bc: 3b 3f 83 3f 29 bf c9 3f      	<unknown>
1000f6c4: eb 3e 3f be 0e be d8 bf      	<unknown>
1000f6cc: 8e 3e        	<unknown>
1000f6ce: 66 bf        	<unknown>
1000f6d0: ed 3e        	<unknown>
1000f6d2: 4a 3f        	<unknown>
1000f6d4: 85 3f        	<unknown>
1000f6d6: e8 bd        	<unknown>
1000f6d8: fe 3f        	<unknown>
1000f6da: 95 be        	<unknown>
1000f6dc: b3 3f 85 3f bb 3e 0d bf      	<unknown>
1000f6e4: 08 3e        	<unknown>
1000f6e6: 7c bf        	<unknown>
1000f6e8: aa 3f        	<unknown>
1000f6ea: 35 3f        	<unknown>
1000f6ec: 19 bf        	<unknown>
1000f6ee: e3 3e eb 3f 19 bf a5 3f      	<unknown>
1000f6f6: 64 3f        	<unknown>
1000f6f8: 35 bd        	<unknown>
1000f6fa: e1 bf        	<unknown>
1000f6fc: 45 be        	<unknown>
1000f6fe: ba 3e        	<unknown>
1000f700: 28 c0        	<unknown>
1000f702: 31 be        	<unknown>
1000f704: a3 3e 42 bf 0d 3f 57 bf      	<unknown>
1000f70c: 40 3f        	<unknown>
1000f70e: b3 3e 56 3e 34 3f 50 bd      	<unknown>
1000f716: 98 3f        	<unknown>
1000f718: 80 bf        	<unknown>
1000f71a: 89 3f        	<unknown>
1000f71c: c4 be        	<unknown>
1000f71e: c8 3f        	<unknown>
1000f720: 1c 40        	<unknown>
1000f722: 15 3e        	<unknown>
1000f724: f6 bf        	<unknown>
1000f726: f2 3f        	<unknown>
1000f728: 9d 3f        	<unknown>
1000f72a: 1d 3f        	<unknown>
1000f72c: 42 3f        	<unknown>
1000f72e: a3 bf c6 3f 63 bf 1e bf      	<unknown>
1000f736: 81 3f        	<unknown>
1000f738: b2 bf        	<unknown>
1000f73a: 36 3f        	<unknown>
1000f73c: 39 c0        	<unknown>
1000f73e: bd bf        	<unknown>
1000f740: a3 3f 7f be aa bf 9d bf      	<unknown>
1000f748: b0 3e        	<unknown>
1000f74a: e6 be        	<unknown>
1000f74c: c6 be        	<unknown>
1000f74e: 10 40        	<unknown>
1000f750: 93 3f 00 bf 7a bd 31 bf      	<unknown>
1000f758: 27 3e 8c 3f a9 3e 99 bd      	<unknown>
1000f760: 8b 3e 96 3e e3 3c da bf      	<unknown>
1000f768: 28 3f        	<unknown>
1000f76a: 7d bf        	<unknown>
1000f76c: 0d bf        	<unknown>
1000f76e: 01 bf        	<unknown>
1000f770: 19 be        	<unknown>
1000f772: 42 3f        	<unknown>
1000f774: 94 3f        	<unknown>
1000f776: 77 3f bf 3f 7b 3a 8d bf      	<unknown>
1000f77e: 45 3d        	<unknown>
1000f780: 14 bf        	<unknown>
1000f782: e8 bf        	<unknown>
1000f784: fd bf        	<unknown>
1000f786: e9 3e        	<unknown>
1000f788: 6f 3e a0 3f 98 3e 0b bf      	<unknown>
1000f790: bc 3e        	<unknown>
1000f792: ee 3e        	<unknown>
1000f794: c2 3d        	<unknown>
1000f796: ac 3e        	<unknown>
1000f798: 00 3f        	<unknown>
1000f79a: 17 3f dd be 53 3f e4 3f      	<unknown>
1000f7a2: bf bf b9 3d 04 3f c3 be      	<unknown>
1000f7aa: 4d 3d        	<unknown>
1000f7ac: 15 3f        	<unknown>
1000f7ae: c1 be        	<unknown>
1000f7b0: 91 be        	<unknown>
1000f7b2: a6 bf        	<unknown>
1000f7b4: 1a c0        	<unknown>
1000f7b6: 95 3e        	<unknown>
1000f7b8: c7 3d eb bd 06 be 08 3f      	<unknown>
1000f7c0: 51 3e        	<unknown>
1000f7c2: 71 3f        	<unknown>
1000f7c4: e6 bd        	<unknown>
1000f7c6: cc 3f        	<unknown>
1000f7c8: 18 40        	<unknown>
1000f7ca: 06 3e        	<unknown>
1000f7cc: e4 3f        	<unknown>
1000f7ce: e0 bd        	<unknown>
1000f7d0: 53 3f 21 3f 66 3f 60 bf      	<unknown>
1000f7d8: b4 3e        	<unknown>
1000f7da: ec 3f        	<unknown>
1000f7dc: 34 40        	<unknown>
1000f7de: 9f bf 4d 3e cd 3e 33 3f      	<unknown>
1000f7e6: 9e bf        	<unknown>
1000f7e8: 1f 3f ca 3e 57 bf d8 3f      	<unknown>
1000f7f0: 82 bf        	<unknown>
1000f7f2: bb 3f 86 3f 82 be 00 00      	<unknown>
1000f7fa: ca 3e        	<unknown>
1000f7fc: 83 be fb be c7 3d 18 c0      	<unknown>
1000f804: 90 3f        	<unknown>
1000f806: ac bf        	<unknown>
1000f808: 88 3f        	<unknown>
1000f80a: 9f be a2 3e 95 3f c9 3e      	<unknown>
1000f812: a1 3f        	<unknown>
1000f814: 25 c0        	<unknown>
1000f816: 07 40 73 3e 21 3e 98 be      	<unknown>
1000f81e: 95 bf        	<unknown>
1000f820: 35 3f        	<unknown>
1000f822: 23 bf ef bf ad bf b5 bf      	<unknown>
1000f82a: 75 bf        	<unknown>
1000f82c: 93 bf 42 bf 3d 3f fa 3e      	<unknown>
1000f834: e7 3f b7 bf e1 bd cd 3f      	<unknown>
1000f83c: 61 3f        	<unknown>
1000f83e: de 3d        	<unknown>
1000f840: 92 3f        	<unknown>
1000f842: 3e bf        	<unknown>
1000f844: f3 bd 53 bf af 3f 34 bf      	<unknown>
1000f84c: ae 3f        	<unknown>
1000f84e: 02 40        	<unknown>
1000f850: 84 3f        	<unknown>
1000f852: 99 bf        	<unknown>
1000f854: c7 bd 3a be c0 3e fb be      	<unknown>
1000f85c: 17 bf 49 be ed be 17 be      	<unknown>
1000f864: 36 c0        	<unknown>
1000f866: b5 be        	<unknown>
1000f868: 15 3d        	<unknown>
1000f86a: 70 bf        	<unknown>
1000f86c: ad bf        	<unknown>
1000f86e: b0 bf        	<unknown>
1000f870: 0a bf        	<unknown>
1000f872: 4f bf fe 3e 28 bf 78 bf      	<unknown>
1000f87a: 6e 3f        	<unknown>
1000f87c: d0 3f        	<unknown>
1000f87e: 91 3f        	<unknown>
1000f880: cd bf        	<unknown>
1000f882: a9 bc        	<unknown>
1000f884: 3f bf b4 be d1 3f bb 3f      	<unknown>
1000f88c: 02 3f        	<unknown>
1000f88e: 37 3f 07 c0 54 bf 26 bf      	<unknown>
1000f896: af 3e d9 bd d9 3f 99 be      	<unknown>
1000f89e: e4 bf        	<unknown>
1000f8a0: 4e bd        	<unknown>
1000f8a2: db 3e 31 bf 18 3f 14 3f      	<unknown>
1000f8aa: 34 3f        	<unknown>
1000f8ac: f6 3d        	<unknown>
1000f8ae: 6b bf 65 bf 9a 3e 7a 3f      	<unknown>
1000f8b6: 42 3f        	<unknown>
1000f8b8: 0d c0        	<unknown>
1000f8ba: 34 bf        	<unknown>
1000f8bc: de bf        	<unknown>
1000f8be: f2 3c        	<unknown>
1000f8c0: 6b bf e7 bf db 3f 11 3f      	<unknown>
1000f8c8: 78 bf        	<unknown>
1000f8ca: 66 3e        	<unknown>
1000f8cc: 4a 3e        	<unknown>
1000f8ce: 48 3e        	<unknown>
1000f8d0: b0 bf        	<unknown>
1000f8d2: 14 bf        	<unknown>
1000f8d4: ac 3f        	<unknown>
1000f8d6: 20 3f        	<unknown>
1000f8d8: 76 3a        	<unknown>
1000f8da: 81 3f        	<unknown>
1000f8dc: 00 bd        	<unknown>
1000f8de: bb 3e c3 3f bc 3f 09 bf      	<unknown>
1000f8e6: dc 3d        	<unknown>
1000f8e8: 9f 3e 83 3e 9c 3e 4b bf      	<unknown>
1000f8f0: c3 bf cf 3e 6e bf 28 bf      	<unknown>
1000f8f8: 27 bf 89 3e 6b 3f 21 c0      	<unknown>
1000f900: 4a 3f        	<unknown>
1000f902: 39 3f        	<unknown>
1000f904: 94 3f        	<unknown>
1000f906: 10 be        	<unknown>
1000f908: 9b bf 16 bf 6a 3a b1 3f      	<unknown>
1000f910: 6f 3d fb be 8a bf 7a be      	<unknown>
1000f918: a9 3f        	<unknown>
1000f91a: a9 bd        	<unknown>
1000f91c: ec 3f        	<unknown>
1000f91e: 0c 3e        	<unknown>
1000f920: 79 3f        	<unknown>
1000f922: 12 bf        	<unknown>
1000f924: f8 3f        	<unknown>
1000f926: 66 bf        	<unknown>
1000f928: 60 3f        	<unknown>
1000f92a: d6 3f        	<unknown>
1000f92c: 61 bf        	<unknown>
1000f92e: c7 3e 34 bf fd be 93 3f      	<unknown>
1000f936: b4 3f        	<unknown>
1000f938: 12 40        	<unknown>
1000f93a: 9e 3f        	<unknown>
1000f93c: 66 3e        	<unknown>
1000f93e: fb 3f 9a bf 96 bf ee bf      	<unknown>
1000f946: 86 3e        	<unknown>
1000f948: 99 3f        	<unknown>
1000f94a: 00 be        	<unknown>
1000f94c: 88 3d        	<unknown>
1000f94e: 10 bf        	<unknown>
1000f950: a9 3e        	<unknown>
1000f952: 51 3e        	<unknown>
1000f954: a6 3e        	<unknown>
1000f956: 2a be        	<unknown>
1000f958: b1 3f        	<unknown>
1000f95a: fe 38        	<unknown>
1000f95c: 6f 3f d9 3f 50 40 6d bf      	<unknown>
1000f964: 49 bf        	<unknown>
1000f966: b4 bf        	<unknown>
1000f968: 8a 3e        	<unknown>
1000f96a: b9 3e        	<unknown>
1000f96c: e9 3f        	<unknown>
1000f96e: a3 3f 3a 3f c3 3e 84 bf      	<unknown>
1000f976: 4e 3e        	<unknown>
1000f978: a8 3d        	<unknown>
1000f97a: 1f be a9 bf 01 bf 70 3f      	<unknown>
1000f982: 29 3f        	<unknown>
1000f984: 48 bf        	<unknown>
1000f986: fe 3e        	<unknown>
1000f988: 4c 3e        	<unknown>
1000f98a: 0c 3f        	<unknown>
1000f98c: 38 bf        	<unknown>
1000f98e: 68 3e        	<unknown>
1000f990: bd be        	<unknown>
1000f992: e1 3e        	<unknown>
1000f994: ec 3e        	<unknown>
1000f996: 0f bf 75 be 0c bf 89 bd      	<unknown>
1000f99e: 94 bf        	<unknown>
1000f9a0: ef be 1f bf df 3f 29 3f      	<unknown>
1000f9a8: ca 3e        	<unknown>
1000f9aa: 32 bf        	<unknown>
1000f9ac: 29 3f        	<unknown>
1000f9ae: 44 bd        	<unknown>
1000f9b0: 9b 3f a4 3c 6e 3f ce 3f      	<unknown>
1000f9b8: 36 bf        	<unknown>
1000f9ba: 8b 3f 1f bf 84 3f 24 bf      	<unknown>
1000f9c2: d7 3f 9a 3e d8 3e 5e bf      	<unknown>
1000f9ca: 4f bf a6 bf 0e 3f a3 bd      	<unknown>
1000f9d2: 80 3f        	<unknown>
1000f9d4: 9b 3f a3 3f 71 bf 34 bf      	<unknown>
1000f9dc: c9 be        	<unknown>
1000f9de: 84 3f        	<unknown>
1000f9e0: f9 be        	<unknown>
1000f9e2: 86 bf        	<unknown>
1000f9e4: cb 3e 3a 3f 7a 3e 2c bf      	<unknown>
1000f9ec: 0f 3f ac 3e 08 3f fb 3e      	<unknown>
1000f9f4: 9c bd        	<unknown>
1000f9f6: 4d 3e        	<unknown>
1000f9f8: bf bf 36 3f 1e 3f 08 3f      	<unknown>
1000fa00: ec bd        	<unknown>
1000fa02: d1 bf        	<unknown>
1000fa04: 1f 3f 8c 3e f8 bf 22 bf      	<unknown>
1000fa0c: 9a 3f        	<unknown>
1000fa0e: 9e 3f        	<unknown>
1000fa10: a8 bf        	<unknown>
1000fa12: 2c 3f        	<unknown>
1000fa14: 34 bf        	<unknown>
1000fa16: 54 bf        	<unknown>
1000fa18: 68 3f        	<unknown>
1000fa1a: a4 be        	<unknown>
1000fa1c: 44 be        	<unknown>
1000fa1e: 5b 3e c3 3e 25 bf e3 be      	<unknown>
1000fa26: 8d bf        	<unknown>
1000fa28: df be ca be 9c bf e8 bd      	<unknown>
1000fa30: 1a 3f        	<unknown>
1000fa32: 8f bf 2b bf 75 bf e3 3f      	<unknown>
1000fa3a: cd 3f        	<unknown>
1000fa3c: 95 bf        	<unknown>
1000fa3e: 84 3e        	<unknown>
1000fa40: 0f c0 4f 3f 19 bf 02 bf      	<unknown>
1000fa48: 11 3e        	<unknown>
1000fa4a: 23 3f 88 3f dc bf db bf      	<unknown>
1000fa52: 11 3f        	<unknown>
1000fa54: a7 bf 03 c0 39 bf 18 bf      	<unknown>
1000fa5c: 2e be        	<unknown>
1000fa5e: 47 3f ad 3e 5c bf c1 bf      	<unknown>
1000fa66: 68 bf        	<unknown>
1000fa68: 64 bf        	<unknown>
1000fa6a: 4c be        	<unknown>
1000fa6c: 5e bd        	<unknown>
1000fa6e: 35 bf        	<unknown>
1000fa70: dd bf        	<unknown>
1000fa72: 68 bf        	<unknown>
1000fa74: 45 3e        	<unknown>
1000fa76: 09 c0        	<unknown>
1000fa78: a3 be 99 be 17 40 c5 bf      	<unknown>
1000fa80: 52 3c        	<unknown>
1000fa82: 8b 3e d3 bf 2e 3e e5 bf      	<unknown>
1000fa8a: 91 3f        	<unknown>
1000fa8c: 28 c0        	<unknown>
1000fa8e: 51 40        	<unknown>
1000fa90: 01 c0        	<unknown>
1000fa92: a7 be ca bf d4 3f af 3d      	<unknown>
1000fa9a: 6d 3f        	<unknown>
1000fa9c: 80 3e        	<unknown>
1000fa9e: 21 bf        	<unknown>
1000faa0: c1 3f        	<unknown>
1000faa2: b6 3e        	<unknown>
1000faa4: cc bf        	<unknown>
1000faa6: 49 3f        	<unknown>
1000faa8: 54 3f        	<unknown>
1000faaa: b0 3e        	<unknown>
1000faac: 8f 3f 72 be 0b bf 50 bf      	<unknown>
1000fab4: ec 3f        	<unknown>
1000fab6: 11 bf        	<unknown>
1000fab8: 1d 3f        	<unknown>
1000faba: 00 bf        	<unknown>
1000fabc: 16 c0        	<unknown>
1000fabe: 40 bf        	<unknown>
1000fac0: 55 3f        	<unknown>
1000fac2: 04 3f        	<unknown>
1000fac4: 2e bf        	<unknown>
1000fac6: a6 be        	<unknown>
1000fac8: c9 bf        	<unknown>
1000faca: ef 3f 64 3e a0 3e a8 be      	<unknown>
1000fad2: bf be 54 be fb 3e 3c 3f      	<unknown>
1000fada: 61 bf        	<unknown>
1000fadc: ae bf        	<unknown>
1000fade: af bf a9 3f b1 3c f0 be      	<unknown>
1000fae6: b0 bf        	<unknown>
1000fae8: 0e bf        	<unknown>
1000faea: 4c 3d        	<unknown>
1000faec: 20 bf        	<unknown>
1000faee: 88 3f        	<unknown>
1000faf0: 75 bf        	<unknown>
1000faf2: 13 bf d1 be 92 3e 48 bf      	<unknown>
1000fafa: 05 40        	<unknown>
1000fafc: c2 be        	<unknown>
1000fafe: 6f bf ce bd a1 bf eb 3e      	<unknown>
1000fb06: 49 3f        	<unknown>
1000fb08: 1f c0 9f be 9c 3f 4e bf      	<unknown>
1000fb10: 2d 3f        	<unknown>
1000fb12: 8c bf        	<unknown>
1000fb14: 67 3d 9e 3c 72 3e 05 3f      	<unknown>
1000fb1c: 66 3f        	<unknown>
1000fb1e: 6f 3f 8b 3f 5b 3f aa bf      	<unknown>
1000fb26: 9d 3d        	<unknown>
1000fb28: 00 be        	<unknown>
1000fb2a: b6 be        	<unknown>
1000fb2c: 4d 3f        	<unknown>
1000fb2e: 3e 3d        	<unknown>
1000fb30: 0b 3f 78 bf 98 3e 1c 3f      	<unknown>
1000fb38: e5 3e        	<unknown>
1000fb3a: 46 bf        	<unknown>
1000fb3c: e7 3e 9e bf b4 bf 9c be      	<unknown>
1000fb44: 53 bf d3 3c 88 bf 0e c0      	<unknown>
1000fb4c: b0 3f        	<unknown>
1000fb4e: 81 bf        	<unknown>
1000fb50: 5a bf        	<unknown>
1000fb52: 24 3f        	<unknown>
1000fb54: 8b bf 2f bf cb bd 35 3e      	<unknown>
1000fb5c: 7f bf 03 bf 88 3e 1c be      	<unknown>
1000fb64: 02 3f        	<unknown>
1000fb66: 86 3f        	<unknown>
1000fb68: ea 3f        	<unknown>
1000fb6a: 18 bf        	<unknown>
1000fb6c: af 3e 36 3f 66 bf 9c 3f      	<unknown>
1000fb74: 72 3f        	<unknown>
1000fb76: b0 3e        	<unknown>
1000fb78: 4a bf        	<unknown>
1000fb7a: 48 bf        	<unknown>
1000fb7c: 5a bf        	<unknown>
1000fb7e: 00 00        	<unknown>
1000fb80: 87 bf 89 bf 46 3f f6 be      	<unknown>
1000fb88: a9 bf        	<unknown>
1000fb8a: 32 bd        	<unknown>
1000fb8c: f9 bf        	<unknown>
1000fb8e: ec 3e        	<unknown>
1000fb90: 70 3e        	<unknown>
1000fb92: 91 3f        	<unknown>
1000fb94: c2 3f        	<unknown>
1000fb96: ca 3e        	<unknown>
1000fb98: d2 bd        	<unknown>
1000fb9a: fe be        	<unknown>
1000fb9c: 11 c0        	<unknown>
1000fb9e: 6d 3e        	<unknown>
1000fba0: 54 bf        	<unknown>
1000fba2: a3 3f 0d c0 38 3d b3 bf      	<unknown>
1000fbaa: d8 3f        	<unknown>
1000fbac: b9 3e        	<unknown>
1000fbae: 9d bf        	<unknown>
1000fbb0: 06 3f        	<unknown>
1000fbb2: 82 3e        	<unknown>
1000fbb4: ea 3e        	<unknown>
1000fbb6: 16 3e        	<unknown>
1000fbb8: 59 bf        	<unknown>
1000fbba: d8 3e        	<unknown>
1000fbbc: 2d 3f        	<unknown>
1000fbbe: bf be 1d be b7 bd 21 3e      	<unknown>
1000fbc6: 8c 3f        	<unknown>
1000fbc8: f1 be        	<unknown>
1000fbca: 3d bf        	<unknown>
1000fbcc: a5 3e        	<unknown>
1000fbce: 91 3f        	<unknown>
1000fbd0: 1c 39        	<unknown>
1000fbd2: d4 be        	<unknown>
1000fbd4: a0 3f        	<unknown>
1000fbd6: 4b bf bf bf 11 bf f8 3e      	<unknown>
1000fbde: 6f bf bf 3f 98 bd cd 3f      	<unknown>
1000fbe6: 48 3f        	<unknown>
1000fbe8: 2d bf        	<unknown>
1000fbea: dc be        	<unknown>
1000fbec: 8d bf        	<unknown>
1000fbee: ca 3e        	<unknown>
1000fbf0: 95 3f        	<unknown>
1000fbf2: d1 be        	<unknown>
1000fbf4: 22 bf        	<unknown>
1000fbf6: 9e be        	<unknown>
1000fbf8: 83 3f 8f bf 1a c0 dd bf      	<unknown>
1000fc00: ff bf 82 3f a3 be f5 bd      	<unknown>
1000fc08: 37 bf 8b 3e 16 3a b8 3f      	<unknown>
1000fc10: 86 bf        	<unknown>
1000fc12: 00 40        	<unknown>
1000fc14: e6 3e        	<unknown>
1000fc16: 63 be 81 3f 04 c0 97 3f      	<unknown>
1000fc1e: bf bd 6e 3f e3 3e 95 bf      	<unknown>
1000fc26: 13 be 75 3f 0f c0 aa 3d      	<unknown>
1000fc2e: 91 3e        	<unknown>
1000fc30: d3 3e 11 3f a3 3f 4a bf      	<unknown>
1000fc38: b0 be        	<unknown>
1000fc3a: 62 3f        	<unknown>
1000fc3c: ba be        	<unknown>
1000fc3e: b1 3d        	<unknown>
1000fc40: bc 3e        	<unknown>
1000fc42: 90 bf        	<unknown>
1000fc44: 01 3f        	<unknown>
1000fc46: 59 bf        	<unknown>
1000fc48: 90 3f        	<unknown>
1000fc4a: 46 3e        	<unknown>
1000fc4c: 1c 40        	<unknown>
1000fc4e: c7 bd 9f bf 9d 3e 60 be      	<unknown>
1000fc56: 8f bf a8 be 97 bf 92 bf      	<unknown>
1000fc5e: 8d bf        	<unknown>
1000fc60: 47 3e 85 bf c2 be a1 be      	<unknown>
1000fc68: 01 bf        	<unknown>
1000fc6a: fc be        	<unknown>
1000fc6c: 7c 3f        	<unknown>
1000fc6e: e4 bd        	<unknown>
1000fc70: 32 3d        	<unknown>
1000fc72: 46 bf        	<unknown>
1000fc74: 11 bd        	<unknown>
1000fc76: 5a 3e        	<unknown>
1000fc78: 36 3f        	<unknown>
1000fc7a: 35 3e        	<unknown>
1000fc7c: 43 bf 24 3f 40 3e 98 be      	<unknown>
1000fc84: dc 3e        	<unknown>
1000fc86: a1 bf        	<unknown>
1000fc88: e9 be        	<unknown>
1000fc8a: 39 bf        	<unknown>
1000fc8c: 97 3e 1e 3f 75 bf 63 3e      	<unknown>
1000fc94: 37 40 fb 3f 07 c0 49 bf      	<unknown>
1000fc9c: 69 be        	<unknown>
1000fc9e: 4c bf        	<unknown>
1000fca0: 42 bf        	<unknown>
1000fca2: da be        	<unknown>
1000fca4: 8a bf        	<unknown>
1000fca6: 96 be        	<unknown>
1000fca8: 2d 3e        	<unknown>
1000fcaa: 46 be        	<unknown>
1000fcac: 4f 3f 28 be c3 bf 8e 3f      	<unknown>
1000fcb4: 01 40        	<unknown>
1000fcb6: 85 bf        	<unknown>
1000fcb8: d8 be        	<unknown>
1000fcba: 47 bf 71 3f b7 be d9 bf      	<unknown>
1000fcc2: 49 bf        	<unknown>
1000fcc4: ca be        	<unknown>
1000fcc6: b8 be        	<unknown>
1000fcc8: 31 bf        	<unknown>
1000fcca: 9f 3f 00 bf 02 3f c0 be      	<unknown>
1000fcd2: 26 3f        	<unknown>
1000fcd4: 1e 3f        	<unknown>
1000fcd6: d6 be        	<unknown>
1000fcd8: 54 3f        	<unknown>
1000fcda: 17 3f b4 3f bd be 8b 3f      	<unknown>
1000fce2: f6 3e        	<unknown>
1000fce4: d0 3d        	<unknown>
1000fce6: 7c 3f        	<unknown>
1000fce8: b6 bd        	<unknown>
1000fcea: 69 3e        	<unknown>
1000fcec: eb 3f 45 3f 3d bf 8b 3e      	<unknown>
1000fcf4: 4e 3f        	<unknown>
1000fcf6: d9 be        	<unknown>
1000fcf8: 81 bf        	<unknown>
1000fcfa: 69 be        	<unknown>
1000fcfc: eb 3f 33 3f 17 be 32 bd      	<unknown>
1000fd04: b9 3f        	<unknown>
1000fd06: 34 bf        	<unknown>
1000fd08: 00 bf        	<unknown>
1000fd0a: 0d c0        	<unknown>
1000fd0c: a0 bd        	<unknown>
1000fd0e: 53 3f 4f bf 70 3f 46 3f      	<unknown>
1000fd16: 97 3f fd 3e c2 be db be      	<unknown>
1000fd1e: ee 3e        	<unknown>
1000fd20: e5 be        	<unknown>
1000fd22: 9f 3f e1 be 6f bf 3c bf      	<unknown>
1000fd2a: 11 bf        	<unknown>
1000fd2c: 62 bf        	<unknown>
1000fd2e: 92 be        	<unknown>
1000fd30: 47 bf d1 3e 50 bf 99 3f      	<unknown>
1000fd38: 9e 3f        	<unknown>
1000fd3a: 39 3f        	<unknown>
1000fd3c: 8c bd        	<unknown>
1000fd3e: c8 bf        	<unknown>
1000fd40: a1 3e        	<unknown>
1000fd42: d4 3e        	<unknown>
1000fd44: 3c 3f        	<unknown>
1000fd46: f4 3e        	<unknown>
1000fd48: 09 3f        	<unknown>
1000fd4a: 82 bf        	<unknown>
1000fd4c: d7 bf 55 bf b0 bf 86 be      	<unknown>
1000fd54: 04 3f        	<unknown>
1000fd56: 1c 3f        	<unknown>
1000fd58: 44 3e        	<unknown>
1000fd5a: 62 bf        	<unknown>
1000fd5c: 42 3f        	<unknown>
1000fd5e: 13 be 13 bf ad 3f ac bf      	<unknown>
1000fd66: db bd 2a bf d1 3f c0 bd      	<unknown>
1000fd6e: bd be        	<unknown>
1000fd70: dc be        	<unknown>
1000fd72: 5c be        	<unknown>
1000fd74: 98 be        	<unknown>
1000fd76: 66 bf        	<unknown>
1000fd78: d7 3e f2 be de be 08 40      	<unknown>
1000fd80: 62 3f        	<unknown>
1000fd82: 7e bf        	<unknown>
1000fd84: a0 bf        	<unknown>
1000fd86: 1e bf        	<unknown>
1000fd88: 81 bf        	<unknown>
1000fd8a: 7e 38        	<unknown>
1000fd8c: ba 3f        	<unknown>
1000fd8e: 1a bf        	<unknown>
1000fd90: 10 be        	<unknown>
1000fd92: 43 bf 99 bf 37 bf 9d be      	<unknown>
1000fd9a: 00 3e        	<unknown>
1000fd9c: 46 bd        	<unknown>
1000fd9e: c1 be        	<unknown>
1000fda0: f8 3e        	<unknown>
1000fda2: 1b 3f b0 3f 6f 3e 16 3e      	<unknown>
1000fdaa: 8a be        	<unknown>
1000fdac: 13 bf 87 bd 8e bf bc 3f      	<unknown>
1000fdb4: 70 bf        	<unknown>
1000fdb6: fb be 95 3f a9 3d a0 bf      	<unknown>
1000fdbe: 40 bf        	<unknown>
1000fdc0: 4f bf 59 3e 04 40 4f be      	<unknown>
1000fdc8: 42 bf        	<unknown>
1000fdca: 8b bf da bd 1a 3e 71 bf      	<unknown>
1000fdd2: a5 bf        	<unknown>
1000fdd4: 07 bf 52 3f b5 3f a7 3f      	<unknown>
1000fddc: 0a 3f        	<unknown>
1000fdde: f5 3c        	<unknown>
1000fde0: aa be        	<unknown>
1000fde2: e2 bf        	<unknown>
1000fde4: 17 bf a4 3f 2e 3f c2 bf      	<unknown>
1000fdec: 1e bf        	<unknown>
1000fdee: e2 bf        	<unknown>
1000fdf0: e8 bf        	<unknown>
1000fdf2: 0a 3f        	<unknown>
1000fdf4: 7e 3f        	<unknown>
1000fdf6: 91 bf        	<unknown>
1000fdf8: f3 3f a5 3f c0 3f f7 3e      	<unknown>
1000fe00: af bf 5d bf 64 bd a6 3e      	<unknown>
1000fe08: 24 be        	<unknown>
1000fe0a: 61 3f        	<unknown>
1000fe0c: f5 3f        	<unknown>
1000fe0e: 94 be        	<unknown>
1000fe10: ae 3a        	<unknown>
1000fe12: e1 3e        	<unknown>
1000fe14: 22 bf        	<unknown>
1000fe16: d4 bf        	<unknown>
1000fe18: 80 3e        	<unknown>
1000fe1a: b1 3c        	<unknown>
1000fe1c: 7b be ac 3e 22 bf 12 3f      	<unknown>
1000fe24: 09 c0        	<unknown>
1000fe26: 97 3e 19 40 b3 3f 6c bf      	<unknown>
1000fe2e: a1 3f        	<unknown>
1000fe30: 4e 3d        	<unknown>
1000fe32: 55 bf        	<unknown>
1000fe34: d2 3d        	<unknown>
1000fe36: 0f c0 9c be 28 bf cd 3f      	<unknown>
1000fe3e: b1 3f        	<unknown>
1000fe40: 02 40        	<unknown>
1000fe42: 10 bf        	<unknown>
1000fe44: 8d 3f        	<unknown>
1000fe46: bd 3e        	<unknown>
1000fe48: ae 3f        	<unknown>
1000fe4a: 03 bf 07 c0 49 be 49 be      	<unknown>
1000fe52: 57 bd 09 c0 8e 3f b6 3f      	<unknown>
1000fe5a: 63 3f 4a be 1f bf aa 3f      	<unknown>
1000fe62: a8 3d        	<unknown>
1000fe64: 5a be        	<unknown>
1000fe66: 3b bf 75 3d 56 be e7 be      	<unknown>
1000fe6e: 23 bf b4 bf 93 3f 1b c0      	<unknown>
1000fe76: a9 3e        	<unknown>
1000fe78: cc bf        	<unknown>
1000fe7a: 93 bf a1 be 46 be 3e bf      	<unknown>
1000fe82: cd bf        	<unknown>
1000fe84: d0 3e        	<unknown>
1000fe86: 8c 3f        	<unknown>
1000fe88: f8 3e        	<unknown>
1000fe8a: 83 be c1 bf 20 3f 17 c0      	<unknown>
1000fe92: b5 be        	<unknown>
1000fe94: 87 3f b7 be 8e bf b3 bf      	<unknown>
1000fe9c: a8 bf        	<unknown>
1000fe9e: 19 c0        	<unknown>
1000fea0: d1 3f        	<unknown>
1000fea2: 8c bf        	<unknown>
1000fea4: f6 3f        	<unknown>
1000fea6: c3 bf 33 3f ae 3f 06 3f      	<unknown>
1000feae: 4a 3f        	<unknown>
1000feb0: d9 bd        	<unknown>
1000feb2: 65 bf        	<unknown>
1000feb4: 92 3f        	<unknown>
1000feb6: 0a 40        	<unknown>
1000feb8: 66 bf        	<unknown>
1000feba: 1a 3f        	<unknown>
1000febc: 8e bc        	<unknown>
1000febe: 53 3f 68 3f d8 be e1 be      	<unknown>
1000fec6: 81 bf        	<unknown>
1000fec8: 2f 3f 71 3e 49 be 8a bd      	<unknown>
1000fed0: b8 be        	<unknown>
1000fed2: 1c 40        	<unknown>
1000fed4: 50 bf        	<unknown>
1000fed6: ca 3f        	<unknown>
1000fed8: 6d 3f        	<unknown>
1000feda: 3d 3c        	<unknown>
1000fedc: d3 bf 9b 3e 85 bf 7c be      	<unknown>
1000fee4: 19 3f        	<unknown>
1000fee6: 53 bf 9b 3e 44 be cd bd      	<unknown>
1000feee: 18 c0        	<unknown>
1000fef0: 68 bf        	<unknown>
1000fef2: d1 bf        	<unknown>
1000fef4: 90 be        	<unknown>
1000fef6: 8b bf 8b bd a4 3f 0a 40      	<unknown>
1000fefe: 68 3e        	<unknown>
1000ff00: 0d bf        	<unknown>
1000ff02: bd bf        	<unknown>
1000ff04: f4 bf        	<unknown>
1000ff06: a3 bf 40 40 cb 3e a7 be      	<unknown>
1000ff0e: e8 bc        	<unknown>
1000ff10: b3 3e 84 3f ea bf 63 bf      	<unknown>
1000ff18: b6 3f        	<unknown>
1000ff1a: 46 bf        	<unknown>
1000ff1c: c8 3e        	<unknown>
1000ff1e: 9e 3f        	<unknown>
1000ff20: 96 3f        	<unknown>
1000ff22: 6d bf        	<unknown>
1000ff24: 87 be 30 3a a7 3f d8 3c      	<unknown>
1000ff2c: f1 3e        	<unknown>
1000ff2e: 68 be        	<unknown>
1000ff30: 8c bf        	<unknown>
1000ff32: 97 3d 88 bf b1 3f 55 be      	<unknown>
1000ff3a: 8d 3f        	<unknown>
1000ff3c: 30 bf        	<unknown>
1000ff3e: fd be        	<unknown>
1000ff40: 6e 3f        	<unknown>
1000ff42: 21 bf        	<unknown>
1000ff44: 58 3e        	<unknown>
1000ff46: 1f bf 8e 3f fc bc 28 bf      	<unknown>
1000ff4e: f9 3e        	<unknown>
1000ff50: 8b be a9 3f 30 3f f5 3e      	<unknown>
1000ff58: 4e bf        	<unknown>
1000ff5a: 2a 3f        	<unknown>
1000ff5c: 59 3e        	<unknown>
1000ff5e: 02 3f        	<unknown>
1000ff60: a2 bf        	<unknown>
1000ff62: 77 3f 5d bf ce bf b9 be      	<unknown>
1000ff6a: 86 bf        	<unknown>
1000ff6c: 5a be        	<unknown>
1000ff6e: 13 bd bc 3f 77 3f 1b 3f      	<unknown>
1000ff76: 81 bf        	<unknown>
1000ff78: f4 be        	<unknown>
1000ff7a: 88 be        	<unknown>
1000ff7c: 41 bd        	<unknown>
1000ff7e: c8 3f        	<unknown>
1000ff80: ee 3e        	<unknown>
1000ff82: 62 3d        	<unknown>
1000ff84: ad 3f        	<unknown>
1000ff86: ce 3f        	<unknown>
1000ff88: 50 bf        	<unknown>
1000ff8a: a5 bf        	<unknown>
1000ff8c: bd bf        	<unknown>
1000ff8e: b6 bf        	<unknown>
1000ff90: 19 bf        	<unknown>
1000ff92: 13 3e 08 3d a4 3e 1b 3f      	<unknown>
1000ff9a: 9f 3f 56 3f c0 3f 06 bf      	<unknown>
1000ffa2: f8 3e        	<unknown>
1000ffa4: 66 bf        	<unknown>
1000ffa6: a8 3f        	<unknown>
1000ffa8: 86 bf        	<unknown>
1000ffaa: d0 3f        	<unknown>
1000ffac: b4 3e        	<unknown>
1000ffae: 72 bf        	<unknown>
1000ffb0: a3 3f da be ae 3f 25 40      	<unknown>
1000ffb8: 17 be 45 3f e2 3f 80 bf      	<unknown>
1000ffc0: 31 c0        	<unknown>
1000ffc2: 7c 3e        	<unknown>
1000ffc4: 48 3f        	<unknown>
1000ffc6: 6f bf 0c 40 15 bf d3 be      	<unknown>
1000ffce: e8 3e        	<unknown>
1000ffd0: 57 bf 62 3d ad be 67 3f      	<unknown>
1000ffd8: 95 bd        	<unknown>
1000ffda: c1 bf        	<unknown>
1000ffdc: cc 3e        	<unknown>
1000ffde: a2 3f        	<unknown>
1000ffe0: e1 bf        	<unknown>
1000ffe2: 45 3d        	<unknown>
1000ffe4: 12 c0        	<unknown>
1000ffe6: a4 3f        	<unknown>
1000ffe8: e3 be 12 be 9f bf 9e bf      	<unknown>
1000fff0: 4b 3f a4 bf c9 be 2f 3f      	<unknown>
1000fff8: 2b bf 39 3f c3 3e 9d 3a      	<unknown>
10010000: 8c bf        	<unknown>
10010002: 04 3f        	<unknown>
10010004: 94 bf        	<unknown>
10010006: b6 3d        	<unknown>
10010008: 5c 3f        	<unknown>
1001000a: a5 bd        	<unknown>
1001000c: 17 3d ca 3f 66 be 95 3e      	<unknown>
10010014: 84 3e        	<unknown>
10010016: 02 3f        	<unknown>
10010018: d8 3f        	<unknown>
1001001a: 93 3f 8f be 9e 3f dd 3f      	<unknown>
10010022: 98 3f        	<unknown>
10010024: 21 3f        	<unknown>
10010026: 2f bc 94 3f a5 be 12 be      	<unknown>
1001002e: 26 bd        	<unknown>
10010030: 6b 3f da 3e d7 3e 1c 3e      	<unknown>
10010038: 94 3f        	<unknown>
1001003a: ba 3f        	<unknown>
1001003c: 75 3f        	<unknown>
1001003e: 14 3f        	<unknown>
10010040: 31 3f        	<unknown>
10010042: a6 3f        	<unknown>
10010044: a4 3c        	<unknown>
10010046: e9 3f        	<unknown>
10010048: ee bf        	<unknown>
1001004a: a6 bd        	<unknown>
1001004c: e0 be        	<unknown>
1001004e: 6d 3f        	<unknown>
10010050: 4e be        	<unknown>
10010052: ee be        	<unknown>
10010054: 1c be        	<unknown>
10010056: 37 3d 54 bf b9 bf 74 bf      	<unknown>
1001005e: 3d 3e        	<unknown>
10010060: 10 be        	<unknown>
10010062: 45 be        	<unknown>
10010064: 85 bf        	<unknown>
10010066: 73 bf 29 bd 89 3c 2d 3e      	<unknown>
1001006e: 81 bf        	<unknown>
10010070: 4f 3f c5 3f 3a 3f ff be      	<unknown>
10010078: 16 3f        	<unknown>
1001007a: e3 be 3c bf b0 3f 0b bf      	<unknown>
10010082: 3b bf 02 bf 92 3e 46 bf      	<unknown>
1001008a: 95 3f        	<unknown>
1001008c: 3f bf 0d bf 0a bf a2 bf      	<unknown>
10010094: 72 3f        	<unknown>
10010096: 77 bf a6 3f 1f 3f c3 3e      	<unknown>
1001009e: 15 bf        	<unknown>
100100a0: 88 3d        	<unknown>
100100a2: 86 be        	<unknown>
100100a4: a0 3f        	<unknown>
100100a6: 72 3f        	<unknown>
100100a8: 4a 40        	<unknown>
100100aa: 25 3f        	<unknown>
100100ac: bf be 41 bf b3 3f 5c bd      	<unknown>
100100b4: 83 3f 9d be 85 3f 81 bf      	<unknown>
100100bc: 0a 40        	<unknown>
100100be: 14 3d        	<unknown>
100100c0: 55 c0        	<unknown>
100100c2: 62 3f        	<unknown>
100100c4: 18 be        	<unknown>
100100c6: 96 3f        	<unknown>
100100c8: 03 c0 72 3e 2f 3f de be      	<unknown>
100100d0: 23 3e 24 bf a0 bf 3f be      	<unknown>
100100d8: 06 3f        	<unknown>
100100da: 84 bf        	<unknown>
100100dc: fd be        	<unknown>
100100de: aa 3c        	<unknown>
100100e0: a8 3e        	<unknown>
100100e2: 34 3d        	<unknown>
100100e4: 94 bd        	<unknown>
100100e6: 3f bf 41 bf c0 3e 83 bf      	<unknown>
100100ee: 71 3f        	<unknown>
100100f0: 4c 3f        	<unknown>
100100f2: 96 3e        	<unknown>
100100f4: 84 3e        	<unknown>
100100f6: b9 bc        	<unknown>
100100f8: 07 3e f5 bf 36 bf 39 be      	<unknown>
10010100: ac be        	<unknown>
10010102: 86 bf        	<unknown>
10010104: e7 bf e3 3e 7b be 10 3f      	<unknown>
1001010c: b3 3d c8 3e bb be 70 bf      	<unknown>
10010114: ac 3f        	<unknown>
10010116: 4d bf        	<unknown>
10010118: a5 be        	<unknown>
1001011a: ab 3e 9d 3f 27 3f 93 be      	<unknown>
10010122: b4 3f        	<unknown>
10010124: 7b bf 59 3d 94 3e 89 bf      	<unknown>
1001012c: 60 3e        	<unknown>
1001012e: 85 3f        	<unknown>
10010130: 14 bf        	<unknown>
10010132: a3 3f 98 be cd be ba 3f      	<unknown>
1001013a: 1b bf d4 bf dc 3e b2 3e      	<unknown>
10010142: 77 bf 84 3e 3b bf 45 40      	<unknown>
1001014a: 0f bf 89 bf be bf fd 3e      	<unknown>
10010152: 26 3f        	<unknown>
10010154: b3 3e a2 bf fa be aa bf      	<unknown>
1001015c: 88 3a        	<unknown>
1001015e: a8 be        	<unknown>
10010160: 2c 40        	<unknown>
10010162: 56 3f        	<unknown>
10010164: b0 3f        	<unknown>
10010166: 0e 40        	<unknown>
10010168: bb 3e 10 c0 2e 3f 06 bf      	<unknown>
10010170: 88 bf        	<unknown>
10010172: 79 3f        	<unknown>
10010174: 3b 3f a9 3e 14 3f 0a c0      	<unknown>
1001017c: 7e bf        	<unknown>
1001017e: a3 3f 2f 3f 97 bf 27 3f      	<unknown>
10010186: 9a bf        	<unknown>
10010188: 05 3f        	<unknown>
1001018a: 99 bd        	<unknown>
1001018c: 2f bf c9 3e c7 3f fe 3f      	<unknown>
10010194: 8b 3f 3b bf 98 bf 88 3f      	<unknown>
1001019c: b1 be        	<unknown>
1001019e: 57 3f ad be 22 40 48 3f      	<unknown>
100101a6: 5b 3f 23 bf cf 3e 3e 3a      	<unknown>
100101ae: d5 3f        	<unknown>
100101b0: b6 be        	<unknown>
100101b2: 7a be        	<unknown>
100101b4: 9e 3d        	<unknown>
100101b6: d6 bf        	<unknown>
100101b8: 57 bf a9 3f bf 3f 3d 3f      	<unknown>
100101c0: 45 3e        	<unknown>
100101c2: 19 40        	<unknown>
100101c4: b6 bf        	<unknown>
100101c6: 2a 3f        	<unknown>
100101c8: 9f 3e 13 bf 24 bf 38 3d      	<unknown>
100101d0: a4 3f        	<unknown>
100101d2: 00 00        	<unknown>
100101d4: a2 3e        	<unknown>
100101d6: 45 3f        	<unknown>
100101d8: 60 3e        	<unknown>
100101da: 89 3f        	<unknown>
100101dc: 3e 3f        	<unknown>
100101de: 99 bf        	<unknown>
100101e0: 7d 3e        	<unknown>
100101e2: 1d bf        	<unknown>
100101e4: fe 3f        	<unknown>
100101e6: db 3b 14 bf 8f bf 37 bf      	<unknown>
100101ee: af 3f a0 3f 98 bc 52 3f      	<unknown>
100101f6: 36 be        	<unknown>
100101f8: d0 3f        	<unknown>
100101fa: 29 3f        	<unknown>
100101fc: ee bf        	<unknown>
100101fe: 69 3f        	<unknown>
10010200: 43 3f 91 3f 27 3f 76 be      	<unknown>
10010208: dc 3f        	<unknown>
1001020a: fc be        	<unknown>
1001020c: f6 be        	<unknown>
1001020e: 1f bf 63 be 00 00 93 3f      	<unknown>
10010216: 9f 3d 83 3e 34 be 22 bf      	<unknown>
1001021e: 3f 3f ba 3f 2e bf d8 3e      	<unknown>
10010226: 17 bf 7e 3f 0c bf 4d bf      	<unknown>
1001022e: 50 bf        	<unknown>
10010230: 90 bf        	<unknown>
10010232: 58 bd        	<unknown>
10010234: 7f be 1a 40 c8 3f 46 bf      	<unknown>
1001023c: 4a 3f        	<unknown>
1001023e: 4d bf        	<unknown>
10010240: c5 bd        	<unknown>
10010242: a4 be        	<unknown>
10010244: ea bf        	<unknown>
10010246: ca be        	<unknown>
10010248: 58 3d        	<unknown>
1001024a: fe 3e        	<unknown>
1001024c: 3e bf        	<unknown>
1001024e: 6d bf        	<unknown>
10010250: af 3f d3 bd 5a bf 65 3f      	<unknown>
10010258: 3e 3f        	<unknown>
1001025a: 0c 3f        	<unknown>
1001025c: 2c 3f        	<unknown>
1001025e: ee 3f        	<unknown>
10010260: b6 bf        	<unknown>
10010262: a8 3e        	<unknown>
10010264: 34 3f        	<unknown>
10010266: e8 3e        	<unknown>
10010268: 48 bf        	<unknown>
1001026a: 9c 3e        	<unknown>
1001026c: 5b 3e ce bf f9 3f d6 bf      	<unknown>
10010274: e4 be        	<unknown>
10010276: 9e bf        	<unknown>
10010278: 68 bf        	<unknown>
1001027a: 84 bf        	<unknown>
1001027c: fc be        	<unknown>
1001027e: 73 3f d3 3f 3d 3e 8b 3f      	<unknown>
10010286: 4a 3f        	<unknown>
10010288: 8d be        	<unknown>
1001028a: f6 bd        	<unknown>
1001028c: a2 3d        	<unknown>
1001028e: 73 bf 7b 3f eb bf db 3f      	<unknown>
10010296: a8 3f        	<unknown>
10010298: de bd        	<unknown>
1001029a: 81 bf        	<unknown>
1001029c: 45 3f        	<unknown>
1001029e: 0a 40        	<unknown>
100102a0: e8 be        	<unknown>
100102a2: bd bf        	<unknown>
100102a4: 9b 3e 44 bf fe be 74 bf      	<unknown>
100102ac: d8 3d        	<unknown>
100102ae: 14 c0        	<unknown>
100102b0: 69 bf        	<unknown>
100102b2: 83 bf 6a 3f 20 bf 86 3f      	<unknown>
100102ba: 01 3f        	<unknown>
100102bc: e4 bd        	<unknown>
100102be: ba bf        	<unknown>
100102c0: 82 bf        	<unknown>
100102c2: 8d 3e        	<unknown>
100102c4: 9a 3f        	<unknown>
100102c6: 51 3f        	<unknown>
100102c8: a4 be        	<unknown>
100102ca: ec 3f        	<unknown>
100102cc: 66 3e        	<unknown>
100102ce: e3 bd 9e be 61 3d c8 be      	<unknown>
100102d6: 51 3e        	<unknown>
100102d8: d1 3c        	<unknown>
100102da: 8c 3e        	<unknown>
100102dc: 3c 3f        	<unknown>
100102de: d9 bd        	<unknown>
100102e0: f6 be        	<unknown>
100102e2: ea be        	<unknown>
100102e4: 12 3e        	<unknown>
100102e6: 87 bf df 3d 40 3f 85 be      	<unknown>
100102ee: 35 bc        	<unknown>
100102f0: 81 3f        	<unknown>
100102f2: cb be 00 40 4a bf 9b 3e      	<unknown>
100102fa: 94 3e        	<unknown>
100102fc: 11 bf        	<unknown>
100102fe: f6 3e        	<unknown>
10010300: 67 bf 9d 3f ec 3d 38 3e      	<unknown>
10010308: c2 bf        	<unknown>
1001030a: 09 3f        	<unknown>
1001030c: c3 3f 1b bf 0c bf 76 3f      	<unknown>
10010314: e1 be        	<unknown>
10010316: ac 3e        	<unknown>
10010318: ff bf 58 be 00 00 09 be      	<unknown>
10010320: b7 bd 2b be 6d bf 77 bf      	<unknown>
10010328: 37 bf a2 bd c8 3f 22 3f      	<unknown>
10010330: d4 be        	<unknown>
10010332: 46 bf        	<unknown>
10010334: 31 bf        	<unknown>
10010336: 6c bf        	<unknown>
10010338: b9 be        	<unknown>
1001033a: 67 bf 8d 3f dc be 4e 3f      	<unknown>
10010342: 93 3e 3b 3f 9a 3f 60 3e      	<unknown>
1001034a: bd 3e        	<unknown>
1001034c: c6 3f        	<unknown>
1001034e: c7 3c 00 00 a2 3d 63 3f      	<unknown>
10010356: 87 bf 29 bf 11 bd 9e 3e      	<unknown>
1001035e: 82 3f        	<unknown>
10010360: 82 be        	<unknown>
10010362: 37 3f 39 3f 71 3f 78 3e      	<unknown>
1001036a: c3 3e f7 3e 25 3e 08 c0      	<unknown>
10010372: 82 3f        	<unknown>
10010374: e7 bf fd bf e9 bd 85 bf      	<unknown>
1001037c: 41 bf        	<unknown>
1001037e: 9b bd 17 bf 05 bf 91 bf      	<unknown>
10010386: 16 bf        	<unknown>
10010388: b7 be 0e be 52 3e 1f be      	<unknown>
10010390: aa be        	<unknown>
10010392: 56 bf        	<unknown>
10010394: 27 3e 8c 3e b1 3e 84 bd      	<unknown>
1001039c: 45 be        	<unknown>
1001039e: fc be        	<unknown>
100103a0: 93 bf 60 bf 1e 3f cb bf      	<unknown>
100103a8: ed 3d        	<unknown>
100103aa: 68 3e        	<unknown>
100103ac: f3 3f 8f bf b0 3f b4 bf      	<unknown>
100103b4: 8d 3e        	<unknown>
100103b6: 11 bf        	<unknown>
100103b8: 6b 3f 0d 40 20 3f 8a 3f      	<unknown>
100103c0: ca 3e        	<unknown>
100103c2: df 3f c8 bf a9 be 4b 3f      	<unknown>
100103ca: 9f bf 8b 3f 94 3f 1f be      	<unknown>
100103d2: df 3f 01 bf 5b bf 91 3f      	<unknown>
100103da: 9e 3a        	<unknown>
100103dc: 02 bf        	<unknown>
100103de: 45 3f        	<unknown>
100103e0: 25 bf        	<unknown>
100103e2: b7 be 0a bf e5 3f b6 bf      	<unknown>
100103ea: 88 3f        	<unknown>
100103ec: 24 3f        	<unknown>
100103ee: dd 3f        	<unknown>
100103f0: 1f 3f fb 3e 5e bf 46 bf      	<unknown>
100103f8: ae bf        	<unknown>
100103fa: cc 3f        	<unknown>
100103fc: 2d bf        	<unknown>
100103fe: b0 3e        	<unknown>
10010400: 12 3f        	<unknown>
10010402: 2d bf        	<unknown>
10010404: 5b bf 6f bf 40 3f 86 bf      	<unknown>
1001040c: 6d bd        	<unknown>
1001040e: 0c 40        	<unknown>
10010410: b6 bf        	<unknown>
10010412: a2 3f        	<unknown>
10010414: 33 be 55 3e 6a 3f 9c 3f      	<unknown>
1001041c: f9 be        	<unknown>
1001041e: 9a bf        	<unknown>
10010420: 81 bf        	<unknown>
10010422: 17 3e a5 be 6e bf ff 3f      	<unknown>
1001042a: a0 bf        	<unknown>
1001042c: 77 bf 29 3f 8c be a1 3e      	<unknown>
10010434: 72 bc        	<unknown>
10010436: 7b bf 19 c0 dc 3f c6 bf      	<unknown>
1001043e: 85 3c        	<unknown>
10010440: 45 3f        	<unknown>
10010442: c5 bf        	<unknown>
10010444: d7 be 5c bf 25 40 52 bf      	<unknown>
1001044c: 7c 3f        	<unknown>
1001044e: ed bf        	<unknown>
10010450: 8f bf 50 3f 48 3f 88 bf      	<unknown>
10010458: 40 bf        	<unknown>
1001045a: 0d bf        	<unknown>
1001045c: 64 3f        	<unknown>
1001045e: 10 bf        	<unknown>
10010460: ac bd        	<unknown>
10010462: 9e bf        	<unknown>
10010464: 8e bf        	<unknown>
10010466: 32 3f        	<unknown>
10010468: eb bf ff bf 45 bf d2 3f      	<unknown>
10010470: 2c 3f        	<unknown>
10010472: 12 c0        	<unknown>
10010474: f6 3f        	<unknown>
10010476: e2 bd        	<unknown>
10010478: 3a 3f        	<unknown>
1001047a: ac bf        	<unknown>
1001047c: 22 be        	<unknown>
1001047e: a1 be        	<unknown>
10010480: cf be 8d bf 02 bf eb be      	<unknown>
10010488: b1 bf        	<unknown>
1001048a: f1 be        	<unknown>
1001048c: 78 be        	<unknown>
1001048e: c5 bf        	<unknown>
10010490: 0e c0        	<unknown>
10010492: 9a 3e        	<unknown>
10010494: 72 3f        	<unknown>
10010496: 85 3f        	<unknown>
10010498: 88 3d        	<unknown>
1001049a: 58 be        	<unknown>
1001049c: 5e 3f        	<unknown>
1001049e: 37 bf 8a bf 83 bf 25 3e      	<unknown>
100104a6: 36 bf        	<unknown>
100104a8: 9d 3f        	<unknown>
100104aa: 77 bc b3 3f 9e 3e b3 3e      	<unknown>
100104b2: 7d 3f        	<unknown>
100104b4: 34 bf        	<unknown>
100104b6: 0c bf        	<unknown>
100104b8: f6 bf        	<unknown>
100104ba: 1b bf 63 bf 6e 3f 28 3f      	<unknown>
100104c2: 6f bf 86 bf 5b bf 97 bf      	<unknown>
100104ca: c2 3f        	<unknown>
100104cc: 3c bf        	<unknown>
100104ce: cf bf 9e be 8b 3f 8e bf      	<unknown>
100104d6: ee bf        	<unknown>
100104d8: d7 be db bf b0 3e c6 bf      	<unknown>
100104e0: ef 3f 41 bf 89 be ed bc      	<unknown>
100104e8: f5 be        	<unknown>
100104ea: ae 3f        	<unknown>
100104ec: fa bf        	<unknown>
100104ee: dc 3f        	<unknown>
100104f0: d6 3e        	<unknown>
100104f2: bb bc bb bf d3 3e 8b 3f      	<unknown>
100104fa: 09 3d        	<unknown>
100104fc: 4e 3f        	<unknown>
100104fe: c7 3f 8d 3e aa 3e a4 bf      	<unknown>
10010506: 6c bf        	<unknown>
10010508: 8f 3e 8c 3e 68 bf cc 3c      	<unknown>
10010510: eb 3e 01 c0 50 3f 9b bf      	<unknown>
10010518: 0d 3d        	<unknown>
1001051a: 2b 40 50 bf 4a 3e 6a be      	<unknown>
10010522: cc 3f        	<unknown>
10010524: 9f bf 8d 3f 17 bf 83 3f      	<unknown>
1001052c: ac 3e        	<unknown>
1001052e: 48 bf        	<unknown>
10010530: db 3d ed be ae 3f 28 3e      	<unknown>
10010538: 30 3f        	<unknown>
1001053a: 1d 3f        	<unknown>
1001053c: ac 3d        	<unknown>
1001053e: 23 bf bd be 57 3f 0f 40      	<unknown>
10010546: 19 bf        	<unknown>
10010548: be 3d        	<unknown>
1001054a: 8c bf        	<unknown>
1001054c: 23 3f d6 3f 96 bf d8 3e      	<unknown>
10010554: 3a bf        	<unknown>
10010556: 28 3f        	<unknown>
10010558: ac 3d        	<unknown>
1001055a: 56 3d        	<unknown>
1001055c: fe 3e        	<unknown>
1001055e: 25 3f        	<unknown>
10010560: c5 be        	<unknown>
10010562: de 3e        	<unknown>
10010564: 54 3f        	<unknown>
10010566: 9a 3e        	<unknown>
10010568: 41 be        	<unknown>
1001056a: 3c 3f        	<unknown>
1001056c: 2a 3e        	<unknown>
1001056e: 91 3d        	<unknown>
10010570: 02 bf        	<unknown>
10010572: ae 3c        	<unknown>
10010574: b1 3f        	<unknown>
10010576: 69 3f        	<unknown>
10010578: ee 3f        	<unknown>
1001057a: 7e 3f        	<unknown>
1001057c: a1 bf        	<unknown>
1001057e: 10 3f        	<unknown>
10010580: 88 3f        	<unknown>
10010582: 42 3f        	<unknown>
10010584: 3e 3f        	<unknown>
10010586: 01 bf        	<unknown>
10010588: 83 bf a9 3f 61 bf d7 3d      	<unknown>
10010590: a3 bf af bf 45 bd 6f bf      	<unknown>
10010598: bb be f3 be 8a 3e 85 bf      	<unknown>
100105a0: f8 bd        	<unknown>
100105a2: 14 3f        	<unknown>
100105a4: ad 3f        	<unknown>
100105a6: 80 bf        	<unknown>
100105a8: 42 3f        	<unknown>
100105aa: 9d 3f        	<unknown>
100105ac: 0f bf d2 3e 82 bf 27 bf      	<unknown>
100105b4: 9d 3f        	<unknown>
100105b6: 68 3f        	<unknown>
100105b8: bd bf        	<unknown>
100105ba: 3a bf        	<unknown>
100105bc: 90 3f        	<unknown>
100105be: c9 3e        	<unknown>
100105c0: cd 3f        	<unknown>
100105c2: d5 be        	<unknown>
100105c4: c6 3f        	<unknown>
100105c6: 17 3f 3a 3e 42 3f 0d bf      	<unknown>
100105ce: c8 3f        	<unknown>
100105d0: bf bf 68 bf c6 3f 17 3f      	<unknown>
100105d8: 19 3e        	<unknown>
100105da: 6c 3e        	<unknown>
100105dc: 24 3f        	<unknown>
100105de: 02 bf        	<unknown>
100105e0: d9 3e        	<unknown>
100105e2: f1 bf        	<unknown>
100105e4: 04 3f        	<unknown>
100105e6: 93 bd 3c bf 1f 3f 29 40      	<unknown>
100105ee: 91 3e        	<unknown>
100105f0: 36 bf        	<unknown>
100105f2: 97 bf ef 3e 51 bf 15 c0      	<unknown>
100105fa: 51 3e        	<unknown>
100105fc: 73 bf 8b 3e b3 be 37 40      	<unknown>
10010604: 9d 3f        	<unknown>
10010606: b1 be        	<unknown>
10010608: a6 3d        	<unknown>
1001060a: 52 bd        	<unknown>
1001060c: ad bf        	<unknown>
1001060e: a3 3e c9 3f d9 3e cc be      	<unknown>
10010616: 20 3e        	<unknown>
10010618: 96 bf        	<unknown>
1001061a: b0 3e        	<unknown>
1001061c: b2 3e        	<unknown>
1001061e: 4b bf cd 3f 42 3f 21 be      	<unknown>
10010626: d4 3d        	<unknown>
10010628: 9b bf 33 bf 1a bf c5 3d      	<unknown>
10010630: 97 3f f6 be c6 3f 52 3f      	<unknown>
10010638: 87 bf d4 bf 39 3f ad 3f      	<unknown>
10010640: c2 bf        	<unknown>
10010642: 9a bf        	<unknown>
10010644: dc bd        	<unknown>
10010646: c7 bf 2a 3f b3 3f 2a bf      	<unknown>
1001064e: a2 bf        	<unknown>
10010650: 19 3f        	<unknown>
10010652: dc be        	<unknown>
10010654: 87 3f 0c 40 2a bf da 3e      	<unknown>
1001065c: 9d bf        	<unknown>
1001065e: 4e 3f        	<unknown>
10010660: 74 be        	<unknown>
10010662: b0 bf        	<unknown>
10010664: 5e 3e        	<unknown>
10010666: bb 3e 80 3f be bf 83 3f      	<unknown>
1001066e: 38 3f        	<unknown>
10010670: 2f bf 0b 3f d2 bf 12 bf      	<unknown>
10010678: 47 bf e9 3e 94 bf 5e bf      	<unknown>
10010680: 99 3d        	<unknown>
10010682: ea 3f        	<unknown>
10010684: 19 bf        	<unknown>
10010686: 27 bf 0c 3f a1 bf 61 3e      	<unknown>
1001068e: 82 bf        	<unknown>
10010690: ca 3f        	<unknown>
10010692: ea 3e        	<unknown>
10010694: 28 3f        	<unknown>
10010696: 25 3f        	<unknown>
10010698: 7e bf        	<unknown>
1001069a: 59 3f        	<unknown>
1001069c: 63 3f 8e 3f 34 bf 6e bf      	<unknown>
100106a4: fa 3d        	<unknown>
100106a6: bc bf        	<unknown>
100106a8: ef bf 6a be c5 3f 6d bf      	<unknown>
100106b0: 7f 3f 7b bf 21 be 1a bf      	<unknown>
100106b8: 44 bf        	<unknown>
100106ba: 18 3f        	<unknown>
100106bc: de bf        	<unknown>
100106be: 81 bf        	<unknown>
100106c0: cd bf        	<unknown>
100106c2: 4b 3f be 3e 8b 3f 08 40      	<unknown>
100106ca: fc be        	<unknown>
100106cc: 05 40        	<unknown>
100106ce: 5b bf 4d be 00 00 39 bf      	<unknown>
100106d6: 31 3f        	<unknown>
100106d8: 52 be        	<unknown>
100106da: e3 be 1a bf cd 3e f0 3e      	<unknown>
100106e2: 94 3f        	<unknown>
100106e4: 26 3f        	<unknown>
100106e6: 5e bf        	<unknown>
100106e8: 16 bf        	<unknown>
100106ea: 85 3f        	<unknown>
100106ec: 92 3e        	<unknown>
100106ee: 1d 3e        	<unknown>
100106f0: a3 be 67 3f fb 3f a9 3d      	<unknown>
100106f8: 82 bf        	<unknown>
100106fa: 40 bf        	<unknown>
100106fc: 47 bf b2 3e 37 bf d2 3f      	<unknown>
10010704: 7c bf        	<unknown>
10010706: 81 3f        	<unknown>
10010708: 9b 3f 98 3f 59 bf 76 3f      	<unknown>
10010710: fe be        	<unknown>
10010712: 18 c0        	<unknown>
10010714: 06 3f        	<unknown>
10010716: 89 bf        	<unknown>
10010718: f3 bf 9e bd 0d 40 0b 3f      	<unknown>
10010720: 86 be        	<unknown>
10010722: dc 3e        	<unknown>
10010724: b7 3e d6 be c5 bd fe be      	<unknown>
1001072c: ad bd        	<unknown>
1001072e: 24 bf        	<unknown>
10010730: 2f 3f 71 be 68 be 19 be      	<unknown>
10010738: 45 3f        	<unknown>
1001073a: 90 3f        	<unknown>
1001073c: 0f bf d0 3e 44 bf 14 40      	<unknown>
10010744: ad 3f        	<unknown>
10010746: 60 bf        	<unknown>
10010748: 7a 3f        	<unknown>
1001074a: 07 3f 75 bf 89 bf 07 be      	<unknown>
10010752: ec 3e        	<unknown>
10010754: a5 3f        	<unknown>
10010756: ab 3d b4 3e b8 bf 00 bf      	<unknown>
1001075e: ff be 13 40 97 bf ba 3e      	<unknown>
10010766: 95 3f        	<unknown>
10010768: 33 3f 80 be e7 be e5 3f      	<unknown>
10010770: bb be 4b bf fd 3e eb 3f      	<unknown>
10010778: 3d bf        	<unknown>
1001077a: af bf ce 3f 46 bf 2a 3f      	<unknown>
10010782: 03 bf 3e bf e8 3f fc 3e      	<unknown>
1001078a: 04 3f        	<unknown>
1001078c: 17 c0 87 bf 93 be 3c 3e      	<unknown>
10010794: c1 3e        	<unknown>
10010796: c8 3f        	<unknown>
10010798: d0 be        	<unknown>
1001079a: b9 3f        	<unknown>
1001079c: d2 3e        	<unknown>
1001079e: 89 be        	<unknown>
100107a0: 12 bf        	<unknown>
100107a2: a8 3e        	<unknown>
100107a4: e3 3f df 3f ad be fe 3e      	<unknown>
100107ac: cb bf 8e be 33 3e a8 be      	<unknown>
100107b4: 12 c0        	<unknown>
100107b6: 9b 3e c8 bf 65 bf 35 bf      	<unknown>
100107be: 90 3f        	<unknown>
100107c0: 84 3e        	<unknown>
100107c2: 7a 3f        	<unknown>
100107c4: ab be a9 3e 44 40 6b bf      	<unknown>
100107cc: 2b bf 64 3e fb bf b6 bf      	<unknown>
100107d4: 1e bf        	<unknown>
100107d6: aa 3f        	<unknown>
100107d8: a9 bf        	<unknown>
100107da: 68 bf        	<unknown>
100107dc: a0 3e        	<unknown>
100107de: 40 bf        	<unknown>
100107e0: 97 bf 6d bf 08 c0 76 be      	<unknown>
100107e8: a6 3f        	<unknown>
100107ea: 16 3f        	<unknown>
100107ec: 44 3f        	<unknown>
100107ee: 0c bf        	<unknown>
100107f0: 88 bf        	<unknown>
100107f2: b2 bf        	<unknown>
100107f4: 73 bf 49 be c1 be f6 3e      	<unknown>
100107fc: 58 3e        	<unknown>
100107fe: 23 3f 43 3f bb be 84 bf      	<unknown>
10010806: a1 be        	<unknown>
10010808: b6 3f        	<unknown>
1001080a: ce bf        	<unknown>
1001080c: dc be        	<unknown>
1001080e: a7 3f 96 bd 73 3f 15 3f      	<unknown>
10010816: 7f bf 17 3f 0e 40 a6 3f      	<unknown>
1001081e: 6a 3f        	<unknown>
10010820: fc bd        	<unknown>
10010822: 3e bf        	<unknown>
10010824: 97 bd ce bf 91 3f f5 3f      	<unknown>
1001082c: 18 bf        	<unknown>
1001082e: 42 3f        	<unknown>
10010830: 0c c0        	<unknown>
10010832: 8e bf        	<unknown>
10010834: 3a 3f        	<unknown>
10010836: 22 bf        	<unknown>
10010838: 24 3f        	<unknown>
1001083a: 76 3f        	<unknown>
1001083c: f8 be        	<unknown>
1001083e: 36 bf        	<unknown>
10010840: 8f bd cc bc ee 3e ba bf      	<unknown>
10010848: 70 be        	<unknown>
1001084a: 92 bf        	<unknown>
1001084c: 44 bf        	<unknown>
1001084e: a3 3f 9f bf e3 be a2 bf      	<unknown>
10010856: 12 bf        	<unknown>
10010858: b3 bc 26 3f 21 3f b8 bf      	<unknown>
10010860: f6 39        	<unknown>
10010862: 75 3f        	<unknown>
10010864: ae 3f        	<unknown>
10010866: 5d 3f        	<unknown>
10010868: b0 3e        	<unknown>
1001086a: 3a 3f        	<unknown>
1001086c: e7 3e a5 be 78 3f b0 3e      	<unknown>
10010874: e0 bf        	<unknown>
10010876: 80 be        	<unknown>
10010878: 85 bf        	<unknown>
1001087a: 6e 3f        	<unknown>
1001087c: bd 3f        	<unknown>
1001087e: 95 3e        	<unknown>
10010880: 58 3f        	<unknown>
10010882: 45 3e        	<unknown>
10010884: 5b 3f 54 bf fd bf d4 3f      	<unknown>
1001088c: f4 bc        	<unknown>
1001088e: bf be ca 3f 96 bf 2c 3f      	<unknown>
10010896: 05 bf        	<unknown>
10010898: d7 3f 37 bf a6 3f 0a 40      	<unknown>
100108a0: f2 3e        	<unknown>
100108a2: e4 bf        	<unknown>
100108a4: 2b 3f 01 3f 92 bf d7 3d      	<unknown>
100108ac: 0a 3e        	<unknown>
100108ae: a8 3e        	<unknown>
100108b0: 08 bf        	<unknown>
100108b2: f1 3f        	<unknown>
100108b4: fd 3e        	<unknown>
100108b6: c3 3f ea bf 86 be 5a 3e      	<unknown>
100108be: 96 bd        	<unknown>
100108c0: 70 bf        	<unknown>
100108c2: 1b 3f 56 3f ae 3f 13 40      	<unknown>
100108ca: 36 bf        	<unknown>
100108cc: ac be        	<unknown>
100108ce: da bf        	<unknown>
100108d0: 35 40        	<unknown>
100108d2: 0b 3e f2 3e 89 3d 7e bf      	<unknown>
100108da: 34 bf        	<unknown>
100108dc: 54 40        	<unknown>
100108de: 26 3e        	<unknown>
100108e0: a1 3f        	<unknown>
100108e2: ab 3b d1 bf 46 3e 29 3e      	<unknown>
100108ea: e8 be        	<unknown>
100108ec: b1 be        	<unknown>
100108ee: 1e 3f        	<unknown>
100108f0: 3e bf        	<unknown>
100108f2: 5f 3e ba 3e 27 bf 8c 3f      	<unknown>
100108fa: 69 bf        	<unknown>
100108fc: 15 3f        	<unknown>
100108fe: d7 be 56 3f b2 3e 25 bf      	<unknown>
10010906: 2a be        	<unknown>
10010908: f6 bf        	<unknown>
1001090a: b7 3e 7e bf 9f 3f 5e bd      	<unknown>
10010912: b2 3d        	<unknown>
10010914: de 3e        	<unknown>
10010916: f2 bf        	<unknown>
10010918: 2e 40        	<unknown>
1001091a: 87 3e 31 bf b4 bf 22 bd      	<unknown>
10010922: e9 3e        	<unknown>
10010924: cd be        	<unknown>
10010926: ba 3f        	<unknown>
10010928: 21 be        	<unknown>
1001092a: 86 3c        	<unknown>
1001092c: 97 3f 9f 3f e7 be 26 3f      	<unknown>
10010934: 81 be        	<unknown>
10010936: 4d bf        	<unknown>
10010938: ff be fe bd a7 3f a8 bf      	<unknown>
10010940: 95 3f        	<unknown>
10010942: 4a 3f        	<unknown>
10010944: d3 3f bb bd ac bf 41 3f      	<unknown>
1001094c: 5a 3f        	<unknown>
1001094e: fb 3f 65 be 1c bf 3c 3f      	<unknown>
10010956: ed 3e        	<unknown>
10010958: 8d be        	<unknown>
1001095a: be 3f        	<unknown>
1001095c: 90 3e        	<unknown>
1001095e: 86 3f        	<unknown>
10010960: 63 bf a5 3f 19 bf 5a bf      	<unknown>
10010968: a1 bf        	<unknown>
1001096a: be 3f        	<unknown>
1001096c: 4c 3e        	<unknown>
1001096e: 08 3f        	<unknown>
10010970: 19 bf        	<unknown>
10010972: 94 be        	<unknown>
10010974: 31 3f        	<unknown>
10010976: 51 bf        	<unknown>
10010978: 36 bf        	<unknown>
1001097a: e4 bf        	<unknown>
1001097c: 2c bf        	<unknown>
1001097e: 24 bf        	<unknown>
10010980: dc 3f        	<unknown>
10010982: 2b 3f 7a 3e c0 3f 9e bf      	<unknown>
1001098a: fc 3f        	<unknown>
1001098c: 05 3f        	<unknown>
1001098e: 83 bf aa bf c1 3e 6e bf      	<unknown>
10010996: f9 be        	<unknown>
10010998: ec bd        	<unknown>
1001099a: 42 be        	<unknown>
1001099c: c1 be        	<unknown>
1001099e: 05 3e        	<unknown>
100109a0: 83 3f 9f bf 46 3f ce be      	<unknown>
100109a8: 28 40        	<unknown>
100109aa: ae bf        	<unknown>
100109ac: 9e 3f        	<unknown>
100109ae: 52 bf        	<unknown>
100109b0: 4a be        	<unknown>
100109b2: a8 3f        	<unknown>
100109b4: ae 3f        	<unknown>
100109b6: 02 40        	<unknown>
100109b8: ac be        	<unknown>
100109ba: 53 bf e1 3f 9d bf ac be      	<unknown>
100109c2: 48 3e        	<unknown>
100109c4: 0f 40 13 bf be bf f8 3e      	<unknown>
100109cc: 41 40        	<unknown>
100109ce: 25 bd        	<unknown>
100109d0: d5 be        	<unknown>
100109d2: 02 3f        	<unknown>
100109d4: 87 3f 02 c0 f4 be fa 3f      	<unknown>
100109dc: 46 bf        	<unknown>
100109de: cf bf cb bf ac be 92 bf      	<unknown>
100109e6: 03 c0 19 40 a6 bf 6c 3f      	<unknown>
100109ee: 60 3f        	<unknown>
100109f0: 68 3e        	<unknown>
100109f2: 0a bf        	<unknown>
100109f4: 03 bf 69 bf 1f be b0 bf      	<unknown>
100109fc: b1 3f        	<unknown>
100109fe: 45 bf        	<unknown>
10010a00: b2 3f        	<unknown>
10010a02: a9 be        	<unknown>
10010a04: d6 be        	<unknown>
10010a06: d5 bf        	<unknown>
10010a08: 85 3f        	<unknown>
10010a0a: a6 be        	<unknown>
10010a0c: 31 3f        	<unknown>
10010a0e: 92 3f        	<unknown>
10010a10: 9f 3e d8 3e 57 bf 9f bf      	<unknown>
10010a18: af 3e cd be 94 3f e1 bd      	<unknown>
10010a20: a1 be        	<unknown>
10010a22: 9d be        	<unknown>
10010a24: c9 be        	<unknown>
10010a26: f8 bf        	<unknown>
10010a28: 0a 40        	<unknown>
10010a2a: 1a c0        	<unknown>
10010a2c: e4 bf        	<unknown>
10010a2e: 86 bf        	<unknown>
10010a30: a0 be        	<unknown>
10010a32: 11 bf        	<unknown>
10010a34: 09 3f        	<unknown>
10010a36: cc be        	<unknown>
10010a38: 75 3f        	<unknown>
10010a3a: 8b 3f 8a bf 6a bf 00 00      	<unknown>
10010a42: fa 3f        	<unknown>
10010a44: 04 3d        	<unknown>
10010a46: e1 bf        	<unknown>
10010a48: a2 3e        	<unknown>
10010a4a: df 39 a8 3f 6b 3f 00 00      	<unknown>
10010a52: 9e 3f        	<unknown>
10010a54: 5c 3e        	<unknown>
10010a56: f4 be        	<unknown>
10010a58: a4 3f        	<unknown>
10010a5a: 61 3f        	<unknown>
10010a5c: 8a bf        	<unknown>
10010a5e: 1c 3f        	<unknown>
10010a60: f0 3d        	<unknown>
10010a62: be be        	<unknown>
10010a64: cb bc cf bf f2 3c 52 bf      	<unknown>
10010a6c: 0d c0        	<unknown>
10010a6e: 80 3f        	<unknown>
10010a70: d9 bf        	<unknown>
10010a72: eb be 09 3f fb be 9e 3f      	<unknown>
10010a7a: 95 3f        	<unknown>
10010a7c: 57 3e 2b 3f 60 be c1 bf      	<unknown>
10010a84: d2 be        	<unknown>
10010a86: 02 bf        	<unknown>
10010a88: d6 3f        	<unknown>
10010a8a: 30 3f        	<unknown>
10010a8c: 9a bf        	<unknown>
10010a8e: 9d bf        	<unknown>
10010a90: f4 be        	<unknown>
10010a92: 10 be        	<unknown>
10010a94: bc 3f        	<unknown>
10010a96: af 3e 9e 3f 1e 3e d9 3f      	<unknown>
10010a9e: 1f 3e 4b bf 66 bf 1d 3f      	<unknown>
10010aa6: 8d 3f        	<unknown>
10010aa8: 54 3e        	<unknown>
10010aaa: fa 3e        	<unknown>
10010aac: 1f 3f 09 bf 5d 3e 85 3f      	<unknown>
10010ab4: 32 bf        	<unknown>
10010ab6: 00 c0        	<unknown>
10010ab8: 42 3f        	<unknown>
10010aba: c0 bd        	<unknown>
10010abc: 0f be a7 3f 6c 3f 60 bf      	<unknown>
10010ac4: 5d 3f        	<unknown>
10010ac6: 44 3f        	<unknown>
10010ac8: 03 be b0 3f 0e bf 50 c0      	<unknown>
10010ad0: 89 be        	<unknown>
10010ad2: 93 bf b8 3f 9a 3c 12 c0      	<unknown>
10010ada: 2d 3e        	<unknown>
10010adc: 4b be 38 bf cc be 9b be      	<unknown>
10010ae4: fd be        	<unknown>
10010ae6: 4a be        	<unknown>
10010ae8: 42 3f        	<unknown>
10010aea: 4f bf 0f 3f 17 40 ec bf      	<unknown>
10010af2: 37 bf 8e bd a9 3f dc 3e      	<unknown>
10010afa: 71 bf        	<unknown>
10010afc: 9d be        	<unknown>
10010afe: ec 3f        	<unknown>
10010b00: 7f be bd be 7a be 02 be      	<unknown>
10010b08: 4c 3d        	<unknown>
10010b0a: ce bd        	<unknown>
10010b0c: f4 bd        	<unknown>
10010b0e: e2 be        	<unknown>
10010b10: a2 3f        	<unknown>
10010b12: dc be        	<unknown>
10010b14: b4 3f        	<unknown>
10010b16: 4b 3e aa 3e 0d bf d9 3f      	<unknown>
10010b1e: 80 3e        	<unknown>
10010b20: a2 bf        	<unknown>
10010b22: 10 bf        	<unknown>
10010b24: 84 bf        	<unknown>
10010b26: c2 be        	<unknown>
10010b28: 20 3f        	<unknown>
10010b2a: cc 3e        	<unknown>
10010b2c: fe bf        	<unknown>
10010b2e: 72 bf        	<unknown>
10010b30: ab bf 58 bf 06 3f 12 bf      	<unknown>
10010b38: 9c bf        	<unknown>
10010b3a: c3 3e 36 3f cb 3f 12 be      	<unknown>
10010b42: 6f bf 00 00 e3 3e a7 be      	<unknown>
10010b4a: 62 3c        	<unknown>
10010b4c: 6e 3e        	<unknown>
10010b4e: 97 3f 65 bd f3 3e 00 00      	<unknown>
10010b56: 86 be        	<unknown>
10010b58: 96 3f        	<unknown>
10010b5a: 0b c0 18 bd 9e 3f 0a bf      	<unknown>
10010b62: ab 3d 39 3f 0a 3f c5 be      	<unknown>
10010b6a: 3a bf        	<unknown>
10010b6c: eb be 1c be a8 3f 02 bf      	<unknown>
10010b74: 39 3e        	<unknown>
10010b76: a5 3e        	<unknown>
10010b78: c6 bf        	<unknown>
10010b7a: 85 be        	<unknown>
10010b7c: 08 bf        	<unknown>
10010b7e: f8 be        	<unknown>
10010b80: b1 be        	<unknown>
10010b82: ef 3e 20 3f 9e 3f 07 c0      	<unknown>
10010b8a: c5 3e        	<unknown>
10010b8c: 04 bf        	<unknown>
10010b8e: d7 bf 32 bf 6b 3f 24 be      	<unknown>
10010b96: 74 bf        	<unknown>
10010b98: bc 3e        	<unknown>
10010b9a: 75 bf        	<unknown>
10010b9c: 00 3f        	<unknown>
10010b9e: 62 bf        	<unknown>
10010ba0: 39 40        	<unknown>
10010ba2: 0e 3f        	<unknown>
10010ba4: b4 be        	<unknown>
10010ba6: 82 3f        	<unknown>
10010ba8: 52 bf        	<unknown>
10010baa: 30 bf        	<unknown>
10010bac: 55 3f        	<unknown>
10010bae: bf 3c 92 bf ac 3f 6a bf      	<unknown>
10010bb6: 89 bf        	<unknown>
10010bb8: b6 3f        	<unknown>
10010bba: 2f 3a fe 3e 7a 3f 58 3f      	<unknown>
10010bc2: 26 bf        	<unknown>
10010bc4: 99 3e        	<unknown>
10010bc6: 4c bf        	<unknown>
10010bc8: 1b 3f a3 bf 01 bf 37 be      	<unknown>
10010bd0: 5e be        	<unknown>
10010bd2: c4 bf        	<unknown>
10010bd4: f1 3e        	<unknown>
10010bd6: 57 bf 0b be 0d 40 c7 3e      	<unknown>
10010bde: 35 3e        	<unknown>
10010be0: cb be 38 3e 6a 3e 32 be      	<unknown>
10010be8: 11 3d        	<unknown>
10010bea: 74 be        	<unknown>
10010bec: b3 bf 27 bf e5 3f a6 be      	<unknown>
10010bf4: ce 3e        	<unknown>
10010bf6: c9 bd        	<unknown>
10010bf8: be 3f        	<unknown>
10010bfa: a7 bf 79 bf 83 be 5d 3f      	<unknown>
10010c02: 85 3f        	<unknown>
10010c04: f7 bf 4f bf 11 3d d6 3f      	<unknown>
10010c0c: cb 3f 91 3f 8e bf a2 3e      	<unknown>
10010c14: b5 bd        	<unknown>
10010c16: c1 3f        	<unknown>
10010c18: 3f 3f dc be 00 00 12 3f      	<unknown>
10010c20: a2 3f        	<unknown>
10010c22: 2e 3f        	<unknown>
10010c24: 0d bd        	<unknown>
10010c26: 43 3f 8c bf 8f 3f 4b bc      	<unknown>
10010c2e: 08 40        	<unknown>
10010c30: 25 bf        	<unknown>
10010c32: 19 bf        	<unknown>
10010c34: c8 be        	<unknown>
10010c36: 25 c0        	<unknown>
10010c38: b5 3e        	<unknown>
10010c3a: ba be        	<unknown>
10010c3c: ff be bf 3f 27 3f 53 be      	<unknown>
10010c44: 2f 3f ac 3e 20 40 d8 3e      	<unknown>
10010c4c: f9 3e        	<unknown>
10010c4e: 35 3f        	<unknown>
10010c50: b1 bc        	<unknown>
10010c52: 9e be        	<unknown>
10010c54: 09 3f        	<unknown>
10010c56: ac 3d        	<unknown>
10010c58: ff 3e 2a be 35 bf 3c bd      	<unknown>
10010c60: a7 3f 0d c0 d3 bf b0 bf      	<unknown>
10010c68: 82 bf        	<unknown>
10010c6a: 54 3e        	<unknown>
10010c6c: 04 c0        	<unknown>
10010c6e: 27 3f ad bd f9 be 46 3f      	<unknown>
10010c76: ba 3f        	<unknown>
10010c78: 97 bf 67 bf e9 be 8a 3e      	<unknown>
10010c80: 62 bf        	<unknown>
10010c82: 13 be e9 bf 87 bf 0f bf      	<unknown>
10010c8a: 74 3f        	<unknown>
10010c8c: 13 3f b9 3f 00 3f 94 be      	<unknown>
10010c94: 6c bf        	<unknown>
10010c96: 1b 3e 2d be 5b 3e 67 3f      	<unknown>
10010c9e: 19 3f        	<unknown>
10010ca0: 48 3e        	<unknown>
10010ca2: 10 3f        	<unknown>
10010ca4: 07 40 16 bf 23 be 8f bf      	<unknown>
10010cac: da bf        	<unknown>
10010cae: dc 3e        	<unknown>
10010cb0: 02 3f        	<unknown>
10010cb2: 10 3f        	<unknown>
10010cb4: 8a be        	<unknown>
10010cb6: a4 bf        	<unknown>
10010cb8: 05 3f        	<unknown>
10010cba: a6 bf        	<unknown>
10010cbc: 77 3f 58 3f 40 3d 92 3f      	<unknown>
10010cc4: 86 3f        	<unknown>
10010cc6: 21 3e        	<unknown>
10010cc8: 59 bf        	<unknown>
10010cca: e0 3e        	<unknown>
10010ccc: aa be        	<unknown>
10010cce: 55 bf        	<unknown>
10010cd0: 30 3e        	<unknown>
10010cd2: ad 3d        	<unknown>
10010cd4: fb 3f fc 3d 99 3f 51 3f      	<unknown>
10010cdc: 5d bf        	<unknown>
10010cde: ab bf 9b bf c4 be 59 3e      	<unknown>
10010ce6: 0f 3d 0a 3d bb be 72 be      	<unknown>
10010cee: 47 3f b4 3f dd 3f cd bf      	<unknown>
10010cf6: 6e bf        	<unknown>
10010cf8: 65 bf        	<unknown>
10010cfa: 00 c0        	<unknown>
10010cfc: 4e 3e        	<unknown>
10010cfe: c8 3e        	<unknown>
10010d00: b9 3f        	<unknown>
10010d02: a1 3e        	<unknown>
10010d04: 76 bf        	<unknown>
10010d06: 76 be        	<unknown>
10010d08: 0d c0        	<unknown>
10010d0a: 18 be        	<unknown>
10010d0c: 14 bf        	<unknown>
10010d0e: de be        	<unknown>
10010d10: cd 3f        	<unknown>
10010d12: a3 3f 2b bf 01 3f a6 3f      	<unknown>
10010d1a: 84 be        	<unknown>
10010d1c: 94 bf        	<unknown>
10010d1e: 84 bf        	<unknown>
10010d20: 9c 3f        	<unknown>
10010d22: f4 3f        	<unknown>
10010d24: 9b be 93 3e 79 bd 1a bf      	<unknown>
10010d2c: f0 3e        	<unknown>
10010d2e: 68 bf        	<unknown>
10010d30: 39 3e        	<unknown>
10010d32: c8 3f        	<unknown>
10010d34: ba 3e        	<unknown>
10010d36: a6 be        	<unknown>
10010d38: 84 3d        	<unknown>
10010d3a: bb 3f 9c 3f 32 3f 38 3f      	<unknown>
10010d42: 81 bf        	<unknown>
10010d44: 45 bf        	<unknown>
10010d46: 44 3f        	<unknown>
10010d48: 04 3e        	<unknown>
10010d4a: f0 3e        	<unknown>
10010d4c: 23 40 6c 3f 4b 3f a5 3d      	<unknown>
10010d54: 22 3f        	<unknown>
10010d56: a3 3f fc be 1b bf 81 bf      	<unknown>
10010d5e: 7a bf        	<unknown>
10010d60: b4 3f        	<unknown>
10010d62: 00 00        	<unknown>
10010d64: b7 3f d5 be 44 3f a3 be      	<unknown>
10010d6c: 41 3e        	<unknown>
10010d6e: 9f be d1 be 00 00 68 bf      	<unknown>
10010d76: 27 3f e8 3d 09 3f eb 3f      	<unknown>
10010d7e: 24 3c        	<unknown>
10010d80: f2 be        	<unknown>
10010d82: 0b 3f d0 3f fe be fd be      	<unknown>
10010d8a: 72 3f        	<unknown>
10010d8c: 63 bf c2 3e ef 3e e5 be      	<unknown>
10010d94: 46 3f        	<unknown>
10010d96: b6 bf        	<unknown>
10010d98: 13 bf 2a 3f 78 3f cd be      	<unknown>
10010da0: 09 c0        	<unknown>
10010da2: c8 bf        	<unknown>
10010da4: 25 c0        	<unknown>
10010da6: aa be        	<unknown>
10010da8: be 3e        	<unknown>
10010daa: b7 be a6 be 5e 3d 11 c0      	<unknown>
10010db2: da 3e        	<unknown>
10010db4: c2 3f        	<unknown>
10010db6: d1 3d        	<unknown>
10010db8: f2 bf        	<unknown>
10010dba: 68 3e        	<unknown>
10010dbc: 34 bf        	<unknown>
10010dbe: dc 3e        	<unknown>
10010dc0: 82 3f        	<unknown>
10010dc2: a3 bf b4 bf 97 3e e1 3e      	<unknown>
10010dca: c7 3e 7f be 5f 3e 8f 3e      	<unknown>
10010dd2: 74 3f        	<unknown>
10010dd4: 93 bf 85 be 3b 3f d3 be      	<unknown>
10010ddc: 00 bf        	<unknown>
10010dde: ff be 04 3e 12 3f 07 3f      	<unknown>
10010de6: 49 3f        	<unknown>
10010de8: 26 3f        	<unknown>
10010dea: bc bf        	<unknown>
10010dec: 7d 3e        	<unknown>
10010dee: cd bf        	<unknown>
10010df0: 13 3f 22 3f 7e be 40 3f      	<unknown>
10010df8: a2 bf        	<unknown>
10010dfa: 3e bf        	<unknown>
10010dfc: b5 3f        	<unknown>
10010dfe: 9d 3f        	<unknown>
10010e00: da 3e        	<unknown>
10010e02: 2e 3f        	<unknown>
10010e04: 13 c0 e3 be 7a bf bf 3f      	<unknown>
10010e0c: ca be        	<unknown>
10010e0e: 70 bf        	<unknown>
10010e10: a7 bd fc be 37 be 3f 3f      	<unknown>
10010e18: f2 bc        	<unknown>
10010e1a: 09 3f        	<unknown>
10010e1c: 9b be 6e 3a 28 3f 45 bd      	<unknown>
10010e24: 78 be        	<unknown>
10010e26: 92 be        	<unknown>
10010e28: ec 3e        	<unknown>
10010e2a: 86 bf        	<unknown>
10010e2c: a5 3f        	<unknown>
10010e2e: 9a be        	<unknown>
10010e30: 09 40        	<unknown>
10010e32: 87 be f9 be 4d 3f 6d 3e      	<unknown>
10010e3a: 9c 3f        	<unknown>
10010e3c: d7 be 9e 3d 93 3f 19 3e      	<unknown>
10010e44: 2f bf 07 40 a9 3f b2 bf      	<unknown>
10010e4c: ee 3f        	<unknown>
10010e4e: 9a bd        	<unknown>
10010e50: 00 00        	<unknown>
10010e52: 5c 3f        	<unknown>
10010e54: d5 be        	<unknown>
10010e56: 7e bf        	<unknown>
10010e58: f3 3e 92 3f b7 be 1a 3f      	<unknown>
10010e60: 8f be 40 3f 95 3c be bf      	<unknown>
10010e68: 33 bf 2a bf a5 3e fe bf      	<unknown>
10010e70: 0e bd        	<unknown>
10010e72: 53 3e 35 3e f4 be 5a be      	<unknown>
10010e7a: eb bd d0 3f 7d be b4 3e      	<unknown>
10010e82: 93 bf 4d bf 8c bf 1b 3f      	<unknown>
10010e8a: 84 3f        	<unknown>
10010e8c: 63 be 95 bf 1f 3f f1 be      	<unknown>
10010e94: 91 bf        	<unknown>
10010e96: fa be        	<unknown>
10010e98: fd 3f        	<unknown>
10010e9a: f9 be        	<unknown>
10010e9c: 34 bf        	<unknown>
10010e9e: 2b 3e 88 bf ad bd 98 3f      	<unknown>
10010ea6: a5 bf        	<unknown>
10010ea8: a6 bf        	<unknown>
10010eaa: ac be        	<unknown>
10010eac: 23 3f 70 3f a9 bd 61 be      	<unknown>
10010eb4: 04 bf        	<unknown>
10010eb6: 92 be        	<unknown>
10010eb8: 93 be bb be ec be 57 be      	<unknown>
10010ec0: 4c 3f        	<unknown>
10010ec2: 07 bf be bf bf 3f 9c 3f      	<unknown>
10010eca: 93 3f 23 40 6e bf 08 3f      	<unknown>
10010ed2: 27 bf aa 3e ac 3e 39 3e      	<unknown>
10010eda: 6a 3e        	<unknown>
10010edc: fa be        	<unknown>
10010ede: 07 40 90 3e c5 3e 33 3f      	<unknown>
10010ee6: 73 3f 77 bf 00 00 38 bf      	<unknown>
10010eee: 15 3f        	<unknown>
10010ef0: 45 bf        	<unknown>
10010ef2: c7 3f 66 bf 33 3f 86 bf      	<unknown>
10010efa: 00 00        	<unknown>
10010efc: 0d 3d        	<unknown>
10010efe: ce 3d        	<unknown>
10010f00: 2e 3e        	<unknown>
10010f02: 20 3f        	<unknown>
10010f04: 28 40        	<unknown>
10010f06: ec be        	<unknown>
10010f08: 38 3e        	<unknown>
10010f0a: 29 40        	<unknown>
10010f0c: a2 bf        	<unknown>
10010f0e: 9e bf        	<unknown>
10010f10: 19 40        	<unknown>
10010f12: df 3f 47 3e 99 bf af bf      	<unknown>
10010f1a: 03 c0 de 3f ac bf cb 3b      	<unknown>
10010f22: 77 bf c6 3f 14 3f af bf      	<unknown>
10010f2a: 9a be        	<unknown>
10010f2c: 01 bf        	<unknown>
10010f2e: 33 bf 7a bf d6 bf 7c be      	<unknown>
10010f36: 23 3e b4 3e de 3f 16 bf      	<unknown>
10010f3e: a0 be        	<unknown>
10010f40: d0 3e        	<unknown>
10010f42: 8f 3f 87 bd b6 be 2b 3f      	<unknown>
10010f4a: 25 bf        	<unknown>
10010f4c: 94 3a        	<unknown>
10010f4e: 04 40        	<unknown>
10010f50: 6f bf ac bf 0e bf c0 3e      	<unknown>
10010f58: c4 bf        	<unknown>
10010f5a: 4c bf        	<unknown>
10010f5c: 36 be        	<unknown>
10010f5e: 86 bf        	<unknown>
10010f60: d7 bd cf 3e 0c bd 54 40      	<unknown>
10010f68: 71 3e        	<unknown>
10010f6a: 8b be 94 3f af bf 61 bf      	<unknown>
10010f72: 52 be        	<unknown>
10010f74: fa 3e        	<unknown>
10010f76: a7 3e bd 3b 64 3f c1 be      	<unknown>
10010f7e: 8f be 1e bf af be 8c 3e      	<unknown>
10010f86: 9e 3d        	<unknown>
10010f88: d9 be        	<unknown>
10010f8a: 59 bf        	<unknown>
10010f8c: 87 3f 39 3f dc be cb 3e      	<unknown>
10010f94: b0 3f        	<unknown>
10010f96: 8e bf        	<unknown>
10010f98: 7f 3e 8b 3f ca 3f 58 be      	<unknown>
10010fa0: bb bd 48 be 68 3f 8a 3f      	<unknown>
10010fa8: d4 3e        	<unknown>
10010faa: 00 3f        	<unknown>
10010fac: 8e 3f        	<unknown>
10010fae: a7 bf 85 bf 83 be 50 be      	<unknown>
10010fb6: 84 3f        	<unknown>
10010fb8: 23 3e 58 bf 85 bf b5 be      	<unknown>
10010fc0: ae 3f        	<unknown>
10010fc2: 06 40        	<unknown>
10010fc4: 06 3f        	<unknown>
10010fc6: f4 3e        	<unknown>
10010fc8: e6 3e        	<unknown>
10010fca: d2 bd        	<unknown>
10010fcc: f9 bd        	<unknown>
10010fce: e0 be        	<unknown>
10010fd0: d4 3f        	<unknown>
10010fd2: d6 3e        	<unknown>
10010fd4: 98 3f        	<unknown>
10010fd6: 70 3d        	<unknown>
10010fd8: d0 3e        	<unknown>
10010fda: 95 bf        	<unknown>
10010fdc: c5 be        	<unknown>
10010fde: 74 bf        	<unknown>
10010fe0: eb 3e 98 3d 9a 3f b3 be      	<unknown>
10010fe8: 01 40        	<unknown>
10010fea: 4c bf        	<unknown>
10010fec: c5 3f        	<unknown>
10010fee: 09 bf        	<unknown>
10010ff0: f6 3e        	<unknown>
10010ff2: ce 3d        	<unknown>
10010ff4: b9 bf        	<unknown>
10010ff6: 5a 3f        	<unknown>
10010ff8: 81 3f        	<unknown>
10010ffa: 7c bf        	<unknown>
10010ffc: 18 3f        	<unknown>
10010ffe: 35 bf        	<unknown>
10011000: 9a be        	<unknown>
10011002: 08 bf        	<unknown>
10011004: 8e be        	<unknown>
10011006: f1 3f        	<unknown>
10011008: 1f 40 56 3e 18 bf 7c bf      	<unknown>
10011010: 88 bf        	<unknown>
10011012: 5b bf 23 3d 8e bf 0f 3f      	<unknown>
1001101a: 21 bf        	<unknown>
1001101c: 2b 40 5b bf 11 bf a0 be      	<unknown>
10011024: 34 3f        	<unknown>
10011026: 0f bf fc be 78 bf a5 bf      	<unknown>
1001102e: da 3d        	<unknown>
10011030: 03 bf 8d bf 5a 3f d5 be      	<unknown>
10011038: 3d bf        	<unknown>
1001103a: 76 3a        	<unknown>
1001103c: 14 bf        	<unknown>
1001103e: 36 3f        	<unknown>
10011040: ef bf f5 bf e4 be 8d 3e      	<unknown>
10011048: a5 3f        	<unknown>
1001104a: 69 3e        	<unknown>
1001104c: 40 bf        	<unknown>
1001104e: a4 bf        	<unknown>
10011050: 44 bf        	<unknown>
10011052: 7d 3d        	<unknown>
10011054: 86 3e        	<unknown>
10011056: 7f 3e 95 3f 70 bd 51 bf      	<unknown>
1001105e: 64 bf        	<unknown>
10011060: e1 be        	<unknown>
10011062: 88 bf        	<unknown>
10011064: ce bf        	<unknown>
10011066: a2 bf        	<unknown>
10011068: c1 3f        	<unknown>
1001106a: 63 be 32 be ea bf 43 bf      	<unknown>
10011072: b3 bf 69 bf b0 be 0b bf      	<unknown>
1001107a: e3 3f 9a 3e f0 3e f3 3f      	<unknown>
10011082: 1e 3e        	<unknown>
10011084: e5 3f        	<unknown>
10011086: 46 be        	<unknown>
10011088: 2a 3f        	<unknown>
1001108a: ae 3e        	<unknown>
1001108c: 35 3f        	<unknown>
1001108e: 01 3f        	<unknown>
10011090: bf 3d 83 3f 46 bf a4 bf      	<unknown>
10011098: ce 3f        	<unknown>
1001109a: 17 be 8f 3f de 3e 6a 3f      	<unknown>
100110a2: 40 bf        	<unknown>
100110a4: 78 bf        	<unknown>
100110a6: 22 bf        	<unknown>
100110a8: 87 bd a6 bf c2 3e b6 be      	<unknown>
100110b0: db 3f da 3f 00 3d 0d bf      	<unknown>
100110b8: 26 3f        	<unknown>
100110ba: 4a bf        	<unknown>
100110bc: 84 bf        	<unknown>
100110be: e1 be        	<unknown>
100110c0: 80 bf        	<unknown>
100110c2: c0 bf        	<unknown>
100110c4: c4 be        	<unknown>
100110c6: 55 be        	<unknown>
100110c8: 5f 3f 42 bf e0 bd 0f bf      	<unknown>
100110d0: 95 3f        	<unknown>
100110d2: 86 3f        	<unknown>
100110d4: 45 bf        	<unknown>
100110d6: b0 bf        	<unknown>
100110d8: 76 3f        	<unknown>
100110da: 15 3d        	<unknown>
100110dc: a9 3e        	<unknown>
100110de: cc bf        	<unknown>
100110e0: 92 bf        	<unknown>
100110e2: e4 bf        	<unknown>
100110e4: d8 3f        	<unknown>
100110e6: 7e 3e        	<unknown>
100110e8: 68 be        	<unknown>
100110ea: 2b bf 33 bf 9b be df 3d      	<unknown>
100110f2: 67 bf 2a 3e 72 bf 26 bf      	<unknown>
100110fa: 61 bf        	<unknown>
100110fc: fa 3f        	<unknown>
100110fe: 28 bf        	<unknown>
10011100: e3 bf 80 bf 02 3f 19 3f      	<unknown>
10011108: c3 3e 25 be ca 3e ed be      	<unknown>
10011110: 80 be        	<unknown>
10011112: c4 3d        	<unknown>
10011114: b1 bf        	<unknown>
10011116: 84 be        	<unknown>
10011118: 97 be 61 bf ff 3f 6e bf      	<unknown>
10011120: fe bd        	<unknown>
10011122: 03 3f a6 3f d2 be 5b 3e      	<unknown>
1001112a: 8b 3e 58 3f 03 3f 7d bc      	<unknown>
10011132: 26 40        	<unknown>
10011134: 5d 3f        	<unknown>
10011136: 36 bf        	<unknown>
10011138: d8 3e        	<unknown>
1001113a: 85 bf        	<unknown>
1001113c: dc be        	<unknown>
1001113e: 1f 3e bc 3d d5 3f c2 bf      	<unknown>
10011146: 17 3e cf 3e 54 3f 5a be      	<unknown>
1001114e: 12 3f        	<unknown>
10011150: 1c 3e        	<unknown>
10011152: f7 3f b0 3f 7c 3f af bf      	<unknown>
1001115a: ef 3e b7 3f 1a bf 96 3f      	<unknown>
10011162: 1b 3e d0 3e a5 bf ba be      	<unknown>
1001116a: 0a 3e        	<unknown>
1001116c: 5b 3f ab be ec be 14 bf      	<unknown>
10011174: d1 3f        	<unknown>
10011176: 5e 3f        	<unknown>
10011178: a4 bf        	<unknown>
1001117a: ab bf 4d bf 42 3f c9 be      	<unknown>
10011182: 29 3f        	<unknown>
10011184: e2 3e        	<unknown>
10011186: 53 3e 62 bd 5c 3f 69 3f      	<unknown>
1001118e: 6e bf        	<unknown>
10011190: 2e bf        	<unknown>
10011192: 98 bf        	<unknown>
10011194: c2 3e        	<unknown>
10011196: e8 bd        	<unknown>
10011198: 98 3f        	<unknown>
1001119a: 16 c0        	<unknown>
1001119c: b8 be        	<unknown>
1001119e: 9a 3e        	<unknown>
100111a0: d5 3f        	<unknown>
100111a2: aa bf        	<unknown>
100111a4: 0a 3e        	<unknown>
100111a6: 5d 3e        	<unknown>
100111a8: a0 3f        	<unknown>
100111aa: 7f 3f 18 bf cd bf 19 3f      	<unknown>
100111b2: 99 bf        	<unknown>
100111b4: f9 bf        	<unknown>
100111b6: 17 bf 3d bf c9 be ac be      	<unknown>
100111be: fd bf        	<unknown>
100111c0: 35 bf        	<unknown>
100111c2: bb 3f 7a 3e 3f bf 7b bf      	<unknown>
100111ca: 34 c0        	<unknown>
100111cc: 98 3d        	<unknown>
100111ce: 41 3f        	<unknown>
100111d0: b7 be 93 3d 18 40 3c bf      	<unknown>
100111d8: 56 3f        	<unknown>
100111da: a8 bf        	<unknown>
100111dc: 65 3e        	<unknown>
100111de: db 3f 7d 3f 88 be 16 3f      	<unknown>
100111e6: 43 3f 44 3f 6e bd ac bf      	<unknown>
100111ee: e8 3e        	<unknown>
100111f0: 0f 3f 30 bf 94 3f 07 3e      	<unknown>
100111f8: b1 bf        	<unknown>
100111fa: 86 3e        	<unknown>
100111fc: 1b 3f 29 bf 18 3f 12 3f      	<unknown>
10011204: 80 3f        	<unknown>
10011206: c5 bf        	<unknown>
10011208: 8b 3d 2d 3e c1 bd f5 bf      	<unknown>
10011210: 94 bf        	<unknown>
10011212: 1f c0 a5 bf 4e bf e7 bf      	<unknown>
1001121a: 64 3d        	<unknown>
1001121c: 89 bf        	<unknown>
1001121e: fb 3e 9d bf a3 bf ab 3e      	<unknown>
10011226: b6 bf        	<unknown>
10011228: 8f 3d cb 3d aa 3f ba bf      	<unknown>
10011230: cf bf 22 be 8c 3f 16 3f      	<unknown>
10011238: 2e 3f        	<unknown>
1001123a: 49 3f        	<unknown>
1001123c: 9a 3f        	<unknown>
1001123e: 80 be        	<unknown>
10011240: f0 bf        	<unknown>
10011242: b8 3b        	<unknown>
10011244: f8 be        	<unknown>
10011246: 26 bd        	<unknown>
10011248: 0d 3e        	<unknown>
1001124a: e2 bf        	<unknown>
1001124c: a8 3e        	<unknown>
1001124e: 8f 3f 78 3d 63 bf 68 3e      	<unknown>
10011256: ec be        	<unknown>
10011258: 0e 3f        	<unknown>
1001125a: 28 be        	<unknown>
1001125c: 51 bf        	<unknown>
1001125e: 29 bf        	<unknown>
10011260: 31 bf        	<unknown>
10011262: 78 bf        	<unknown>
10011264: 55 3c        	<unknown>
10011266: fd 3e        	<unknown>
10011268: 61 3e        	<unknown>
1001126a: 04 3f        	<unknown>
1001126c: 04 40        	<unknown>
1001126e: 84 3f        	<unknown>
10011270: f5 bd        	<unknown>
10011272: d7 bf 03 c0 a4 3f 8f bf      	<unknown>
1001127a: 6e bf        	<unknown>
1001127c: 4f 3d 4c bf 0e 3f 9a bf      	<unknown>
10011284: 5c bf        	<unknown>
10011286: 2d 3f        	<unknown>
10011288: 86 3e        	<unknown>
1001128a: 26 bf        	<unknown>
1001128c: 28 3e        	<unknown>
1001128e: a8 be        	<unknown>
10011290: 35 c0        	<unknown>
10011292: 23 3f 9b 3f 79 be 6b be      	<unknown>
1001129a: b5 bf        	<unknown>
1001129c: 58 be        	<unknown>
1001129e: 99 3e        	<unknown>
100112a0: 1c 3f        	<unknown>
100112a2: 33 bf c7 bf 80 3f 5c bf      	<unknown>
100112aa: aa 3f        	<unknown>
100112ac: 65 3f        	<unknown>
100112ae: ef 3e f8 3d a0 be 8b 3e      	<unknown>
100112b6: b6 3f        	<unknown>
100112b8: ce 3f        	<unknown>
100112ba: 4a 3e        	<unknown>
100112bc: 3c bf        	<unknown>
100112be: 80 3f        	<unknown>
100112c0: b3 bf cc be d9 bf 5c bf      	<unknown>
100112c8: 63 3e 64 bf 4e be 79 be      	<unknown>
100112d0: 9c bf        	<unknown>
100112d2: a7 3f d2 3f d5 bc a3 bd      	<unknown>
100112da: 46 bf        	<unknown>
100112dc: e0 be        	<unknown>
100112de: 88 3e        	<unknown>
100112e0: db bf 85 3e 7b 3f 94 3f      	<unknown>
100112e8: 80 bf        	<unknown>
100112ea: 96 3f        	<unknown>
100112ec: fd be        	<unknown>
100112ee: 61 3f        	<unknown>
100112f0: 2c bf        	<unknown>
100112f2: 86 3f        	<unknown>
100112f4: 36 bf        	<unknown>
100112f6: 22 bf        	<unknown>
100112f8: 2d 3f        	<unknown>
100112fa: 14 40        	<unknown>
100112fc: 46 3f        	<unknown>
100112fe: 00 40        	<unknown>
10011300: 72 3e        	<unknown>
10011302: 76 3e        	<unknown>
10011304: 97 bf d7 bf 00 bf c4 3f      	<unknown>
1001130c: 84 3e        	<unknown>
1001130e: f9 bf        	<unknown>
10011310: f0 3f        	<unknown>
10011312: 0c 3f        	<unknown>
10011314: 1a 3f        	<unknown>
10011316: b0 bf        	<unknown>
10011318: 02 be        	<unknown>
1001131a: 5d 3f        	<unknown>
1001131c: 7c bf        	<unknown>
1001131e: ae 3e        	<unknown>
10011320: 9d 3f        	<unknown>
10011322: 2a bf        	<unknown>
10011324: 64 3f        	<unknown>
10011326: 93 3d 04 bf 00 3f 9a 3f      	<unknown>
1001132e: 91 bf        	<unknown>
10011330: e2 3e        	<unknown>
10011332: 0c 3f        	<unknown>
10011334: 5a 3f        	<unknown>
10011336: e0 be        	<unknown>
10011338: cc 3e        	<unknown>
1001133a: dc 3e        	<unknown>
1001133c: 7d bf        	<unknown>
1001133e: be bf        	<unknown>
10011340: ed 3e        	<unknown>
10011342: 84 bf        	<unknown>
10011344: 95 3f        	<unknown>
10011346: ef 3e 1f bf 8a 3d 5e 3f      	<unknown>
1001134e: b5 3f        	<unknown>
10011350: 88 bf        	<unknown>
10011352: 8c bf        	<unknown>
10011354: cd bf        	<unknown>
10011356: 3b bf bb 3e 40 3e 0e be      	<unknown>
1001135e: 16 3f        	<unknown>
10011360: 49 3f        	<unknown>
10011362: bc 3e        	<unknown>
10011364: be 3f        	<unknown>
10011366: 49 3f        	<unknown>
10011368: f4 be        	<unknown>
1001136a: ce bd        	<unknown>
1001136c: be bd        	<unknown>
1001136e: 35 3f        	<unknown>
10011370: dd be        	<unknown>
10011372: 01 bf        	<unknown>
10011374: 16 3e        	<unknown>
10011376: 88 3f        	<unknown>
10011378: b8 3f        	<unknown>
1001137a: e7 3e 1f 3f 53 3f 4c 3e      	<unknown>
10011382: 68 3f        	<unknown>
10011384: e4 bf        	<unknown>
10011386: 28 3f        	<unknown>
10011388: a9 be        	<unknown>
1001138a: 46 bf        	<unknown>
1001138c: 8a 3f        	<unknown>
1001138e: f6 3f        	<unknown>
10011390: 75 be        	<unknown>
10011392: 4d bf        	<unknown>
10011394: 71 3f        	<unknown>
10011396: 81 3e        	<unknown>
10011398: b3 3e d8 bf a0 3f 7c be      	<unknown>
100113a0: 15 40        	<unknown>
100113a2: 95 bf        	<unknown>
100113a4: 9b 3e 9e bf 66 3f 1e bd      	<unknown>
100113ac: f8 be        	<unknown>
100113ae: 30 3f        	<unknown>
100113b0: 03 c0 cd 3f 6a 3f 35 3e      	<unknown>
100113b8: 82 bf        	<unknown>
100113ba: c2 3e        	<unknown>
100113bc: 57 bf 7d 3e c6 3d 30 3f      	<unknown>
100113c4: 97 bf b0 bf 15 be 32 3f      	<unknown>
100113cc: b3 bd bc 3e 32 be f5 3f      	<unknown>
100113d4: 1c 3d        	<unknown>
100113d6: 1e 3f        	<unknown>
100113d8: d1 3d        	<unknown>
100113da: 7f 3e cf be 33 c0 43 bf      	<unknown>
100113e2: 77 3f b7 3e c5 bd e8 be      	<unknown>
100113ea: 16 bd        	<unknown>
100113ec: 17 3f 90 bf 80 bf ea 3e      	<unknown>
100113f4: c8 bf        	<unknown>
100113f6: f4 bd        	<unknown>
100113f8: 3f 3e 05 3f 83 be 0f be      	<unknown>
10011400: 61 3f        	<unknown>
10011402: 2a bf        	<unknown>
10011404: d6 3f        	<unknown>
10011406: f8 3d        	<unknown>
10011408: 88 bf        	<unknown>
1001140a: 83 3f 62 3f 08 be b0 bf      	<unknown>
10011412: b4 3e        	<unknown>
10011414: f9 be        	<unknown>
10011416: e0 bf        	<unknown>
10011418: 3f 3f 9c 3d f8 be 88 3f      	<unknown>
10011420: 09 bf        	<unknown>
10011422: ed bf        	<unknown>
10011424: e3 bf 0c bf cc 3f d5 be      	<unknown>
1001142c: 03 bf 85 3f b2 3f 01 40      	<unknown>
10011434: e1 3a        	<unknown>
10011436: 65 be        	<unknown>
10011438: d2 be        	<unknown>
1001143a: e1 be        	<unknown>
1001143c: 83 bf eb 3f 40 3f 56 3e      	<unknown>
10011444: 3e 3f        	<unknown>
10011446: 59 bf        	<unknown>
10011448: e0 bd        	<unknown>
1001144a: 78 be        	<unknown>
1001144c: 95 be        	<unknown>
1001144e: db bf 94 3e 58 3f 9e 3f      	<unknown>
10011456: 99 3f        	<unknown>
10011458: 0e 3f        	<unknown>
1001145a: f9 be        	<unknown>
1001145c: 15 bf        	<unknown>
1001145e: 2c bf        	<unknown>
10011460: ba bf        	<unknown>
10011462: e8 3e        	<unknown>
10011464: 92 bf        	<unknown>
10011466: 28 3f        	<unknown>
10011468: 48 3f        	<unknown>
1001146a: e4 be        	<unknown>
1001146c: b2 be        	<unknown>
1001146e: 46 3f        	<unknown>
10011470: 45 3f        	<unknown>
10011472: 12 40        	<unknown>
10011474: 0d bd        	<unknown>
10011476: 2c be        	<unknown>
10011478: 30 bf        	<unknown>
1001147a: 04 c0        	<unknown>
1001147c: d6 3e        	<unknown>
1001147e: 1b 3f 24 40 96 3f a8 3f      	<unknown>
10011486: 19 c0        	<unknown>
10011488: c3 bd a2 bf 94 3e aa bf      	<unknown>
10011490: c2 bf        	<unknown>
10011492: 1f bd 29 3f 98 be a6 3d      	<unknown>
1001149a: 24 3e        	<unknown>
1001149c: ac 3e        	<unknown>
1001149e: b3 bf a3 bf 65 bf 83 bf      	<unknown>
100114a6: 69 bf        	<unknown>
100114a8: 55 bd        	<unknown>
100114aa: ba bf        	<unknown>
100114ac: e4 be        	<unknown>
100114ae: 90 3e        	<unknown>
100114b0: bd bf        	<unknown>
100114b2: c7 3f 64 bf 0d bf b0 be      	<unknown>
100114ba: 3c 3e        	<unknown>
100114bc: 65 bf        	<unknown>
100114be: 51 be        	<unknown>
100114c0: e2 bc        	<unknown>
100114c2: a6 bd        	<unknown>
100114c4: 40 3f        	<unknown>
100114c6: d1 3f        	<unknown>
100114c8: d8 bf        	<unknown>
100114ca: c6 be        	<unknown>
100114cc: d2 bf        	<unknown>
100114ce: b9 3d        	<unknown>
100114d0: 1b be 6c bf d3 be 85 3f      	<unknown>
100114d8: 06 be        	<unknown>
100114da: 1b 3f cb 3f a7 bf 33 3f      	<unknown>
100114e2: 14 bf        	<unknown>
100114e4: ba 3d        	<unknown>
100114e6: 32 bf        	<unknown>
100114e8: db bf ba 3f d4 3d 3a bf      	<unknown>
100114f0: 82 bf        	<unknown>
100114f2: a1 bf        	<unknown>
100114f4: a3 3f 74 3f 1d 3f 92 3d      	<unknown>
100114fc: e7 be 02 3e 2b bf 02 3f      	<unknown>
10011504: a2 3f        	<unknown>
10011506: 1e 3e        	<unknown>
10011508: 19 bf        	<unknown>
1001150a: 88 bf        	<unknown>
1001150c: fb 3e 8c bd a0 3f a6 bd      	<unknown>
10011514: a2 bf        	<unknown>
10011516: 62 3f        	<unknown>
10011518: fb be 9e bf 00 00 78 be      	<unknown>
10011520: 72 3e        	<unknown>
10011522: 15 bf        	<unknown>
10011524: a2 be        	<unknown>
10011526: 8c 3f        	<unknown>
10011528: 69 bf        	<unknown>
1001152a: 2f bf 66 3f 9a be 13 40      	<unknown>
10011532: 18 40        	<unknown>
10011534: de bf        	<unknown>
10011536: f3 be 0d bf b2 3e 82 bf      	<unknown>
1001153e: 9d 3f        	<unknown>
10011540: 25 3e        	<unknown>
10011542: 2c bf        	<unknown>
10011544: f7 3e 33 3f 28 3f 25 40      	<unknown>
1001154c: af 3e 8d be 35 bf 5e 3e      	<unknown>
10011554: e7 be 50 3f d5 be a2 3e      	<unknown>
1001155c: c6 be        	<unknown>
1001155e: f5 be        	<unknown>
10011560: 5f bf 94 bf a9 3e 59 3e      	<unknown>
10011568: 1a 3d        	<unknown>
1001156a: 34 c0        	<unknown>
1001156c: 84 3f        	<unknown>
1001156e: 1f be e3 3e a2 3f b3 be      	<unknown>
10011576: 9c 3f        	<unknown>
10011578: 80 bf        	<unknown>
1001157a: a8 bf        	<unknown>
1001157c: 89 bd        	<unknown>
1001157e: 39 bf        	<unknown>
10011580: be 3f        	<unknown>
10011582: 88 3f        	<unknown>
10011584: e5 bf        	<unknown>
10011586: 2f be 91 bf c3 3f 6e 3e      	<unknown>
1001158e: 21 40        	<unknown>
10011590: 51 bf        	<unknown>
10011592: 15 bf        	<unknown>
10011594: ea 3e        	<unknown>
10011596: b8 bf        	<unknown>
10011598: 44 3f        	<unknown>
1001159a: ce bf        	<unknown>
1001159c: 18 bd        	<unknown>
1001159e: 25 bf        	<unknown>
100115a0: 76 3f        	<unknown>
100115a2: 15 be        	<unknown>
100115a4: 18 bf        	<unknown>
100115a6: 49 bf        	<unknown>
100115a8: 1c 3f        	<unknown>
100115aa: 27 3f 22 bf 4a 3e e6 3f      	<unknown>
100115b2: 77 bf 07 c0 e5 3f b3 bf      	<unknown>
100115ba: 9c 3f        	<unknown>
100115bc: 2b bf 7f 3f 54 be 76 3f      	<unknown>
100115c4: 42 be        	<unknown>
100115c6: e5 bf        	<unknown>
100115c8: 87 3f 31 bf 86 bf b3 3d      	<unknown>
100115d0: 99 3f        	<unknown>
100115d2: 95 3f        	<unknown>
100115d4: dc bd        	<unknown>
100115d6: 9a 3f        	<unknown>
100115d8: d5 3f        	<unknown>
100115da: 8e bf        	<unknown>
100115dc: 0c bf        	<unknown>
100115de: ec 3f        	<unknown>
100115e0: bf be 4e be be 3f d6 3e      	<unknown>
100115e8: d0 be        	<unknown>
100115ea: 3f 3f b6 3f 75 bf dd bf      	<unknown>
100115f2: fa bd        	<unknown>
100115f4: 12 3f        	<unknown>
100115f6: 1c bf        	<unknown>
100115f8: 34 bf        	<unknown>
100115fa: 47 3f a0 bf a1 bf 79 bf      	<unknown>
10011602: 9c 3e        	<unknown>
10011604: 85 3f        	<unknown>
10011606: e0 be        	<unknown>
10011608: 4f 3f b8 3d ab bf 19 3f      	<unknown>
10011610: 04 3f        	<unknown>
10011612: c9 be        	<unknown>
10011614: 08 be        	<unknown>
10011616: ca be        	<unknown>
10011618: 7b 3e f3 3f f5 be 10 bf      	<unknown>
10011620: c9 be        	<unknown>
10011622: a2 3f        	<unknown>
10011624: dc 3e        	<unknown>
10011626: 06 3f        	<unknown>
10011628: 54 bf        	<unknown>
1001162a: 88 be        	<unknown>
1001162c: 37 3f 13 3f 53 c0 d0 bf      	<unknown>
10011634: de 3f        	<unknown>
10011636: 61 bf        	<unknown>
10011638: 2e 3f        	<unknown>
1001163a: 70 bf        	<unknown>
1001163c: d8 be        	<unknown>
1001163e: 25 40        	<unknown>
10011640: 55 3f        	<unknown>
10011642: 8e 3f        	<unknown>
10011644: 38 bf        	<unknown>
10011646: 21 bf        	<unknown>
10011648: 9a bd        	<unknown>
1001164a: 37 3f a5 bf 08 c0 bc 3f      	<unknown>
10011652: ce bf        	<unknown>
10011654: 91 be        	<unknown>
10011656: d9 be        	<unknown>
10011658: 5b bf 59 3d 87 be 8b 3f      	<unknown>
10011660: c0 be        	<unknown>
10011662: b1 be        	<unknown>
10011664: 9a bd        	<unknown>
10011666: 61 bd        	<unknown>
10011668: 27 c0 e4 bd a5 3f 46 bf      	<unknown>
10011670: 1e 3e        	<unknown>
10011672: 32 bf        	<unknown>
10011674: 22 bf        	<unknown>
10011676: 20 bf        	<unknown>
10011678: 4d 3f        	<unknown>
1001167a: 3d bf        	<unknown>
1001167c: 44 3e        	<unknown>
1001167e: f1 3f        	<unknown>
10011680: 3f 3e 05 bf 60 3f 3a bf      	<unknown>
10011688: 18 3e        	<unknown>
1001168a: 90 3f        	<unknown>
1001168c: ba 3e        	<unknown>
1001168e: 25 3f        	<unknown>
10011690: 89 3f        	<unknown>
10011692: 0c 3f        	<unknown>
10011694: 25 3f        	<unknown>
10011696: ca bf        	<unknown>
10011698: 67 bf 2b bf 8c bf c8 3f      	<unknown>
100116a0: a4 bf        	<unknown>
100116a2: 3b 3f 81 3e 74 bf 3c 3f      	<unknown>
100116aa: f2 bf        	<unknown>
100116ac: 92 bd        	<unknown>
100116ae: 14 bf        	<unknown>
100116b0: 7c 3f        	<unknown>
100116b2: b7 3f 1c 3f 9b 3d 30 bf      	<unknown>
100116ba: 98 bf        	<unknown>
100116bc: 33 3f 3b 40 b6 3e 8d 3f      	<unknown>
100116c4: ad bd        	<unknown>
100116c6: a0 3f        	<unknown>
100116c8: a8 3f        	<unknown>
100116ca: 6f be 10 3f 11 c0 67 bd      	<unknown>
100116d2: df 3d df 3c 6c 3f 38 bf      	<unknown>
100116da: 56 3f        	<unknown>
100116dc: 8e 3d        	<unknown>
100116de: 31 3f        	<unknown>
100116e0: 42 3e        	<unknown>
100116e2: f1 be        	<unknown>
100116e4: 86 3d        	<unknown>
100116e6: 86 be        	<unknown>
100116e8: ba bf        	<unknown>
100116ea: 17 3f 93 3f 07 c0 b8 bf      	<unknown>
100116f2: 0c c0        	<unknown>
100116f4: b1 3f        	<unknown>
100116f6: b8 3e        	<unknown>
100116f8: 81 bf        	<unknown>
100116fa: 47 3e 1c 3f 2c 3e ec 3c      	<unknown>
10011702: df be d4 bf ad bf 30 bf      	<unknown>
1001170a: a0 bf        	<unknown>
1001170c: 21 be        	<unknown>
1001170e: f7 3b 34 be e3 3f 08 40      	<unknown>
10011716: df be 56 be 88 3f 10 3f      	<unknown>
1001171e: 98 bf        	<unknown>
10011720: b7 bf ab 3f 96 3f 1a 40      	<unknown>
10011728: 01 c0        	<unknown>
1001172a: 87 bf 13 3f d3 bf 3d 3d      	<unknown>
10011732: b0 be        	<unknown>
10011734: ae be        	<unknown>
10011736: e0 bf        	<unknown>
10011738: 7a bd        	<unknown>
1001173a: f2 be        	<unknown>
1001173c: 67 3f bf 3f e1 3e 92 3f      	<unknown>
10011744: 56 bf        	<unknown>
10011746: 5a bf        	<unknown>
10011748: 21 bf        	<unknown>
1001174a: 91 3f        	<unknown>
1001174c: f3 bf 85 3f 8c bf 64 3f      	<unknown>
10011754: 6a 3e        	<unknown>
10011756: 6c bf        	<unknown>
10011758: d9 be        	<unknown>
1001175a: 88 bf        	<unknown>
1001175c: b2 bd        	<unknown>
1001175e: 71 3f        	<unknown>
10011760: 86 3f        	<unknown>
10011762: e9 be        	<unknown>
10011764: fb 3e a6 3e 21 40 4b bd      	<unknown>
1001176c: b2 be        	<unknown>
1001176e: 84 bf        	<unknown>
10011770: 4a c0        	<unknown>
10011772: 50 be        	<unknown>
10011774: 20 3f        	<unknown>
10011776: 2e bf        	<unknown>
10011778: a2 3f        	<unknown>
1001177a: 89 3f        	<unknown>
1001177c: f3 bf 26 bf 89 be 3f 3e      	<unknown>
10011784: c8 3e        	<unknown>
10011786: 18 3e        	<unknown>
10011788: ff 3f c7 bf 81 3e 88 be      	<unknown>
10011790: 84 3e        	<unknown>
10011792: 73 bf 1e 3f 00 bf 82 bf      	<unknown>
1001179a: 41 bd        	<unknown>
1001179c: 92 be        	<unknown>
1001179e: ba bf        	<unknown>
100117a0: 1d bf        	<unknown>
100117a2: 14 3f        	<unknown>
100117a4: 0f 3f 24 bf 1b bf 9b 3f      	<unknown>
100117ac: 87 3e e6 bc 5e bf 3b 40      	<unknown>
100117b4: 21 bf        	<unknown>
100117b6: ce be        	<unknown>
100117b8: d1 3e        	<unknown>
100117ba: 38 3f        	<unknown>
100117bc: 64 bf        	<unknown>
100117be: 1b 3f ec bf 0a bf 93 bf      	<unknown>
100117c6: 63 3f c9 3e de bf c7 bf      	<unknown>
100117ce: 27 3f 19 3f c2 3f 12 be      	<unknown>
100117d6: 70 bf        	<unknown>
100117d8: 65 3f        	<unknown>
100117da: 36 bf        	<unknown>
100117dc: c5 3a        	<unknown>
100117de: bd 3f        	<unknown>
100117e0: 18 bf        	<unknown>
100117e2: 88 bf        	<unknown>
100117e4: ca be        	<unknown>
100117e6: b5 bf        	<unknown>
100117e8: eb 3f 91 be 53 bf 30 bf      	<unknown>
100117f0: 2b 40 04 bd 1f be 9a 3f      	<unknown>
100117f8: 7a 3f        	<unknown>
100117fa: c7 3e d7 3d a3 bf 1c 3f      	<unknown>
10011802: e6 3f        	<unknown>
10011804: 1c 3f        	<unknown>
10011806: ba bf        	<unknown>
10011808: 45 3f        	<unknown>
1001180a: 2c bf        	<unknown>
1001180c: 53 bf d6 bf 8d bf bd 3f      	<unknown>
10011814: 53 3f 80 be c6 3e c1 bd      	<unknown>
1001181c: 2c 40        	<unknown>
1001181e: bd be        	<unknown>
10011820: db be 6f bf 1e 3f 20 3e      	<unknown>
10011828: 4d bf        	<unknown>
1001182a: 0f 3f 0f 3f c0 bf 34 be      	<unknown>
10011832: 6c bf        	<unknown>
10011834: 4c bf        	<unknown>
10011836: 07 bf 44 bf a3 3f 3a be      	<unknown>
1001183e: 8f 3f 31 be 14 c0 7e bf      	<unknown>
10011846: a2 bf        	<unknown>
10011848: e3 be 74 be c7 3c 66 bf      	<unknown>
10011850: 06 3f        	<unknown>
10011852: 21 3f        	<unknown>
10011854: 64 bf        	<unknown>
10011856: 91 3e        	<unknown>
10011858: 0b 3e 1f 3f 25 bf 4e 40      	<unknown>
10011860: 7d bf        	<unknown>
10011862: a8 3d        	<unknown>
10011864: d6 3f        	<unknown>
10011866: 8f be 91 3e 81 3f 9f be      	<unknown>
1001186e: 38 3f        	<unknown>
10011870: 31 3f        	<unknown>
10011872: de 3f        	<unknown>
10011874: 49 bf        	<unknown>
10011876: ec bf        	<unknown>
10011878: 34 bf        	<unknown>
1001187a: 71 bf        	<unknown>
1001187c: 05 40        	<unknown>
1001187e: b5 3f        	<unknown>
10011880: b5 3f        	<unknown>
10011882: d7 3e 8d bf 3b 3c 9d be      	<unknown>
1001188a: e2 3f        	<unknown>
1001188c: 27 bf 02 40 bc bd 0a bf      	<unknown>
10011894: 0f bf e6 bf a0 3f e2 3e      	<unknown>
1001189c: 14 c0        	<unknown>
1001189e: 75 bf        	<unknown>
100118a0: c9 bf        	<unknown>
100118a2: 50 bf        	<unknown>
100118a4: 9c be        	<unknown>
100118a6: 16 bf        	<unknown>
100118a8: 1d be        	<unknown>
100118aa: 02 3f        	<unknown>
100118ac: 92 bf        	<unknown>
100118ae: f3 3e a5 bf 63 3f d6 bf      	<unknown>
100118b6: ab 3f 9d 3f f3 be 96 3e      	<unknown>
100118be: 86 be        	<unknown>
100118c0: d7 be 05 be e7 3d 17 3f      	<unknown>
100118c8: 6a 3f        	<unknown>
100118ca: 4a 3e        	<unknown>
100118cc: ff be aa 3f ea be 1b 3e      	<unknown>
100118d4: dc be        	<unknown>
100118d6: 10 c0        	<unknown>
100118d8: d4 bf        	<unknown>
100118da: 82 be        	<unknown>
100118dc: 53 c0 b0 bd 20 bf 0e c0      	<unknown>
100118e4: 5f 3f 98 3f 60 3e c0 be      	<unknown>
100118ec: e1 3e        	<unknown>
100118ee: c1 bf        	<unknown>
100118f0: af bf 90 3e ba 3f 5c bf      	<unknown>
100118f8: b1 bd        	<unknown>
100118fa: 9d 3f        	<unknown>
100118fc: 8c bf        	<unknown>
100118fe: a8 bf        	<unknown>
10011900: 5c bf        	<unknown>
10011902: 19 bd        	<unknown>
10011904: 7c 3f        	<unknown>
10011906: 11 bf        	<unknown>
10011908: 02 bf        	<unknown>
1001190a: ab bf 81 3f 11 3f 9d be      	<unknown>
10011912: 4e 3f        	<unknown>
10011914: d0 3e        	<unknown>
10011916: 0b bf c7 3c dd 3e 24 3f      	<unknown>
1001191e: 53 bf e8 3e af 3e 91 be      	<unknown>
10011926: af 3b b8 bf 08 3f 02 40      	<unknown>
1001192e: ac 3e        	<unknown>
10011930: 0d 3e        	<unknown>
10011932: fb 3f a8 be 57 bf c9 3f      	<unknown>
1001193a: 72 3e        	<unknown>
1001193c: 3b bf c0 3f f6 be 97 be      	<unknown>
10011944: 39 bf        	<unknown>
10011946: e3 3e e0 3e f8 3d 88 3f      	<unknown>
1001194e: 06 bf        	<unknown>
10011950: b5 bc        	<unknown>
10011952: bf 3f c4 3e 8d bf a5 3e      	<unknown>
1001195a: 82 be        	<unknown>
1001195c: 60 bf        	<unknown>
1001195e: 8c be        	<unknown>
10011960: c8 bf        	<unknown>
10011962: 01 c0        	<unknown>
10011964: 2f 3f 45 bd a9 3e 23 40      	<unknown>
1001196c: e4 3f        	<unknown>
1001196e: 5e 3f        	<unknown>
10011970: d9 be        	<unknown>
10011972: 69 3f        	<unknown>
10011974: d5 3f        	<unknown>
10011976: a3 be 86 3d 81 bf 7a bf      	<unknown>
1001197e: a6 3f        	<unknown>
10011980: 85 3e        	<unknown>
10011982: b4 bf        	<unknown>
10011984: 9b 3f 45 3e 23 bf 14 bf      	<unknown>
1001198c: ae be        	<unknown>
1001198e: 5a 3c        	<unknown>
10011990: 17 3f 36 3e 45 3f 78 3f      	<unknown>
10011998: 57 bf 5d bd 8a bf 90 3e      	<unknown>
100119a0: 17 40 b2 3f ab 3f ec 3e      	<unknown>
100119a8: a0 bf        	<unknown>
100119aa: 0f c0 18 40 66 be d4 3f      	<unknown>
100119b2: 0c 40        	<unknown>
100119b4: 37 3f f4 bc 99 bf 86 3f      	<unknown>
100119bc: 08 bf        	<unknown>
100119be: 67 bf 46 bf c4 bf 99 be      	<unknown>
100119c6: 84 3f        	<unknown>
100119c8: ff bf 22 be a1 be e6 be      	<unknown>
100119d0: 66 3f        	<unknown>
100119d2: 1b 3f 21 3f 1e 3f 3e be      	<unknown>
100119da: e9 be        	<unknown>
100119dc: 90 3d        	<unknown>
100119de: 6a 3d        	<unknown>
100119e0: f7 bf b5 be ea be d1 be      	<unknown>
100119e8: a2 bf        	<unknown>
100119ea: 24 bf        	<unknown>
100119ec: 08 bf        	<unknown>
100119ee: 72 be        	<unknown>
100119f0: be bf        	<unknown>
100119f2: 7e 3f        	<unknown>
100119f4: 5b 3f cf be 91 3e dd be      	<unknown>
100119fc: f4 3f        	<unknown>
100119fe: 29 3f        	<unknown>
10011a00: a0 be        	<unknown>
10011a02: 52 bf        	<unknown>
10011a04: 9b bf 4b bf 9a 3f 48 3e      	<unknown>
10011a0c: 04 c0        	<unknown>
10011a0e: 5d bf        	<unknown>
10011a10: fd 3d        	<unknown>
10011a12: 08 c0        	<unknown>
10011a14: f3 3f 98 bf 8a 3e 17 3f      	<unknown>
10011a1c: b3 3f de bf f7 bf 3e 3f      	<unknown>
10011a24: 90 3e        	<unknown>
10011a26: d9 bf        	<unknown>
10011a28: 5f 3e 09 c0 c4 3e 7a bf      	<unknown>
10011a30: 3c 3e        	<unknown>
10011a32: 96 3d        	<unknown>
10011a34: 19 bc        	<unknown>
10011a36: e6 bf        	<unknown>
10011a38: 55 bf        	<unknown>
10011a3a: bf 3e b3 3f 88 bf 33 3f      	<unknown>
10011a42: ab bf 3c 3f d1 3f d5 3f      	<unknown>
10011a4a: a1 bf        	<unknown>
10011a4c: 1a c0        	<unknown>
10011a4e: 51 be        	<unknown>
10011a50: a9 3e        	<unknown>
10011a52: 35 3f        	<unknown>
10011a54: b9 3d        	<unknown>
10011a56: f4 be        	<unknown>
10011a58: a7 3f 23 bf 29 3f fe 3e      	<unknown>
10011a60: 2e 3e        	<unknown>
10011a62: 75 3b        	<unknown>
10011a64: a8 bf        	<unknown>
10011a66: 9c 3f        	<unknown>
10011a68: 3e 3f        	<unknown>
10011a6a: 89 3f        	<unknown>
10011a6c: 17 3f d4 bf 79 3f 17 bf      	<unknown>
10011a74: 1c bf        	<unknown>
10011a76: c8 3f        	<unknown>
10011a78: 81 3f        	<unknown>
10011a7a: c5 3e        	<unknown>
10011a7c: 10 c0        	<unknown>
10011a7e: 0b c0 5f 3e e7 bf 84 be      	<unknown>
10011a86: d5 3f        	<unknown>
10011a88: ca 3e        	<unknown>
10011a8a: a0 3f        	<unknown>
10011a8c: 50 3e        	<unknown>
10011a8e: 26 bf        	<unknown>
10011a90: 36 3e        	<unknown>
10011a92: 26 3f        	<unknown>
10011a94: 99 bf        	<unknown>
10011a96: 71 3f        	<unknown>
10011a98: 54 bf        	<unknown>
10011a9a: b0 3e        	<unknown>
10011a9c: 98 be        	<unknown>
10011a9e: 6b 3f 4f 3f 2c bf c8 bf      	<unknown>
10011aa6: 28 be        	<unknown>
10011aa8: 42 3f        	<unknown>
10011aaa: 04 c0        	<unknown>
10011aac: d1 3e        	<unknown>
10011aae: 23 bf ea 3e 02 40 db 3f      	<unknown>
10011ab6: 9d 3e        	<unknown>
10011ab8: 5b bf ca bf c4 be 3d 3f      	<unknown>
10011ac0: f3 3d 8b be 81 bf e8 be      	<unknown>
10011ac8: 1c bf        	<unknown>
10011aca: a4 bd        	<unknown>
10011acc: 7c be        	<unknown>
10011ace: 0d bf        	<unknown>
10011ad0: 1e bd        	<unknown>
10011ad2: 9c 3f        	<unknown>
10011ad4: d9 3f        	<unknown>
10011ad6: 92 be        	<unknown>
10011ad8: 6c 3f        	<unknown>
10011ada: 92 3f        	<unknown>
10011adc: 33 c0 08 3f 3a bf 90 bf      	<unknown>
10011ae4: 7d bf        	<unknown>
10011ae6: 26 3f        	<unknown>
10011ae8: 65 3e        	<unknown>
10011aea: 1a c0        	<unknown>
10011aec: 24 bf        	<unknown>
10011aee: da 3e        	<unknown>
10011af0: 0f 3f b0 3e 72 bf 61 3f      	<unknown>
10011af8: e3 3f fc bf 4a bf 54 bf      	<unknown>
10011b00: d6 3f        	<unknown>
10011b02: b1 bf        	<unknown>
10011b04: 1d bf        	<unknown>
10011b06: 23 3e bc 3d fc be 63 bf      	<unknown>
10011b0e: 92 3f        	<unknown>
10011b10: c0 be        	<unknown>
10011b12: 1f 3f 88 bf 9f be 07 3f      	<unknown>
10011b1a: 95 bf        	<unknown>
10011b1c: 76 be        	<unknown>
10011b1e: 89 bf        	<unknown>
10011b20: eb be 70 bf 7a bf f2 bf      	<unknown>
10011b28: bd bf        	<unknown>
10011b2a: 02 40        	<unknown>
10011b2c: e1 bf        	<unknown>
10011b2e: 02 3f        	<unknown>
10011b30: 4c bf        	<unknown>
10011b32: 6e 3f        	<unknown>
10011b34: e9 be        	<unknown>
10011b36: 38 3e        	<unknown>
10011b38: 1b bf 80 3e d8 bf 8a 3e      	<unknown>
10011b40: af 3e 26 3f f1 bf d9 bf      	<unknown>
10011b48: ad 3d        	<unknown>
10011b4a: 97 bf 05 40 cb 3f a7 3e      	<unknown>
10011b52: 08 40        	<unknown>
10011b54: 19 3e        	<unknown>
10011b56: b2 be        	<unknown>
10011b58: da 3e        	<unknown>
10011b5a: 03 c0 1a bf 58 bd ce 3f      	<unknown>
10011b62: d8 bf        	<unknown>
10011b64: 02 c0        	<unknown>
10011b66: 83 bd 83 bf 0f bf 99 bf      	<unknown>
10011b6e: fd 3f        	<unknown>
10011b70: a9 bf        	<unknown>
10011b72: 83 bf e6 be 7a bd f6 3e      	<unknown>
10011b7a: c7 3d d8 3f c7 3d 13 bf      	<unknown>
10011b82: 22 3f        	<unknown>
10011b84: 7d be        	<unknown>
10011b86: 3e 3f        	<unknown>
10011b88: cb bf 97 3f c1 bf b5 3f      	<unknown>
10011b90: 89 3f        	<unknown>
10011b92: f5 bf        	<unknown>
10011b94: ad bf        	<unknown>
10011b96: 32 bf        	<unknown>
10011b98: 8d bf        	<unknown>
10011b9a: 0d 40        	<unknown>
10011b9c: 41 be        	<unknown>
10011b9e: b5 bf        	<unknown>
10011ba0: 7e 3f        	<unknown>
10011ba2: ef be 54 3e 39 3f dc 3f      	<unknown>
10011baa: 8f bf 83 3d 54 3f 7e 3e      	<unknown>
10011bb2: 8e bf        	<unknown>
10011bb4: 01 3f        	<unknown>
10011bb6: 10 3f        	<unknown>
10011bb8: b4 3f        	<unknown>
10011bba: 6d 3e        	<unknown>
10011bbc: dc bd        	<unknown>
10011bbe: 98 be        	<unknown>
10011bc0: 6b 3f c4 3f 8e 3f 42 3f      	<unknown>
10011bc8: 83 be d2 3d e3 3f 54 bf      	<unknown>
10011bd0: cb be ad bf 0c 3e 79 bf      	<unknown>
10011bd8: 84 bf        	<unknown>
10011bda: c9 be        	<unknown>
10011bdc: af bf 8b bf 8b 3e 12 c0      	<unknown>
10011be4: d6 3e        	<unknown>
10011be6: 19 40        	<unknown>
10011be8: 75 3f        	<unknown>
10011bea: 52 be        	<unknown>
10011bec: 79 3f        	<unknown>
10011bee: 35 3f        	<unknown>
10011bf0: b0 bf        	<unknown>
10011bf2: 1f 3f ec 3d eb be 7c be      	<unknown>
10011bfa: 1f 3f 5f be 6f 3e a3 bf      	<unknown>
10011c02: 94 3f        	<unknown>
10011c04: 9f 3f a0 bf ad be 10 3f      	<unknown>
10011c0c: 40 3f        	<unknown>
10011c0e: a4 3e        	<unknown>
10011c10: f6 3f        	<unknown>
10011c12: 22 bf        	<unknown>
10011c14: cc 3f        	<unknown>
10011c16: a4 3e        	<unknown>
10011c18: 16 3f        	<unknown>
10011c1a: 82 bf        	<unknown>
10011c1c: 53 3e 09 3f 19 c0 c4 3c      	<unknown>
10011c24: 23 bf 9e bd 01 bf 6f bf      	<unknown>
10011c2c: 9c bf        	<unknown>
10011c2e: a4 3f        	<unknown>
10011c30: cf 3f 23 bf b1 bf a0 3e      	<unknown>
10011c38: a7 bf bb 3f a5 3f de 3f      	<unknown>
10011c40: ad bf        	<unknown>
10011c42: fc 3e        	<unknown>
10011c44: 6a be        	<unknown>
10011c46: b4 3f        	<unknown>
10011c48: 87 3f 2f 3f d9 3f 9c bf      	<unknown>
10011c50: bb be ce 3e 6e 3f 64 3f      	<unknown>
10011c58: b2 3e        	<unknown>
10011c5a: 00 00        	<unknown>
10011c5c: 0f 3f 00 bf 81 3d b8 bd      	<unknown>
10011c64: e8 be        	<unknown>
10011c66: 32 3f        	<unknown>
10011c68: 0a bf        	<unknown>
10011c6a: b1 bf        	<unknown>
10011c6c: 90 be        	<unknown>
10011c6e: f9 be        	<unknown>
10011c70: f4 be        	<unknown>
10011c72: cf 3e 35 3f a1 bf 30 3f      	<unknown>
10011c7a: ce 3f        	<unknown>
10011c7c: e2 3e        	<unknown>
10011c7e: cc be        	<unknown>
10011c80: aa bf        	<unknown>
10011c82: 3c 3e        	<unknown>
10011c84: 00 00        	<unknown>
10011c86: bd be        	<unknown>
10011c88: 0a bf        	<unknown>
10011c8a: 8d 3f        	<unknown>
10011c8c: 1a bf        	<unknown>
10011c8e: 31 3f        	<unknown>
10011c90: 2b c0 00 bf 00 00 08 3e      	<unknown>
10011c98: 62 be        	<unknown>
10011c9a: 50 3f        	<unknown>
10011c9c: 3f bd 31 3f a9 bf 19 3d      	<unknown>
10011ca4: 76 bf        	<unknown>
10011ca6: 55 3c        	<unknown>
10011ca8: cb be 6e be c4 bf 58 3f      	<unknown>
10011cb0: 90 3f        	<unknown>
10011cb2: 0a bf        	<unknown>
10011cb4: a2 bf        	<unknown>
10011cb6: 03 c0 84 bf 8a bf 92 3f      	<unknown>
10011cbe: a2 3f        	<unknown>
10011cc0: 3a 3f        	<unknown>
10011cc2: 7b 3f ad 3f 4c 3f 86 3f      	<unknown>
10011cca: c0 bd        	<unknown>
10011ccc: b4 3e        	<unknown>
10011cce: 9d 3f        	<unknown>
10011cd0: 62 3f        	<unknown>
10011cd2: b7 bf 2a 3e 83 bf 33 3f      	<unknown>
10011cda: 49 3e        	<unknown>
10011cdc: 01 40        	<unknown>
10011cde: 20 be        	<unknown>
10011ce0: 02 bf        	<unknown>
10011ce2: 23 3f a6 3f cb be aa bf      	<unknown>
10011cea: 70 bf        	<unknown>
10011cec: cf bd 82 be c7 3c 3d 3f      	<unknown>
10011cf4: 5d 3f        	<unknown>
10011cf6: 00 40        	<unknown>
10011cf8: 98 3e        	<unknown>
10011cfa: 54 be        	<unknown>
10011cfc: a4 be        	<unknown>
10011cfe: 37 3e c3 3e 58 be 37 bf      	<unknown>
10011d06: 74 bf        	<unknown>
10011d08: 77 3f 90 bf be bf f5 bd      	<unknown>
10011d10: 3e bf        	<unknown>
10011d12: e3 bf 8a 3f 84 be 80 bd      	<unknown>
10011d1a: ba 3e        	<unknown>
10011d1c: e4 3f        	<unknown>
10011d1e: 8b 3e 97 bf ad 3f c6 be      	<unknown>
10011d26: b1 be        	<unknown>
10011d28: a2 bf        	<unknown>
10011d2a: 39 3d        	<unknown>
10011d2c: 14 3f        	<unknown>
10011d2e: f1 bc        	<unknown>
10011d30: 78 be        	<unknown>
10011d32: 5b 3f 32 3e 57 3f 71 3f      	<unknown>
10011d3a: 9c bd        	<unknown>
10011d3c: 0d c0        	<unknown>
10011d3e: 97 bf 10 40 69 3f 8c 3e      	<unknown>
10011d46: e4 bf        	<unknown>
10011d48: ef 3c fd bf b1 3f c3 bf      	<unknown>
10011d50: e2 3d        	<unknown>
10011d52: 81 3e        	<unknown>
10011d54: b2 bf        	<unknown>
10011d56: 2e 3e        	<unknown>
10011d58: 47 bf 80 bf 92 bf ef 3e      	<unknown>
10011d60: ae bf        	<unknown>
10011d62: 30 3f        	<unknown>
10011d64: 5a 3f        	<unknown>
10011d66: a7 be 80 bf 20 bf d2 be      	<unknown>
10011d6e: 11 c0        	<unknown>
10011d70: 73 3e 10 3f 7d 3f 6f bf      	<unknown>
10011d78: e7 3e cf bf 96 bf 34 be      	<unknown>
10011d80: 31 be        	<unknown>
10011d82: be be        	<unknown>
10011d84: 60 bf        	<unknown>
10011d86: 80 bf        	<unknown>
10011d88: c5 bf        	<unknown>
10011d8a: 41 3f        	<unknown>
10011d8c: ad 3f        	<unknown>
10011d8e: 28 3f        	<unknown>
10011d90: 4d bf        	<unknown>
10011d92: 76 3f        	<unknown>
10011d94: 8e 3d        	<unknown>
10011d96: 1c bf        	<unknown>
10011d98: b0 3e        	<unknown>
10011d9a: 7e 3e        	<unknown>
10011d9c: b3 bd c1 bf 64 bc 15 bf      	<unknown>
10011da4: ef be 96 3e 82 be 28 be      	<unknown>
10011dac: 4f 3f c3 be 1b 3f d1 3e      	<unknown>
10011db4: ab bf 25 be f3 bd 42 bf      	<unknown>
10011dbc: 56 bd        	<unknown>
10011dbe: f7 3f 00 00 07 c0 54 3f      	<unknown>
10011dc6: 17 3f 83 3f 74 3e d9 3f      	<unknown>
10011dce: 16 bf        	<unknown>
10011dd0: 00 00        	<unknown>
10011dd2: 9e 3f        	<unknown>
10011dd4: fc 3d        	<unknown>
10011dd6: 7e bf        	<unknown>
10011dd8: 10 bf        	<unknown>
10011dda: ba bf        	<unknown>
10011ddc: 04 3f        	<unknown>
10011dde: 8c 3f        	<unknown>
10011de0: d0 3d        	<unknown>
10011de2: 5c bf        	<unknown>
10011de4: b2 bd        	<unknown>
10011de6: 29 bf        	<unknown>
10011de8: 8e 3f        	<unknown>
10011dea: 44 3f        	<unknown>
10011dec: 33 be cb bf 15 3f cd be      	<unknown>
10011df4: 7e bf        	<unknown>
10011df6: 7f 3f 35 be 37 bf 22 3e      	<unknown>
10011dfe: 57 3f a4 bf aa 3e b2 bc      	<unknown>
10011e06: 16 40        	<unknown>
10011e08: 91 bf        	<unknown>
10011e0a: 15 bf        	<unknown>
10011e0c: da 3f        	<unknown>
10011e0e: e1 be        	<unknown>
10011e10: b3 3f db be 72 3f ef 3e      	<unknown>
10011e18: 9e 3e        	<unknown>
10011e1a: 53 3f bc 3f 31 be bd 3b      	<unknown>
10011e22: be bf        	<unknown>
10011e24: 6b 3f 3d 3e 15 3e c2 be      	<unknown>
10011e2c: 05 3e        	<unknown>
10011e2e: 5c 3f        	<unknown>
10011e30: 1d be        	<unknown>
10011e32: f6 3e        	<unknown>
10011e34: 78 bf        	<unknown>
10011e36: 71 bf        	<unknown>
10011e38: 8d bf        	<unknown>
10011e3a: 05 c0        	<unknown>
10011e3c: c9 3e        	<unknown>
10011e3e: 86 3e        	<unknown>
10011e40: 03 3f 9f 3f 9b bf 4d bf      	<unknown>
10011e48: da 3e        	<unknown>
10011e4a: bb be 84 bf c5 be 5b 3f      	<unknown>
10011e52: 29 bd        	<unknown>
10011e54: 87 bf 1d 3f c8 3f 0d bf      	<unknown>
10011e5c: f4 bf        	<unknown>
10011e5e: de 3f        	<unknown>
10011e60: 9f bf 02 3f 1a 3f af bf      	<unknown>
10011e68: 02 40        	<unknown>
10011e6a: 73 3f 4e be 02 bf 48 bf      	<unknown>
10011e72: 44 3f        	<unknown>
10011e74: 97 3d fa be 49 be be bf      	<unknown>
10011e7c: a9 bd        	<unknown>
10011e7e: 44 bf        	<unknown>
10011e80: d3 be aa be 43 bf 25 bd      	<unknown>
10011e88: 32 3d        	<unknown>
10011e8a: 0a c0        	<unknown>
10011e8c: 00 be        	<unknown>
10011e8e: cf bf 56 be 43 3d cd 3f      	<unknown>
10011e96: 38 bf        	<unknown>
10011e98: e9 3f        	<unknown>
10011e9a: 8c 3e        	<unknown>
10011e9c: a6 3e        	<unknown>
10011e9e: 4f be 33 bf 9a 3e 97 bf      	<unknown>
10011ea6: 20 bf        	<unknown>
10011ea8: e3 be 94 be 89 3d 77 3f      	<unknown>
10011eb0: cc 3e        	<unknown>
10011eb2: 40 bf        	<unknown>
10011eb4: 1e bf        	<unknown>
10011eb6: 22 be        	<unknown>
10011eb8: 45 3f        	<unknown>
10011eba: 2f 3e d8 3d 21 40 4b 3a      	<unknown>
10011ec2: b2 bf        	<unknown>
10011ec4: 8f 3f af bf cb 3e dd be      	<unknown>
10011ecc: 8e bf        	<unknown>
10011ece: 98 3f        	<unknown>
10011ed0: cd 3f        	<unknown>
10011ed2: 25 bf        	<unknown>
10011ed4: 05 40        	<unknown>
10011ed6: d9 bd        	<unknown>
10011ed8: 76 3f        	<unknown>
10011eda: 27 3f 68 bf a8 3f 07 c0      	<unknown>
10011ee2: 47 bf 10 3f d6 3e 5e be      	<unknown>
10011eea: a8 3f        	<unknown>
10011eec: 00 40        	<unknown>
10011eee: 1f bf 41 3f 72 be 7e 3f      	<unknown>
10011ef6: 11 3f        	<unknown>
10011ef8: 04 bf        	<unknown>
10011efa: e6 bf        	<unknown>
10011efc: 4b 3e 51 bf a0 bf 77 3f      	<unknown>
10011f04: dc 3e        	<unknown>
10011f06: 81 bc        	<unknown>
10011f08: 83 3f 09 3e 44 3f a4 3f      	<unknown>
10011f10: a9 bf        	<unknown>
10011f12: 77 bf 1e 40 90 be 06 be      	<unknown>
10011f1a: 47 be b1 bf b9 bf 65 3d      	<unknown>
10011f22: 2e bf        	<unknown>
10011f24: 03 3e 1e bf 1e bf 2d be      	<unknown>
10011f2c: 94 3f        	<unknown>
10011f2e: 34 bf        	<unknown>
10011f30: 2d 3e        	<unknown>
10011f32: ad bd        	<unknown>
10011f34: a0 3f        	<unknown>
10011f36: 9e 3f        	<unknown>
10011f38: db bd bc be d8 bf 1f be      	<unknown>
10011f40: 04 bf        	<unknown>
10011f42: c1 3d        	<unknown>
10011f44: fb 3d 8e bf 2e 3f 7a 3f      	<unknown>
10011f4c: fe 3e        	<unknown>
10011f4e: 53 3f cc be b8 be 79 3f      	<unknown>
10011f56: 21 3f        	<unknown>
10011f58: c5 3f        	<unknown>
10011f5a: 91 be        	<unknown>
10011f5c: 90 3f        	<unknown>
10011f5e: b1 bf        	<unknown>
10011f60: 83 3f 6f 3f e0 bf 18 3f      	<unknown>
10011f68: 84 bf        	<unknown>
10011f6a: f1 3d        	<unknown>
10011f6c: 8b 3d 0c bf 75 bf ce be      	<unknown>
10011f74: a7 3f ac 3e 20 bf f3 3e      	<unknown>
10011f7c: b8 3f        	<unknown>
10011f7e: 7a be        	<unknown>
10011f80: 84 bf        	<unknown>
10011f82: c9 bd        	<unknown>
10011f84: 8a 3e        	<unknown>
10011f86: a6 3f        	<unknown>
10011f88: d6 3e        	<unknown>
10011f8a: bc be        	<unknown>
10011f8c: 9d 3f        	<unknown>
10011f8e: 85 be        	<unknown>
10011f90: ac 3e        	<unknown>
10011f92: f2 3d        	<unknown>
10011f94: 8a 3e        	<unknown>
10011f96: 8f 3f d6 be c7 3e 20 be      	<unknown>
10011f9e: 87 3f 4a bf a5 bf 93 be      	<unknown>
10011fa6: be 3e        	<unknown>
10011fa8: 82 bf        	<unknown>
10011faa: fb bd ea bd 36 40 73 3f      	<unknown>
10011fb2: 92 be        	<unknown>
10011fb4: 2e bf        	<unknown>
10011fb6: 1e 3f        	<unknown>
10011fb8: 9c 3f        	<unknown>
10011fba: 7b 3f 90 3f a2 3f 22 bf      	<unknown>
10011fc2: f4 3f        	<unknown>
10011fc4: 19 bf        	<unknown>
10011fc6: bf be 60 3f fa 3c 38 3f      	<unknown>
10011fce: 38 3f        	<unknown>
10011fd0: 05 be        	<unknown>
10011fd2: b1 bf        	<unknown>
10011fd4: c7 bf 10 3f 38 3f 33 3e      	<unknown>
10011fdc: ac 3f        	<unknown>
10011fde: 6d bf        	<unknown>
10011fe0: 80 be        	<unknown>
10011fe2: d9 3e        	<unknown>
10011fe4: d9 3e        	<unknown>
10011fe6: 13 bf 03 3f a3 3c 0b 3f      	<unknown>
10011fee: d0 3e        	<unknown>
10011ff0: 81 bf        	<unknown>
10011ff2: b1 3f        	<unknown>
10011ff4: 2a bf        	<unknown>
10011ff6: 3c 3f        	<unknown>
10011ff8: 9f 3f 55 3f 94 3e 50 3e      	<unknown>
10012000: 32 bf        	<unknown>
10012002: 86 bf        	<unknown>
10012004: a0 bf        	<unknown>
10012006: 63 3f e8 3d e5 3e df bd      	<unknown>
1001200e: 65 3f        	<unknown>
10012010: 65 be        	<unknown>
10012012: ae 3e        	<unknown>
10012014: 6b bd df 3f 14 bf c5 3e      	<unknown>
1001201c: 41 3e        	<unknown>
1001201e: c6 be        	<unknown>
10012020: 00 c0        	<unknown>
10012022: a6 be        	<unknown>
10012024: 14 3f        	<unknown>
10012026: 05 3f        	<unknown>
10012028: 25 bf        	<unknown>
1001202a: 16 3f        	<unknown>
1001202c: 1b bf 73 bf 82 3e 1b 3f      	<unknown>
10012034: c5 3e        	<unknown>
10012036: 20 bf        	<unknown>
10012038: b3 bf 81 be b7 3e ad be      	<unknown>
10012040: 6a 3f        	<unknown>
10012042: 63 bf ac bf 8b be 35 c0      	<unknown>
1001204a: 8f bf 58 bf 96 bf 74 3f      	<unknown>
10012052: 8a be        	<unknown>
10012054: a7 3f c8 3f 20 bf d8 3f      	<unknown>
1001205c: 9a be        	<unknown>
1001205e: eb 3f ce be d5 3e 08 be      	<unknown>
10012066: 3c bf        	<unknown>
10012068: 6e bf        	<unknown>
1001206a: 50 bf        	<unknown>
1001206c: 9b 3e 0e bf 6a 3f 91 bf      	<unknown>
10012074: 1d bf        	<unknown>
10012076: 04 40        	<unknown>
10012078: 07 40 63 3f 8b 3d 3b bf      	<unknown>
10012080: 3f bd 41 3f af bf 05 c0      	<unknown>
10012088: d5 3f        	<unknown>
1001208a: df 3e c9 3e 0e 3f 99 bd      	<unknown>
10012092: ae bf        	<unknown>
10012094: 73 bf 87 3f df 3f 20 be      	<unknown>
1001209c: 98 3f        	<unknown>
1001209e: 12 be        	<unknown>
100120a0: 8b 3f 88 3e 4d 3f 2e 3f      	<unknown>
100120a8: 55 3f        	<unknown>
100120aa: 6e bf        	<unknown>
100120ac: 05 3f        	<unknown>
100120ae: 92 3f        	<unknown>
100120b0: 99 3e        	<unknown>
100120b2: a3 be 56 3f dd bd 55 3e      	<unknown>
100120ba: 99 be        	<unknown>
100120bc: 70 bf        	<unknown>
100120be: 92 3e        	<unknown>
100120c0: 95 bf        	<unknown>
100120c2: 39 3e        	<unknown>
100120c4: cc be        	<unknown>
100120c6: db be 2e bd 18 bf a3 3f      	<unknown>
100120ce: c9 be        	<unknown>
100120d0: e9 3f        	<unknown>
100120d2: 0c bf        	<unknown>
100120d4: a8 3e        	<unknown>
100120d6: 66 3f        	<unknown>
100120d8: da bf        	<unknown>
100120da: a6 bf        	<unknown>
100120dc: 98 bf        	<unknown>
100120de: 53 3f d2 3d 9f 3e 4c bf      	<unknown>
100120e6: 9a 3e        	<unknown>
100120e8: ef 3d 98 bf be 3d ef be      	<unknown>
100120f0: c9 be        	<unknown>
100120f2: b0 3e        	<unknown>
100120f4: 90 bf        	<unknown>
100120f6: 9a 3d        	<unknown>
100120f8: b4 3e        	<unknown>
100120fa: 5f bd 1e c0 96 be 84 3f      	<unknown>
10012102: 65 bf        	<unknown>
10012104: 52 3f        	<unknown>
10012106: 23 40 48 3f 96 bf c3 3f      	<unknown>
1001210e: 0a be        	<unknown>
10012110: 11 bf        	<unknown>
10012112: 3c 3f        	<unknown>
10012114: 05 be        	<unknown>
10012116: 99 bf        	<unknown>
10012118: 6d 3d        	<unknown>
1001211a: 18 3f        	<unknown>
1001211c: 00 3f        	<unknown>
1001211e: 17 3e ef 3e 9b bd 78 3f      	<unknown>
10012126: a7 bf 8d be 60 3f 05 be      	<unknown>
1001212e: 0d bf        	<unknown>
10012130: b4 bf        	<unknown>
10012132: cc bd        	<unknown>
10012134: 1d 3f        	<unknown>
10012136: 03 bf 8f 3f 87 bf 1b be      	<unknown>
1001213e: be be        	<unknown>
10012140: 26 bf        	<unknown>
10012142: a0 bf        	<unknown>
10012144: 32 3e        	<unknown>
10012146: 41 c0        	<unknown>
10012148: 5c bf        	<unknown>
1001214a: 68 bf        	<unknown>
1001214c: 8d 3f        	<unknown>
1001214e: af bf 35 3f 88 3f 2a bf      	<unknown>
10012156: b5 3f        	<unknown>
10012158: 19 bf        	<unknown>
1001215a: e7 bd 0f bf 2e be 7f bf      	<unknown>
10012162: 59 3f        	<unknown>
10012164: 17 be 35 bf 62 bc b3 bf      	<unknown>
1001216c: d8 3d        	<unknown>
1001216e: bc bf        	<unknown>
10012170: 7d 3a        	<unknown>
10012172: 8c bf        	<unknown>
10012174: 24 bd        	<unknown>
10012176: 60 bf        	<unknown>
10012178: 98 3e        	<unknown>
1001217a: 4a bf        	<unknown>
1001217c: ec be        	<unknown>
1001217e: cd 3f        	<unknown>
10012180: fd 3d        	<unknown>
10012182: e1 3f        	<unknown>
10012184: 86 3e        	<unknown>
10012186: d1 3e        	<unknown>
10012188: 71 bf        	<unknown>
1001218a: 80 bf        	<unknown>
1001218c: 95 3f        	<unknown>
1001218e: 9f be 35 3f 24 c0 c9 3e      	<unknown>
10012196: 9e 3f        	<unknown>
10012198: 13 bf b8 3e 80 3f 8c bf      	<unknown>
100121a0: 9b bf db 3d 29 bf 9f bf      	<unknown>
100121a8: 54 bf        	<unknown>
100121aa: 39 bf        	<unknown>
100121ac: c9 bd        	<unknown>
100121ae: 39 bd        	<unknown>
100121b0: 51 3f        	<unknown>
100121b2: 1d 3f        	<unknown>
100121b4: ae 3c        	<unknown>
100121b6: 74 bf        	<unknown>
100121b8: 81 be        	<unknown>
100121ba: 02 40        	<unknown>
100121bc: 90 be        	<unknown>
100121be: 03 bf 41 3e d2 3f a8 3f      	<unknown>
100121c6: c9 bf        	<unknown>
100121c8: 1c 3f        	<unknown>
100121ca: ac 3f        	<unknown>
100121cc: db 3d e7 3e 53 bf da bd      	<unknown>
100121d4: 55 bf        	<unknown>
100121d6: 10 bf        	<unknown>
100121d8: c2 bf        	<unknown>
100121da: bd 3e        	<unknown>
100121dc: 88 bf        	<unknown>
100121de: f1 3e        	<unknown>
100121e0: 08 c0        	<unknown>
100121e2: 77 bf 29 c0 3c bf 64 bf      	<unknown>
100121ea: b4 3f        	<unknown>
100121ec: 0e bf        	<unknown>
100121ee: 5c 3f        	<unknown>
100121f0: 55 bf        	<unknown>
100121f2: a3 bf f8 bd a3 3f 85 bf      	<unknown>
100121fa: 20 3f        	<unknown>
100121fc: 49 bf        	<unknown>
100121fe: 79 bf        	<unknown>
10012200: 7f 3d 1f c0 90 3f 70 be      	<unknown>
10012208: 33 3f d5 3e af 3f 8f bf      	<unknown>
10012210: d4 bf        	<unknown>
10012212: 83 3f 00 00 1c bf 82 bf      	<unknown>
1001221a: 38 be        	<unknown>
1001221c: 2c 3e        	<unknown>
1001221e: 05 40        	<unknown>
10012220: a2 bf        	<unknown>
10012222: ad be        	<unknown>
10012224: 8a be        	<unknown>
10012226: 64 bf        	<unknown>
10012228: a6 be        	<unknown>
1001222a: 46 bf        	<unknown>
1001222c: 86 bc        	<unknown>
1001222e: c1 3f        	<unknown>
10012230: 6e bd        	<unknown>
10012232: e4 be        	<unknown>
10012234: 5a bf        	<unknown>
10012236: 0a bf        	<unknown>
10012238: c1 3e        	<unknown>
1001223a: b9 3f        	<unknown>
1001223c: 36 3f        	<unknown>
1001223e: 18 40        	<unknown>
10012240: ad be        	<unknown>
10012242: 4f 3f 5a bf ac 3f 72 be      	<unknown>
1001224a: a1 bf        	<unknown>
1001224c: 52 bf        	<unknown>
1001224e: 40 bf        	<unknown>
10012250: 89 bf        	<unknown>
10012252: d2 be        	<unknown>
10012254: aa 3f        	<unknown>
10012256: 8c 3f        	<unknown>
10012258: 04 bf        	<unknown>
1001225a: 8e be        	<unknown>
1001225c: a9 bf        	<unknown>
1001225e: 13 bf 98 bf b3 be 23 be      	<unknown>
10012266: 84 3f        	<unknown>
10012268: 12 40        	<unknown>
1001226a: 29 40        	<unknown>
1001226c: 8e 3e        	<unknown>
1001226e: 49 bd        	<unknown>
10012270: f9 be        	<unknown>
10012272: 9c be        	<unknown>
10012274: e8 bf        	<unknown>
10012276: 0b c0 ad 3e 02 bf 9f 3f      	<unknown>
1001227e: 09 40        	<unknown>
10012280: 62 3e        	<unknown>
10012282: 5a bf        	<unknown>
10012284: 7a 3f        	<unknown>
10012286: 20 be        	<unknown>
10012288: 1d c0        	<unknown>
1001228a: 58 3d        	<unknown>
1001228c: 47 bd 37 c0 58 bf 51 bf      	<unknown>
10012294: 7a 3f        	<unknown>
10012296: 22 3f        	<unknown>
10012298: 43 be 3e 3f 97 3d d2 3e      	<unknown>
100122a0: 26 3f        	<unknown>
100122a2: df be 2f 3d bb bf 44 3e      	<unknown>
100122aa: 1c 3f        	<unknown>
100122ac: 35 3f        	<unknown>
100122ae: cd 3f        	<unknown>
100122b0: 8a 3f        	<unknown>
100122b2: 1f be 30 3e 0c be c2 3f      	<unknown>
100122ba: d9 3f        	<unknown>
100122bc: 8e bf        	<unknown>
100122be: 52 be        	<unknown>
100122c0: 56 3d        	<unknown>
100122c2: 8b be 8b bf 84 bd 5e be      	<unknown>
100122ca: df be 9b be 5c bf 8d 3f      	<unknown>
100122d2: 97 bd 0f 3d 94 3e 5f bf      	<unknown>
100122da: c5 bf        	<unknown>
100122dc: d5 bf        	<unknown>
100122de: 46 bf        	<unknown>
100122e0: 55 3f        	<unknown>
100122e2: 25 3f        	<unknown>
100122e4: 78 3f        	<unknown>
100122e6: 87 3f 7a 3f b9 be 67 bf      	<unknown>
100122ee: 7e be        	<unknown>
100122f0: 05 c0        	<unknown>
100122f2: bd bf        	<unknown>
100122f4: 8c bf        	<unknown>
100122f6: 98 bf        	<unknown>
100122f8: c1 3e        	<unknown>
100122fa: fe bf        	<unknown>
100122fc: 22 3e        	<unknown>
100122fe: 2f bd 83 be aa 3f 16 bf      	<unknown>
10012306: c5 3f        	<unknown>
10012308: c5 3e        	<unknown>
1001230a: 9b bf cb be 54 bf b9 be      	<unknown>
10012312: 95 bf        	<unknown>
10012314: b6 be        	<unknown>
10012316: 51 bd        	<unknown>
10012318: 38 3f        	<unknown>
1001231a: 37 c0 b4 bf 52 3a ec bf      	<unknown>
10012322: 0e bf        	<unknown>
10012324: 9f bf ed 3e c1 be 4a 3f      	<unknown>
1001232c: f6 bf        	<unknown>
1001232e: e3 3f 96 3f e1 bf 9d bf      	<unknown>
10012336: 7e 3f        	<unknown>
10012338: 44 be        	<unknown>
1001233a: 83 be 06 3f 1a 40 d5 3e      	<unknown>
10012342: eb bf 1d 3f 0a c0 f2 3e      	<unknown>
1001234a: a2 bf        	<unknown>
1001234c: 8b bf 64 3e 60 bf 8a 3f      	<unknown>
10012354: 36 be        	<unknown>
10012356: 9c bf        	<unknown>
10012358: db 3e 9c 3f 89 bf ae bf      	<unknown>
10012360: 10 3f        	<unknown>
10012362: ef be 0c 3c 4f 3e e8 bf      	<unknown>
1001236a: 6c be        	<unknown>
1001236c: 79 3f        	<unknown>
1001236e: 02 3f        	<unknown>
10012370: 04 40        	<unknown>
10012372: 5f 3f ac bf 3d 3f bf be      	<unknown>
1001237a: 26 3f        	<unknown>
1001237c: a9 3f        	<unknown>
1001237e: 88 bf        	<unknown>
10012380: fd 3d        	<unknown>
10012382: 1b 3e ca 3f 7f 3e f9 3e      	<unknown>
1001238a: 0f 40 ee 3d e8 3f a1 bc      	<unknown>
10012392: b8 3c        	<unknown>
10012394: 00 00        	<unknown>
10012396: a3 bf cc 3e 6c 3f 52 3e      	<unknown>
1001239e: f6 bf        	<unknown>
100123a0: 31 3f        	<unknown>
100123a2: 43 bf 04 40 62 bf 52 bf      	<unknown>
100123aa: d7 be 33 bf b9 bf f6 3d      	<unknown>
100123b2: 41 bf        	<unknown>
100123b4: 3d 3f        	<unknown>
100123b6: a1 be        	<unknown>
100123b8: d9 3c        	<unknown>
100123ba: b7 3e 3d 3f 3b 3e 99 be      	<unknown>
100123c2: 11 c0        	<unknown>
100123c4: b9 be        	<unknown>
100123c6: 08 be        	<unknown>
100123c8: 98 3f        	<unknown>
100123ca: d6 bf        	<unknown>
100123cc: 9b bd ec be a8 3d 50 3f      	<unknown>
100123d4: 8c 3f        	<unknown>
100123d6: 7e 3e        	<unknown>
100123d8: 4e bf        	<unknown>
100123da: 2f bf 3d 3e 99 bf ad bf      	<unknown>
100123e2: 86 3f        	<unknown>
100123e4: 8e bd        	<unknown>
100123e6: ca be        	<unknown>
100123e8: 91 3e        	<unknown>
100123ea: b9 bf        	<unknown>
100123ec: 98 3f        	<unknown>
100123ee: a6 be        	<unknown>
100123f0: b7 bf 0e bd ea be a0 bf      	<unknown>
100123f8: b8 bf        	<unknown>
100123fa: 98 be        	<unknown>
100123fc: 6e 3f        	<unknown>
100123fe: c1 3e        	<unknown>
10012400: 94 3e        	<unknown>
10012402: 0c bf        	<unknown>
10012404: 06 bf        	<unknown>
10012406: fe be        	<unknown>
10012408: ff 3d aa 3f 3b 3e 5e bf      	<unknown>
10012410: 39 bf        	<unknown>
10012412: e6 bd        	<unknown>
10012414: f0 be        	<unknown>
10012416: 2e 3f        	<unknown>
10012418: 04 bc        	<unknown>
1001241a: 9a 3f        	<unknown>
1001241c: e4 3e        	<unknown>
1001241e: 2b 3f 0c bf 00 00 6b bf      	<unknown>
10012426: a2 bf        	<unknown>
10012428: b5 3e        	<unknown>
1001242a: 2e 3f        	<unknown>
1001242c: 7d bf        	<unknown>
1001242e: 4b 3e 48 be 00 00 f8 3e      	<unknown>
10012436: 63 3e 7c 3d 16 3f b3 bf      	<unknown>
1001243e: 81 bf        	<unknown>
10012440: a0 bf        	<unknown>
10012442: 44 bf        	<unknown>
10012444: 9f bf b4 be 79 be de bf      	<unknown>
1001244c: c9 3f        	<unknown>
1001244e: 47 3f 60 3f 9e bf a1 be      	<unknown>
10012456: 6a 3f        	<unknown>
10012458: 22 3f        	<unknown>
1001245a: 1f 3f 4d bf 4c be 15 bf      	<unknown>
10012462: f1 3e        	<unknown>
10012464: 2b bf 52 be 22 3f 6f bf      	<unknown>
1001246c: bf 3d 96 3f 95 bf bd 3e      	<unknown>
10012474: ac bf        	<unknown>
10012476: 6c 3f        	<unknown>
10012478: e5 3e        	<unknown>
1001247a: d6 be        	<unknown>
1001247c: 1f 3f c0 3f a2 be c9 be      	<unknown>
10012484: 1f bf 5f 3f 38 3f 14 3f      	<unknown>
1001248c: 3d bf        	<unknown>
1001248e: 05 be        	<unknown>
10012490: 38 3f        	<unknown>
10012492: c7 39 bd bf 55 3f 55 be      	<unknown>
1001249a: 69 3f        	<unknown>
1001249c: 35 bf        	<unknown>
1001249e: a4 3f        	<unknown>
100124a0: 68 bf        	<unknown>
100124a2: 2a 3f        	<unknown>
100124a4: 5f 3f 08 bf ce 3e 3f bf      	<unknown>
100124ac: 24 bf        	<unknown>
100124ae: 6e be        	<unknown>
100124b0: d9 3e        	<unknown>
100124b2: 9a bf        	<unknown>
100124b4: 76 3f        	<unknown>
100124b6: 4d bf        	<unknown>
100124b8: 8d bf        	<unknown>
100124ba: 87 3f f5 3e 8a bf 5e be      	<unknown>
100124c2: 66 bf        	<unknown>
100124c4: 4b 3f 3b bf 5c 3f fd bd      	<unknown>
100124cc: 0f bf 06 3f c1 3e ea 3d      	<unknown>
100124d4: df be 3e be a0 bf 00 3f      	<unknown>
100124dc: 78 bf        	<unknown>
100124de: aa be        	<unknown>
100124e0: b6 3f        	<unknown>
100124e2: 9f bf 7c bf 47 bf 82 3f      	<unknown>
100124ea: ee be        	<unknown>
100124ec: 34 bf        	<unknown>
100124ee: 92 39        	<unknown>
100124f0: 57 bf 82 bf b4 be 74 3e      	<unknown>
100124f8: 6b 3f e4 be 0a 3d 13 3f      	<unknown>
10012500: 40 bf        	<unknown>
10012502: 90 3f        	<unknown>
10012504: eb 3f ad be 5a bf 8a bf      	<unknown>
1001250c: 85 bf        	<unknown>
1001250e: 05 bf        	<unknown>
10012510: c4 3d        	<unknown>
10012512: 09 3f        	<unknown>
10012514: eb 3f e4 be 51 bf 96 be      	<unknown>
1001251c: aa 3d        	<unknown>
1001251e: 08 3e        	<unknown>
10012520: f4 bf        	<unknown>
10012522: d3 bf b2 3e 00 3f 6e bd      	<unknown>
1001252a: 96 bf        	<unknown>
1001252c: d0 bf        	<unknown>
1001252e: 42 40        	<unknown>
10012530: 17 be 57 3f aa bf 1c 3e      	<unknown>
10012538: 86 3e        	<unknown>
1001253a: a2 be        	<unknown>
1001253c: 06 bf        	<unknown>
1001253e: 2e bf        	<unknown>
10012540: 29 40        	<unknown>
10012542: b6 3f        	<unknown>
10012544: de 3f        	<unknown>
10012546: 00 3f        	<unknown>
10012548: a7 3f 18 3f d4 bf dd be      	<unknown>
10012550: 03 c0 67 be 9c 3f 7b 3f      	<unknown>
10012558: c6 3d        	<unknown>
1001255a: 99 3e        	<unknown>
1001255c: 17 bf af bf e6 bd 03 3f      	<unknown>
10012564: 58 bf        	<unknown>
10012566: 30 bf        	<unknown>
10012568: 24 bf        	<unknown>
1001256a: 9a 3f        	<unknown>
1001256c: 13 3f 85 bf 8d 3f 45 3f      	<unknown>
10012574: 56 3f        	<unknown>
10012576: ed be        	<unknown>
10012578: 81 be        	<unknown>
1001257a: 6d be        	<unknown>
1001257c: cd 3f        	<unknown>
1001257e: 22 bf        	<unknown>
10012580: 65 bf        	<unknown>
10012582: 6f be f3 bf 93 be e1 bf      	<unknown>
1001258a: 1f be 4b bf 1e bf d6 3e      	<unknown>
10012592: 53 bf f1 3a 13 40 0f 3e      	<unknown>
1001259a: c4 3f        	<unknown>
1001259c: 98 bf        	<unknown>
1001259e: 92 bf        	<unknown>
100125a0: ed 3d        	<unknown>
100125a2: 3e 3e        	<unknown>
100125a4: 23 3e 94 3c 79 bd 34 3f      	<unknown>
100125ac: be bf        	<unknown>
100125ae: d6 bd        	<unknown>
100125b0: 94 be        	<unknown>
100125b2: 93 3d 5c 3e f6 be 84 3d      	<unknown>
100125ba: 68 bf        	<unknown>
100125bc: ac 3f        	<unknown>
100125be: d7 be bf be 9f 3f ef 3e      	<unknown>
100125c6: 57 bf 42 bf 16 3f 72 3e      	<unknown>
100125ce: 6a 3f        	<unknown>
100125d0: 26 bf        	<unknown>
100125d2: cd bf        	<unknown>
100125d4: 9b 3f de 3c 92 bf 81 be      	<unknown>
100125dc: f0 3f        	<unknown>
100125de: 0b 3e 9b be 23 3e 1a 3e      	<unknown>
100125e6: 94 be        	<unknown>
100125e8: 27 be 1d bf 02 3f 3f 3d      	<unknown>
100125f0: 02 3f        	<unknown>
100125f2: 18 be        	<unknown>
100125f4: 07 40 94 bf ee bf 2a bf      	<unknown>
100125fc: 88 bf        	<unknown>
100125fe: 2c bf        	<unknown>
10012600: d8 3d        	<unknown>
10012602: 0d 40        	<unknown>
10012604: c3 bc 04 bd 97 3f 8c 3f      	<unknown>
1001260c: d0 3f        	<unknown>
1001260e: 1e bf        	<unknown>
10012610: 89 3d        	<unknown>
10012612: b4 be        	<unknown>
10012614: 85 3f        	<unknown>
10012616: b4 3f        	<unknown>
10012618: ed 3c        	<unknown>
1001261a: 7a be        	<unknown>
1001261c: 5e 3f        	<unknown>
1001261e: 01 40        	<unknown>
10012620: b3 bf 3e be 0e bf da bf      	<unknown>
10012628: 9e bf        	<unknown>
1001262a: d4 3e        	<unknown>
1001262c: 3d bf        	<unknown>
1001262e: c6 bf        	<unknown>
10012630: 8a 3f        	<unknown>
10012632: 71 3f        	<unknown>
10012634: e9 bd        	<unknown>
10012636: 26 3e        	<unknown>
10012638: 81 bf        	<unknown>
1001263a: 61 bc        	<unknown>
1001263c: 11 3f        	<unknown>
1001263e: 0d bf        	<unknown>
10012640: 4d 40        	<unknown>
10012642: 5f 3f b8 3f df 3e 03 c0      	<unknown>
1001264a: 26 3f        	<unknown>
1001264c: 9e bf        	<unknown>
1001264e: fd 3d        	<unknown>
10012650: 6e bf        	<unknown>
10012652: ed bc        	<unknown>
10012654: 0e 3f        	<unknown>
10012656: 8d be        	<unknown>
10012658: d7 3f 80 3e be 3f 38 be      	<unknown>
10012660: 34 bf        	<unknown>
10012662: d5 3e        	<unknown>
10012664: cf bf d6 bf 57 3e fa be      	<unknown>
1001266c: 18 3f        	<unknown>
1001266e: 64 3f        	<unknown>
10012670: 88 3f        	<unknown>
10012672: aa 3d        	<unknown>
10012674: fd 3e        	<unknown>
10012676: 82 bf        	<unknown>
10012678: 9d be        	<unknown>
1001267a: 0d 40        	<unknown>
1001267c: 6a 3e        	<unknown>
1001267e: 71 bf        	<unknown>
10012680: 07 40 0f c0 ca bf 96 be      	<unknown>
10012688: 46 be        	<unknown>
1001268a: 09 bf        	<unknown>
1001268c: d2 bf        	<unknown>
1001268e: f1 3e        	<unknown>
10012690: 94 bf        	<unknown>
10012692: 36 3e        	<unknown>
10012694: ce be        	<unknown>
10012696: 0c 3f        	<unknown>
10012698: d8 be        	<unknown>
1001269a: 95 bf        	<unknown>
1001269c: e6 3e        	<unknown>
1001269e: 89 3f        	<unknown>
100126a0: 27 bf c2 3c b7 3e af be      	<unknown>
100126a8: 14 c0        	<unknown>
100126aa: 83 be b8 3d 1d 3e e8 be      	<unknown>
100126b2: 21 bf        	<unknown>
100126b4: 96 3e        	<unknown>
100126b6: 63 3f 74 3f bd 3f 5f 3e      	<unknown>
100126be: a7 bb 4d bf a9 bf 4f 3f      	<unknown>
100126c6: 4c 3e        	<unknown>
100126c8: 13 c0 b3 bc ea be 67 bf      	<unknown>
100126d0: 1d 3f        	<unknown>
100126d2: 90 3f        	<unknown>
100126d4: 0d bf        	<unknown>
100126d6: b5 3d        	<unknown>
100126d8: a7 3f 61 bf 8e be 8f bf      	<unknown>
100126e0: 7a be        	<unknown>
100126e2: 1f 3d 30 3f 5f bf d7 be      	<unknown>
100126ea: 14 be        	<unknown>
100126ec: 8c 3f        	<unknown>
100126ee: 2c bf        	<unknown>
100126f0: 96 3e        	<unknown>
100126f2: 52 3f        	<unknown>
100126f4: 80 bf        	<unknown>
100126f6: 5d bf        	<unknown>
100126f8: 5b 3d af be 77 bf 0d bf      	<unknown>
10012700: 96 be        	<unknown>
10012702: b3 3e 99 3f d2 bf 28 c0      	<unknown>
1001270a: 81 3f        	<unknown>
1001270c: 51 3f        	<unknown>
1001270e: 82 3e        	<unknown>
10012710: a9 3f        	<unknown>
10012712: aa bf        	<unknown>
10012714: 2d 3f        	<unknown>
10012716: 7f bf 80 3e a6 bf a5 3d      	<unknown>
1001271e: 83 3f a6 3d 98 be c4 3f      	<unknown>
10012726: 67 bf a7 3f 07 bf 20 3f      	<unknown>
1001272e: 9b 3e 0a c0 c4 3d 2a bf      	<unknown>
10012736: 60 3f        	<unknown>
10012738: 24 3e        	<unknown>
1001273a: 93 bf 19 c0 b4 3e 3b be      	<unknown>
10012742: a1 bf        	<unknown>
10012744: 21 bf        	<unknown>
10012746: 00 00        	<unknown>
10012748: a8 3f        	<unknown>
1001274a: 97 3e dc 3d e6 3e 80 bf      	<unknown>
10012752: fe 3e        	<unknown>
10012754: b9 3d        	<unknown>
10012756: 00 00        	<unknown>
10012758: ae bd        	<unknown>
1001275a: 98 3f        	<unknown>
1001275c: 83 3d 8f bf a8 3f 25 3e      	<unknown>
10012764: 93 3f 4d 3f 1c 3f af 3e      	<unknown>
1001276c: d3 3e bc bf 01 be 11 40      	<unknown>
10012774: 97 be a2 be 94 3e 89 3e      	<unknown>
1001277c: 5d bf        	<unknown>
1001277e: a6 be        	<unknown>
10012780: d6 bf        	<unknown>
10012782: 63 3f 81 3f 29 be 44 3f      	<unknown>
1001278a: 9e bf        	<unknown>
1001278c: 62 bf        	<unknown>
1001278e: 08 3f        	<unknown>
10012790: bd be        	<unknown>
10012792: ee bf        	<unknown>
10012794: 09 3f        	<unknown>
10012796: ce 3e        	<unknown>
10012798: 7e be        	<unknown>
1001279a: 20 3f        	<unknown>
1001279c: 00 3f        	<unknown>
1001279e: 65 bf        	<unknown>
100127a0: d1 3e        	<unknown>
100127a2: a4 3e        	<unknown>
100127a4: fd 3f        	<unknown>
100127a6: b9 3e        	<unknown>
100127a8: 85 bf        	<unknown>
100127aa: 06 bf        	<unknown>
100127ac: 99 bc        	<unknown>
100127ae: a0 bd        	<unknown>
100127b0: 9e bf        	<unknown>
100127b2: fa bf        	<unknown>
100127b4: 86 bd        	<unknown>
100127b6: fe be        	<unknown>
100127b8: 46 bf        	<unknown>
100127ba: 88 be        	<unknown>
100127bc: 88 3e        	<unknown>
100127be: db be 31 be 82 bd 2e 40      	<unknown>
100127c6: a3 3f 7c bf d8 bc 80 3d      	<unknown>
100127ce: 21 3f        	<unknown>
100127d0: 3b be 20 3f 33 bf 98 bf      	<unknown>
100127d8: 2a 3f        	<unknown>
100127da: 93 3f 42 3e 8e 3f fb bf      	<unknown>
100127e2: 2b bf 00 bf 82 bf 1b 3e      	<unknown>
100127ea: f3 3f 0d be d1 be e2 bf      	<unknown>
100127f2: 53 bf 8b bf 04 3e 29 bf      	<unknown>
100127fa: a9 3e        	<unknown>
100127fc: e6 bd        	<unknown>
100127fe: 5d 3e        	<unknown>
10012800: 8a be        	<unknown>
10012802: 8d 3f        	<unknown>
10012804: 00 3f        	<unknown>
10012806: b1 3f        	<unknown>
10012808: d7 3e 9c 3f f0 bf 83 bf      	<unknown>
10012810: 4e 3e        	<unknown>
10012812: 95 bf        	<unknown>
10012814: 86 bf        	<unknown>
10012816: 08 be        	<unknown>
10012818: ce 3e        	<unknown>
1001281a: 92 bf        	<unknown>
1001281c: 87 be 56 bf d0 bf fd 3e      	<unknown>
10012824: 74 bd        	<unknown>
10012826: a6 3d        	<unknown>
10012828: e5 3d        	<unknown>
1001282a: 7b bf e7 be b3 3d 84 3f      	<unknown>
10012832: e8 3f        	<unknown>
10012834: f4 3e        	<unknown>
10012836: ba 3e        	<unknown>
10012838: 10 3f        	<unknown>
1001283a: 56 3f        	<unknown>
1001283c: 0f bf 64 bc 93 3f 41 3f      	<unknown>
10012844: 8b 3f be 3e 33 3f b7 bf      	<unknown>
1001284c: fb bf 85 bf 48 bf 2f 3f      	<unknown>
10012854: c8 3e        	<unknown>
10012856: 2c bf        	<unknown>
10012858: 3d bf        	<unknown>
1001285a: b5 bf        	<unknown>
1001285c: 08 bf        	<unknown>
1001285e: 46 3f        	<unknown>
10012860: c6 bf        	<unknown>
10012862: 55 3f        	<unknown>
10012864: a1 3e        	<unknown>
10012866: 9d 3f        	<unknown>
10012868: 5e bf        	<unknown>
1001286a: 30 3f        	<unknown>
1001286c: a7 bf 3f 3f d1 bf 3f be      	<unknown>
10012874: 18 3e        	<unknown>
10012876: 27 bd c1 bf ee be 81 bf      	<unknown>
1001287e: fe 3e        	<unknown>
10012880: 3a 3f        	<unknown>
10012882: b7 3f 87 3e 98 3f 4c bf      	<unknown>
1001288a: eb 3e eb be d0 be a1 be      	<unknown>
10012892: 68 3f        	<unknown>
10012894: ad bf        	<unknown>
10012896: 34 bf        	<unknown>
10012898: 09 bf        	<unknown>
1001289a: 8b be 84 bd d3 3f 88 3f      	<unknown>
100128a2: 87 3f 2f 3f 15 3f 2c 3f      	<unknown>
100128aa: 52 3f        	<unknown>
100128ac: 80 3f        	<unknown>
100128ae: fa bf        	<unknown>
100128b0: eb be d5 be 0f 40 4d bf      	<unknown>
100128b8: a9 3f        	<unknown>
100128ba: 2d bf        	<unknown>
100128bc: 20 c0        	<unknown>
100128be: 69 bf        	<unknown>
100128c0: 83 bd d8 bf 28 bf 02 3f      	<unknown>
100128c8: 18 3f        	<unknown>
100128ca: a1 be        	<unknown>
100128cc: f5 bf        	<unknown>
100128ce: 5c bf        	<unknown>
100128d0: 0f be 83 bf bf 3e c4 3f      	<unknown>
100128d8: c6 3f        	<unknown>
100128da: b6 3f        	<unknown>
100128dc: 15 bf        	<unknown>
100128de: 5a bf        	<unknown>
100128e0: 27 3d 16 40 a9 be 0b bf      	<unknown>
100128e8: b6 3f        	<unknown>
100128ea: 0b 40 ab bf b2 be 5c 3f      	<unknown>
100128f2: 81 bf        	<unknown>
100128f4: cb 3e 8f 3c f9 bf f4 bf      	<unknown>
100128fc: 34 40        	<unknown>
100128fe: 24 bf        	<unknown>
10012900: f0 be        	<unknown>
10012902: aa bf        	<unknown>
10012904: 08 3d        	<unknown>
10012906: ae 3f        	<unknown>
10012908: 31 3d        	<unknown>
1001290a: 3e 3f        	<unknown>
1001290c: de 3e        	<unknown>
1001290e: 21 bf        	<unknown>
10012910: 0b c0 4f bf 34 3f b8 bf      	<unknown>
10012918: 7e 3e        	<unknown>
1001291a: ac bf        	<unknown>
1001291c: f5 3e        	<unknown>
1001291e: 3b c0 15 3f a6 3e 0e 3f      	<unknown>
10012926: 84 3d        	<unknown>
10012928: 8f bf 5f bf 33 bf ed bf      	<unknown>
10012930: be bd        	<unknown>
10012932: d1 3f        	<unknown>
10012934: 76 be        	<unknown>
10012936: 94 3e        	<unknown>
10012938: 06 3f        	<unknown>
1001293a: 82 3f        	<unknown>
1001293c: 64 3d        	<unknown>
1001293e: c3 be d7 3d 47 3f 8f 3f      	<unknown>
10012946: c1 3f        	<unknown>
10012948: 38 3f        	<unknown>
1001294a: ae 3f        	<unknown>
1001294c: 33 3f f6 be cd be 50 3f      	<unknown>
10012954: 0d 40        	<unknown>
10012956: 75 bf        	<unknown>
10012958: 0b 40 17 bf 82 bf 31 40      	<unknown>
10012960: 95 3f        	<unknown>
10012962: ef be 04 40 a3 be 65 bf      	<unknown>
1001296a: 30 3f        	<unknown>
1001296c: 19 3f        	<unknown>
1001296e: 60 3f        	<unknown>
10012970: bf 3f 1b 3e 51 bf 08 40      	<unknown>
10012978: f0 be        	<unknown>
1001297a: e5 3f        	<unknown>
1001297c: fc be        	<unknown>
1001297e: 98 3f        	<unknown>
10012980: bf 3f cb be 0f 3f 2c be      	<unknown>
10012988: 60 3d        	<unknown>
1001298a: 41 bf        	<unknown>
1001298c: b5 be        	<unknown>
1001298e: ce 3e        	<unknown>
10012990: 95 3f        	<unknown>
10012992: b5 3f        	<unknown>
10012994: 82 bf        	<unknown>
10012996: 5b 3f 94 3f 97 3f 08 bf      	<unknown>
1001299e: 48 bf        	<unknown>
100129a0: a6 3f        	<unknown>
100129a2: 40 bf        	<unknown>
100129a4: 0a c0        	<unknown>
100129a6: 0b bf 74 3e 18 bf 60 3f      	<unknown>
100129ae: 21 3f        	<unknown>
100129b0: 45 3e        	<unknown>
100129b2: e9 3f        	<unknown>
100129b4: 04 c0        	<unknown>
100129b6: 8c bf        	<unknown>
100129b8: ba bf        	<unknown>
100129ba: 3c bf        	<unknown>
100129bc: 1d 3f        	<unknown>
100129be: 0b 3f 84 be 4e 3f 36 bf      	<unknown>
100129c6: c1 bf        	<unknown>
100129c8: 2c bf        	<unknown>
100129ca: 13 3f cb 3f 50 3f 22 40      	<unknown>
100129d2: 57 3f 6f bf 3b bd d8 be      	<unknown>
100129da: bf 3f f7 3e a3 3c e3 be      	<unknown>
100129e2: f0 39        	<unknown>
100129e4: 67 3f 2f 3f 23 bf 1a 3f      	<unknown>
100129ec: 6a 3f        	<unknown>
100129ee: bc 3f        	<unknown>
100129f0: 2b 3f 72 3f 58 bf ac 3f      	<unknown>
100129f8: a4 bf        	<unknown>
100129fa: 6d 3e        	<unknown>
100129fc: a7 3f 94 3d b8 3c 51 3d      	<unknown>
10012a04: 8b 3e a9 3f f6 be 84 bf      	<unknown>
10012a0c: 31 3f        	<unknown>
10012a0e: bd bf        	<unknown>
10012a10: 19 bf        	<unknown>
10012a12: 96 3e        	<unknown>
10012a14: 85 bf        	<unknown>
10012a16: 8b bf 55 bf 04 c0 cb bf      	<unknown>
10012a1e: 31 3f        	<unknown>
10012a20: c5 3f        	<unknown>
10012a22: d7 3f b1 be 6e 3f c7 bf      	<unknown>
10012a2a: b8 be        	<unknown>
10012a2c: 0a 3e        	<unknown>
10012a2e: 16 3f        	<unknown>
10012a30: 6a 3f        	<unknown>
10012a32: b1 bf        	<unknown>
10012a34: 0c 3e        	<unknown>
10012a36: 99 bf        	<unknown>
10012a38: 18 3e        	<unknown>
10012a3a: 96 3f        	<unknown>
10012a3c: 53 bf 9d bf 8b 3e 57 3f      	<unknown>
10012a44: c7 3e 9c bf 05 bf b2 bf      	<unknown>
10012a4c: 96 3f        	<unknown>
10012a4e: 54 bf        	<unknown>
10012a50: 34 3f        	<unknown>
10012a52: 6d 3e        	<unknown>
10012a54: 11 bf        	<unknown>
10012a56: ee 3d        	<unknown>
10012a58: bf bf 85 bf c6 3e ae 3e      	<unknown>
10012a60: 5c bd        	<unknown>
10012a62: 42 3d        	<unknown>
10012a64: 1a 3f        	<unknown>
10012a66: 65 be        	<unknown>
10012a68: fd 3d        	<unknown>
10012a6a: 92 3f        	<unknown>
10012a6c: b3 3e 7d bf 1c bf a1 bf      	<unknown>
10012a74: 13 3f e5 3f bf 3e 54 bf      	<unknown>
10012a7c: 1b be 50 be b2 3f 1a bf      	<unknown>
10012a84: 72 bd        	<unknown>
10012a86: 11 3f        	<unknown>
10012a88: 00 00        	<unknown>
10012a8a: 19 3e        	<unknown>
10012a8c: 11 3f        	<unknown>
10012a8e: 3f bf 36 be 78 bf 56 be      	<unknown>
10012a96: a5 3f        	<unknown>
10012a98: 00 00        	<unknown>
10012a9a: 91 bf        	<unknown>
10012a9c: 87 3f c3 3d 65 3f 0f be      	<unknown>
10012aa4: 09 bf        	<unknown>
10012aa6: bc 3e        	<unknown>
10012aa8: b2 bf        	<unknown>
10012aaa: 8e 3f        	<unknown>
10012aac: 4f 3e 2c bf cc 3e 96 bf      	<unknown>
10012ab4: 5c bf        	<unknown>
10012ab6: 99 3f        	<unknown>
10012ab8: fb 3f 1c bf 71 3e 00 bf      	<unknown>
10012ac0: 2f bf aa 3f 6b bf 27 bf      	<unknown>
10012ac8: 46 bf        	<unknown>
10012aca: 88 be        	<unknown>
10012acc: a5 bf        	<unknown>
10012ace: a8 3d        	<unknown>
10012ad0: 0f be 7b 3f ec 3f b6 bf      	<unknown>
10012ad8: 80 3e        	<unknown>
10012ada: ba bf        	<unknown>
10012adc: 94 bf        	<unknown>
10012ade: a0 be        	<unknown>
10012ae0: b4 bf        	<unknown>
10012ae2: 86 bf        	<unknown>
10012ae4: 2b bf 5c be c2 3f a6 3f      	<unknown>
10012aec: 93 be fc 3e 36 bf a4 3e      	<unknown>
10012af4: ba bf        	<unknown>
10012af6: 1e bf        	<unknown>
10012af8: b6 bf        	<unknown>
10012afa: 2a be        	<unknown>
10012afc: a6 3f        	<unknown>
10012afe: 5e 3f        	<unknown>
10012b00: c3 3e 12 be 06 bf 4b be      	<unknown>
10012b08: 23 3e aa be b5 3e 45 3d      	<unknown>
10012b10: 99 3c        	<unknown>
10012b12: 29 bf        	<unknown>
10012b14: 68 bf        	<unknown>
10012b16: 9b 3c de be cf bd ac bf      	<unknown>
10012b1e: 96 be        	<unknown>
10012b20: aa bf        	<unknown>
10012b22: 32 3f        	<unknown>
10012b24: e9 3f        	<unknown>
10012b26: b4 bf        	<unknown>
10012b28: 23 bf d0 bf 05 3e 00 40      	<unknown>
10012b30: 7a bd        	<unknown>
10012b32: bd bc        	<unknown>
10012b34: 78 bd        	<unknown>
10012b36: 29 3f        	<unknown>
10012b38: e3 be 53 3f 84 3f 98 3e      	<unknown>
10012b40: 09 3f        	<unknown>
10012b42: 88 bf        	<unknown>
10012b44: c7 3e 5d bf ae be 5f 3e      	<unknown>
10012b4c: 58 bf        	<unknown>
10012b4e: 98 3f        	<unknown>
10012b50: 93 3f 04 bd e0 3f 10 40      	<unknown>
10012b58: 8a bf        	<unknown>
10012b5a: 8e bf        	<unknown>
10012b5c: e5 3e        	<unknown>
10012b5e: c4 bf        	<unknown>
10012b60: b1 3e        	<unknown>
10012b62: d0 3e        	<unknown>
10012b64: 8c bd        	<unknown>
10012b66: 09 bf        	<unknown>
10012b68: 23 3f b8 3c 86 3f 0e 40      	<unknown>
10012b70: 2d bf        	<unknown>
10012b72: e6 3e        	<unknown>
10012b74: 0c 3f        	<unknown>
10012b76: f9 3e        	<unknown>
10012b78: 34 3f        	<unknown>
10012b7a: 19 bf        	<unknown>
10012b7c: 86 bf        	<unknown>
10012b7e: 00 00        	<unknown>
10012b80: 41 bf        	<unknown>
10012b82: 7c 3f        	<unknown>
10012b84: 2f 3f 4b bf 33 bf fa be      	<unknown>
10012b8c: 24 3f        	<unknown>
10012b8e: 1a bf        	<unknown>
10012b90: bb bc 2f 3e 78 3f 5c bf      	<unknown>
10012b98: be 3e        	<unknown>
10012b9a: 04 3f        	<unknown>
10012b9c: 6f bf d8 3f 5c 3f 81 3e      	<unknown>
10012ba4: c8 3e        	<unknown>
10012ba6: 34 be        	<unknown>
10012ba8: a1 3d        	<unknown>
10012baa: 9f 3e 22 3f b8 3e ac bf      	<unknown>
10012bb2: 1d 3f        	<unknown>
10012bb4: 82 3f        	<unknown>
10012bb6: 00 c0        	<unknown>
10012bb8: 8d 3f        	<unknown>
10012bba: 8c be        	<unknown>
10012bbc: e1 3f        	<unknown>
10012bbe: b8 3e        	<unknown>
10012bc0: 34 bf        	<unknown>
10012bc2: 7f bf aa be da bf 40 3e      	<unknown>
10012bca: bd 3f        	<unknown>
10012bcc: c6 3f        	<unknown>
10012bce: 4a 3f        	<unknown>
10012bd0: 94 3e        	<unknown>
10012bd2: c2 3d        	<unknown>
10012bd4: 6c be        	<unknown>
10012bd6: c2 3e        	<unknown>
10012bd8: 92 bf        	<unknown>
10012bda: c4 bd        	<unknown>
10012bdc: 3b 3f 9e bf b5 be 9b bf      	<unknown>
10012be4: 79 3f        	<unknown>
10012be6: 85 be        	<unknown>
10012be8: 01 bf        	<unknown>
10012bea: a4 be        	<unknown>
10012bec: 95 bf        	<unknown>
10012bee: 2e bd        	<unknown>
10012bf0: 36 bf        	<unknown>
10012bf2: a4 3f        	<unknown>
10012bf4: 2d 3e        	<unknown>
10012bf6: 22 3f        	<unknown>
10012bf8: db 3e 7c 3e 29 40 42 bf      	<unknown>
10012c00: 8c 3e        	<unknown>
10012c02: 57 bf 92 bf 08 bf eb be      	<unknown>
10012c0a: 5f 3f c5 be c4 bf c8 3f      	<unknown>
10012c12: 5b be 25 bf 7e 3f 95 3e      	<unknown>
10012c1a: 90 bf        	<unknown>
10012c1c: 4e be        	<unknown>
10012c1e: 97 3f 67 bf a5 3f 9b 3e      	<unknown>
10012c26: 83 be 7f be 44 bf 89 3f      	<unknown>
10012c2e: 92 bf        	<unknown>
10012c30: 13 3f ae bf 53 bf 98 3e      	<unknown>
10012c38: 4a bf        	<unknown>
10012c3a: 7e 3e        	<unknown>
10012c3c: 83 3f 9a bf a7 bf 81 bf      	<unknown>
10012c44: 5c be        	<unknown>
10012c46: 0f 40 a0 bf 47 bf ff 3d      	<unknown>
10012c4e: 8e bd        	<unknown>
10012c50: c2 bf        	<unknown>
10012c52: 11 be        	<unknown>
10012c54: 8b 3f 98 bd 23 3f 58 bf      	<unknown>
10012c5c: f3 be 9e bf b3 be 3e bf      	<unknown>
10012c64: fb be ff 3e a6 3e 16 bf      	<unknown>
10012c6c: ad 3f        	<unknown>
10012c6e: fc 3f        	<unknown>
10012c70: c9 3f        	<unknown>
10012c72: 17 c0 e2 be 61 3f 9b be      	<unknown>
10012c7a: e6 be        	<unknown>
10012c7c: 38 bd        	<unknown>
10012c7e: af 3e ac 3f b5 be b8 bf      	<unknown>
10012c86: 19 3f        	<unknown>
10012c88: e0 be        	<unknown>
10012c8a: 9e 3f        	<unknown>
10012c8c: 0d be        	<unknown>
10012c8e: 51 be        	<unknown>
10012c90: 08 3e        	<unknown>
10012c92: e5 3f        	<unknown>
10012c94: 18 3f        	<unknown>
10012c96: a3 3e 74 bf 94 bf c9 bf      	<unknown>
10012c9e: af 3f 78 3f c3 3d d5 3f      	<unknown>
10012ca6: 21 40        	<unknown>
10012ca8: b4 bf        	<unknown>
10012caa: d7 3f e9 be 94 bf 1a c0      	<unknown>
10012cb2: f6 3e        	<unknown>
10012cb4: eb 3e 77 3f 7c 3e 7e bf      	<unknown>
10012cbc: 84 be        	<unknown>
10012cbe: bd 3f        	<unknown>
10012cc0: 1b 3f 65 3e 9e bf 65 be      	<unknown>
10012cc8: 52 3f        	<unknown>
10012cca: 1d c0        	<unknown>
10012ccc: 70 3f        	<unknown>
10012cce: 39 3f        	<unknown>
10012cd0: f3 3c 5a bf 32 be 5d 3e      	<unknown>
10012cd8: a5 bf        	<unknown>
10012cda: 2c 3f        	<unknown>
10012cdc: 18 bf        	<unknown>
10012cde: 50 bf        	<unknown>
10012ce0: 62 bf        	<unknown>
10012ce2: d4 bf        	<unknown>
10012ce4: bc be        	<unknown>
10012ce6: 28 40        	<unknown>
10012ce8: 26 be        	<unknown>
10012cea: 77 bf 90 3f 07 be b1 3f      	<unknown>
10012cf2: 5b 3d a8 3f 85 3e 13 bf      	<unknown>
10012cfa: d6 bf        	<unknown>
10012cfc: cf be 62 3f f4 be 3e 3e      	<unknown>
10012d04: 11 3f        	<unknown>
10012d06: 66 bf        	<unknown>
10012d08: b8 3f        	<unknown>
10012d0a: bb 3f 35 3f c3 3e f8 3f      	<unknown>
10012d12: 4f bf 39 3f 4e 40 39 3f      	<unknown>
10012d1a: 9a bf        	<unknown>
10012d1c: ce 3f        	<unknown>
10012d1e: b2 3f        	<unknown>
10012d20: 3b bf 16 40 91 3f 2c 40      	<unknown>
10012d28: ad 3f        	<unknown>
10012d2a: f5 3e        	<unknown>
10012d2c: 0b 3f aa 3e 09 bd 07 3f      	<unknown>
10012d34: 7f bf 09 3f 8a 3e 11 3d      	<unknown>
10012d3c: ad bf        	<unknown>
10012d3e: d9 bf        	<unknown>
10012d40: b5 3f        	<unknown>
10012d42: c0 be        	<unknown>
10012d44: a2 3a        	<unknown>
10012d46: 23 bc 23 c0 e4 3f db be      	<unknown>
10012d4e: 30 bf        	<unknown>
10012d50: 86 3f        	<unknown>
10012d52: 93 be 23 40 de 3e c6 bf      	<unknown>
10012d5a: da 3f        	<unknown>
10012d5c: 4c be        	<unknown>
10012d5e: 58 3e        	<unknown>
10012d60: e4 be        	<unknown>
10012d62: b8 3e        	<unknown>
10012d64: bc bf        	<unknown>
10012d66: 55 bf        	<unknown>
10012d68: 37 40 bd 3e 5a bf be 3f      	<unknown>
10012d70: a0 3d        	<unknown>
10012d72: 33 bf ce 3e d9 3d e9 be      	<unknown>
10012d7a: bf 3f 51 bf 16 3e 5b be      	<unknown>
10012d82: 42 3f        	<unknown>
10012d84: c0 3f        	<unknown>
10012d86: e1 3e        	<unknown>
10012d88: f2 be        	<unknown>
10012d8a: a4 3e        	<unknown>
10012d8c: ac bf        	<unknown>
10012d8e: 84 3f        	<unknown>
10012d90: 7e bf        	<unknown>
10012d92: 30 3f        	<unknown>
10012d94: 9e bf        	<unknown>
10012d96: e1 be        	<unknown>
10012d98: 52 bf        	<unknown>
10012d9a: 87 be 07 bf 58 3f 11 c0      	<unknown>
10012da2: 35 3f        	<unknown>
10012da4: 8d bf        	<unknown>
10012da6: f3 3f 22 3f c1 3e 65 bf      	<unknown>
10012dae: bc be        	<unknown>
10012db0: a4 3f        	<unknown>
10012db2: 81 3f        	<unknown>
10012db4: 70 3f        	<unknown>
10012db6: a2 3f        	<unknown>
10012db8: 0f bf 88 3e 3c 3f d4 3f      	<unknown>
10012dc0: df 3e d0 3f a9 be 03 be      	<unknown>
10012dc8: 33 bf 12 3f 80 be 1b bf      	<unknown>
10012dd0: ab bd 84 3f 2c 3e 05 3f      	<unknown>
10012dd8: 8d be        	<unknown>
10012dda: e2 be        	<unknown>
10012ddc: a9 be        	<unknown>
10012dde: 2a 3f        	<unknown>
10012de0: 61 bf        	<unknown>
10012de2: dd bf        	<unknown>
10012de4: 04 40        	<unknown>
10012de6: 11 40        	<unknown>
10012de8: b4 bf        	<unknown>
10012dea: f5 3e        	<unknown>
10012dec: c9 bf        	<unknown>
10012dee: de 3f        	<unknown>
10012df0: 58 bf        	<unknown>
10012df2: 82 3f        	<unknown>
10012df4: 19 bf        	<unknown>
10012df6: f9 3f        	<unknown>
10012df8: 8a 3d        	<unknown>
10012dfa: 28 bf        	<unknown>
10012dfc: 04 c0        	<unknown>
10012dfe: c7 3e 03 3f 96 bf 8a bf      	<unknown>
10012e06: 11 bf        	<unknown>
10012e08: fc 3e        	<unknown>
10012e0a: 91 be        	<unknown>
10012e0c: 03 40 a7 3e fa bf 95 3a      	<unknown>
10012e14: 91 bf        	<unknown>
10012e16: 29 3f        	<unknown>
10012e18: f0 bf        	<unknown>
10012e1a: 83 3e 08 be 3f bf 52 bf      	<unknown>
10012e22: bb bf 97 bf 08 40 70 be      	<unknown>
10012e2a: 27 bf 96 be f5 bd 12 3e      	<unknown>
10012e32: 8b bf e2 bf bf 3f 57 3f      	<unknown>
10012e3a: e9 3e        	<unknown>
10012e3c: 51 3d        	<unknown>
10012e3e: 15 bd        	<unknown>
10012e40: 23 bf 64 3f 31 3f a2 be      	<unknown>
10012e48: 1d 3e        	<unknown>
10012e4a: 02 bd        	<unknown>
10012e4c: dc be        	<unknown>
10012e4e: 87 3e e5 3f 6c bd 9c 3f      	<unknown>
10012e56: 23 3f 2c bf a9 bd 08 bf      	<unknown>
10012e5e: 95 3e        	<unknown>
10012e60: e9 3e        	<unknown>
10012e62: 24 c0        	<unknown>
10012e64: 31 bf        	<unknown>
10012e66: b3 be e7 be aa be 44 3f      	<unknown>
10012e6e: dd 3f        	<unknown>
10012e70: 91 bf        	<unknown>
10012e72: 94 3f        	<unknown>
10012e74: 69 bf        	<unknown>
10012e76: 63 3e af 3f e9 bf d1 3e      	<unknown>
10012e7e: 2e 3d        	<unknown>
10012e80: 25 3f        	<unknown>
10012e82: b9 bf        	<unknown>
10012e84: ed be        	<unknown>
10012e86: 7f be 63 3e 63 3d a5 3f      	<unknown>
10012e8e: 0b bf b1 3f e2 3e 01 3f      	<unknown>
10012e96: dd 3e        	<unknown>
10012e98: f3 3e 4d bf 60 bf c2 be      	<unknown>
10012ea0: e4 3f        	<unknown>
10012ea2: 33 bf ef 3f 2b 3d a2 bd      	<unknown>
10012eaa: be bf        	<unknown>
10012eac: 52 3f        	<unknown>
10012eae: 1f bf 05 40 12 40 8e 3f      	<unknown>
10012eb6: 16 3f        	<unknown>
10012eb8: 67 bf 47 bf 0e bf df 3e      	<unknown>
10012ec0: da be        	<unknown>
10012ec2: a4 bd        	<unknown>
10012ec4: 54 3f        	<unknown>
10012ec6: dd be        	<unknown>
10012ec8: 55 bf        	<unknown>
10012eca: 1e bd        	<unknown>
10012ecc: 9b 3e 38 bd ee 3e 24 3f      	<unknown>
10012ed4: e9 be        	<unknown>
10012ed6: 3a 3f        	<unknown>
10012ed8: 61 bf        	<unknown>
10012eda: c2 3e        	<unknown>
10012edc: df 3d 4d bf c0 bf a8 3f      	<unknown>
10012ee4: 38 3f        	<unknown>
10012ee6: 71 be        	<unknown>
10012ee8: fa 3e        	<unknown>
10012eea: 79 be        	<unknown>
10012eec: 7d 3f        	<unknown>
10012eee: 11 3f        	<unknown>
10012ef0: ee bd        	<unknown>
10012ef2: 16 3f        	<unknown>
10012ef4: d1 3f        	<unknown>
10012ef6: 0f bf d4 bf 08 bf 72 3f      	<unknown>
10012efe: 5f 3e ce bf a7 3c 0a 3f      	<unknown>
10012f06: 02 3d        	<unknown>
10012f08: c9 be        	<unknown>
10012f0a: 57 3f a8 bd 75 bd 69 3f      	<unknown>
10012f12: 97 be 75 3e a9 3d 25 3e      	<unknown>
10012f1a: 0f 3f 31 bf 42 be 2c bf      	<unknown>
10012f22: 32 3f        	<unknown>
10012f24: ae 3e        	<unknown>
10012f26: 00 00        	<unknown>
10012f28: 07 3d de 3f ae 3e 08 3e      	<unknown>
10012f30: 0e 3f        	<unknown>
10012f32: 12 bf        	<unknown>
10012f34: 22 3f        	<unknown>
10012f36: 00 00        	<unknown>
10012f38: 61 bf        	<unknown>
10012f3a: 1f 3f ae 3e a5 3e 4d bf      	<unknown>
10012f42: 4e be        	<unknown>
10012f44: 35 bf        	<unknown>
10012f46: 22 bf        	<unknown>
10012f48: 40 bf        	<unknown>
10012f4a: 14 bf        	<unknown>
10012f4c: ae 3c        	<unknown>
10012f4e: af 3e 5f bf 82 3f 8e 3f      	<unknown>
10012f56: 88 3f        	<unknown>
10012f58: 88 3f        	<unknown>
10012f5a: bc 3e        	<unknown>
10012f5c: 63 3f 84 bf 6b 3f 8b be      	<unknown>
10012f64: 43 3e 24 bf 0f 3d be bf      	<unknown>
10012f6c: 06 bf        	<unknown>
10012f6e: c1 3e        	<unknown>
10012f70: 25 3f        	<unknown>
10012f72: bf bf 8e be ba 3f bb 3f      	<unknown>
10012f7a: 09 3f        	<unknown>
10012f7c: 31 bf        	<unknown>
10012f7e: da be        	<unknown>
10012f80: d2 bf        	<unknown>
10012f82: 64 3e        	<unknown>
10012f84: dc 3d        	<unknown>
10012f86: 94 3e        	<unknown>
10012f88: ef 3f 6f 3f 93 3d a1 3f      	<unknown>
10012f90: ae 3e        	<unknown>
10012f92: 18 3e        	<unknown>
10012f94: 86 3f        	<unknown>
10012f96: 2a bf        	<unknown>
10012f98: ad bf        	<unknown>
10012f9a: 39 bf        	<unknown>
10012f9c: e0 be        	<unknown>
10012f9e: 31 bf        	<unknown>
10012fa0: a6 be        	<unknown>
10012fa2: 38 3f        	<unknown>
10012fa4: d3 3f 37 3f 0c 3f d0 3e      	<unknown>
10012fac: 89 3f        	<unknown>
10012fae: a5 bf        	<unknown>
10012fb0: e3 bf e6 bf b5 3f e4 bf      	<unknown>
10012fb8: df 3d 84 be 02 3f ae 3f      	<unknown>
10012fc0: dd bf        	<unknown>
10012fc2: 44 bf        	<unknown>
10012fc4: 83 bf ba 3f 3f 3f 67 3f      	<unknown>
10012fcc: 05 40        	<unknown>
10012fce: 53 3f 5c be b6 bf dc 3f      	<unknown>
10012fd6: d9 be        	<unknown>
10012fd8: 68 3f        	<unknown>
10012fda: f6 3f        	<unknown>
10012fdc: 08 bf        	<unknown>
10012fde: 8b 3e d2 be 5e bf 86 bf      	<unknown>
10012fe6: da bf        	<unknown>
10012fe8: aa be        	<unknown>
10012fea: b8 3f        	<unknown>
10012fec: 1a 3f        	<unknown>
10012fee: ab 3e 80 3f 71 bf 6d be      	<unknown>
10012ff6: c1 be        	<unknown>
10012ff8: c5 3e        	<unknown>
10012ffa: a7 3f 1a 3e 78 be 12 3f      	<unknown>
10013002: 4f be 39 3f 1a bf 6d 3f      	<unknown>
1001300a: 26 bf        	<unknown>
1001300c: aa bf        	<unknown>
1001300e: 2d 3f        	<unknown>
10013010: a7 bf 8e bf b6 3f 3d 3e      	<unknown>
10013018: 6d 3e        	<unknown>
1001301a: 9a bf        	<unknown>
1001301c: 54 bf        	<unknown>
1001301e: cc be        	<unknown>
10013020: 20 be        	<unknown>
10013022: aa be        	<unknown>
10013024: 5f bf a8 bf 78 3f 80 3f      	<unknown>
1001302c: 93 3f 43 3f 5c bf f0 3e      	<unknown>
10013034: 20 c0        	<unknown>
10013036: 7b 3f 9f bf 24 be 3a 3f      	<unknown>
1001303e: 4c 3f        	<unknown>
10013040: fa be        	<unknown>
10013042: 15 bf        	<unknown>
10013044: c1 3e        	<unknown>
10013046: cf bf 91 3f 5a bf b5 3f      	<unknown>
1001304e: cc 3e        	<unknown>
10013050: cf 3d e4 3c b1 3f 90 bf      	<unknown>
10013058: 1a bd        	<unknown>
1001305a: 33 be 9c 3f 12 40 54 bf      	<unknown>
10013062: 81 3f        	<unknown>
10013064: c7 be f7 3f 61 3f 68 bf      	<unknown>
1001306c: 18 c0        	<unknown>
1001306e: fc 3e        	<unknown>
10013070: 66 be        	<unknown>
10013072: b9 be        	<unknown>
10013074: 27 3f e7 bf a4 bf ae bf      	<unknown>
1001307c: 46 3f        	<unknown>
1001307e: fc be        	<unknown>
10013080: e2 bd        	<unknown>
10013082: 01 3f        	<unknown>
10013084: da bf        	<unknown>
10013086: ab bf 90 3f c6 be 87 3f      	<unknown>
1001308e: d7 be c9 3f f7 bf 61 3d      	<unknown>
10013096: 50 bf        	<unknown>
10013098: 6b 3f 16 3f 8c bd 34 3f      	<unknown>
100130a0: 5b bd 58 bf b7 3d 63 bf      	<unknown>
100130a8: 5c 3f        	<unknown>
100130aa: 0f 40 e0 be b5 be 2d be      	<unknown>
100130b2: 9a be        	<unknown>
100130b4: 64 bf        	<unknown>
100130b6: b2 3f        	<unknown>
100130b8: cf be 2a 3e 1a c0 82 bf      	<unknown>
100130c0: 87 bf 71 be 24 3f 8b bf      	<unknown>
100130c8: c6 bf        	<unknown>
100130ca: 65 bd        	<unknown>
100130cc: a3 3f 36 3f cc 3f 99 3f      	<unknown>
100130d4: 06 3f        	<unknown>
100130d6: 20 3e        	<unknown>
100130d8: 70 bf        	<unknown>
100130da: 9d be        	<unknown>
100130dc: 82 3e        	<unknown>
100130de: bf bf 1e 40 9e bf 3e 40      	<unknown>
100130e6: 4b bf 71 bf c0 bf 83 3f      	<unknown>
100130ee: c8 be        	<unknown>
100130f0: 73 3f 8c be c1 bf 12 c0      	<unknown>
100130f8: 7e 3f        	<unknown>
100130fa: d0 be        	<unknown>
100130fc: 94 bf        	<unknown>
100130fe: e2 3f        	<unknown>
10013100: 61 bf        	<unknown>
10013102: a8 be        	<unknown>
10013104: 56 3f        	<unknown>
10013106: 19 be        	<unknown>
10013108: 66 3e        	<unknown>
1001310a: 5d 3e        	<unknown>
1001310c: dc 3e        	<unknown>
1001310e: 05 3f        	<unknown>
10013110: 5e 3f        	<unknown>
10013112: bd 3f        	<unknown>
10013114: 56 bf        	<unknown>
10013116: db be e4 3f 27 3f 20 bf      	<unknown>
1001311e: 81 bf        	<unknown>
10013120: d4 be        	<unknown>
10013122: 61 3f        	<unknown>
10013124: 1b be a1 3f ba 3e 61 3f      	<unknown>
1001312c: d7 be 4e 3e 1f bf f1 3f      	<unknown>
10013134: 2c c0        	<unknown>
10013136: 8b 3f 05 40 23 bf b1 3e      	<unknown>
1001313e: 67 3f 05 40 da bf 8e 3f      	<unknown>
10013146: 93 be 82 3f df bf 92 3f      	<unknown>
1001314e: 3e 3f        	<unknown>
10013150: 51 3d        	<unknown>
10013152: 84 bf        	<unknown>
10013154: 34 bf        	<unknown>
10013156: 20 bf        	<unknown>
10013158: f6 3e        	<unknown>
1001315a: 20 3f        	<unknown>
1001315c: 15 be        	<unknown>
1001315e: 18 3e        	<unknown>
10013160: 81 3f        	<unknown>
10013162: 87 3f 1e 3e ff be e9 bf      	<unknown>
1001316a: 22 c0        	<unknown>
1001316c: 9d bf        	<unknown>
1001316e: 95 3f        	<unknown>
10013170: 92 bf        	<unknown>
10013172: 2c be        	<unknown>
10013174: c5 be        	<unknown>
10013176: b6 bf        	<unknown>
10013178: a1 be        	<unknown>
1001317a: cb bf a6 3f 0c bf 92 3e      	<unknown>
10013182: 3b bf 02 bd df bd 6f 3f      	<unknown>
1001318a: 40 bf        	<unknown>
1001318c: 48 3f        	<unknown>
1001318e: 04 c0        	<unknown>
10013190: 9a be        	<unknown>
10013192: 35 3f        	<unknown>
10013194: a3 bf 3b 3f 7a 3f ea be      	<unknown>
1001319c: 9a bd        	<unknown>
1001319e: 8b 3f dc bf ac 3e 43 3f      	<unknown>
100131a6: 6a bf        	<unknown>
100131a8: 1a be        	<unknown>
100131aa: 0f 40 ab 3e 10 3d c2 be      	<unknown>
100131b2: 8d be        	<unknown>
100131b4: 02 3f        	<unknown>
100131b6: 98 3e        	<unknown>
100131b8: 09 40        	<unknown>
100131ba: 26 bf        	<unknown>
100131bc: 28 3d        	<unknown>
100131be: bc 3f        	<unknown>
100131c0: 53 3f 83 3e 30 bf 37 bf      	<unknown>
100131c8: 3a 3e        	<unknown>
100131ca: 34 3e        	<unknown>
100131cc: d8 3f        	<unknown>
100131ce: 8f bf 5b bd 7a bf 99 3f      	<unknown>
100131d6: 24 bf        	<unknown>
100131d8: c4 be        	<unknown>
100131da: 81 3f        	<unknown>
100131dc: f4 bf        	<unknown>
100131de: ac 3f        	<unknown>
100131e0: f6 3f        	<unknown>
100131e2: 3f bc 00 40 85 bf dd 3e      	<unknown>
100131ea: 76 bf        	<unknown>
100131ec: e2 3e        	<unknown>
100131ee: 33 3f 91 bf 02 3f 88 bd      	<unknown>
100131f6: 71 3f        	<unknown>
100131f8: ce be        	<unknown>
100131fa: 16 bf        	<unknown>
100131fc: 43 be b6 be 62 bf 52 bf      	<unknown>
10013204: fa be        	<unknown>
10013206: 06 3e        	<unknown>
10013208: ac be        	<unknown>
1001320a: 58 bf        	<unknown>
1001320c: 74 bf        	<unknown>
1001320e: e0 bf        	<unknown>
10013210: be 3f        	<unknown>
10013212: 1d 3f        	<unknown>
10013214: 49 bf        	<unknown>
10013216: 85 3f        	<unknown>
10013218: eb bf 3f c0 48 bf 8c bf      	<unknown>
10013220: 2f 3e 91 3f 0d 3d 81 bf      	<unknown>
10013228: 83 3e 32 bf fd 3e 5f be      	<unknown>
10013230: 4b bd 5f be 6a bf c5 3d      	<unknown>
10013238: 8a be        	<unknown>
1001323a: 8c be        	<unknown>
1001323c: 91 bf        	<unknown>
1001323e: df 3f 73 bf 70 bf cf 3f      	<unknown>
10013246: be be        	<unknown>
10013248: 6e 3f        	<unknown>
1001324a: 90 bf        	<unknown>
1001324c: 99 3f        	<unknown>
1001324e: e8 bf        	<unknown>
10013250: 48 3f        	<unknown>
10013252: f5 3e        	<unknown>
10013254: fb 3e a8 bf 9d 3e a7 3f      	<unknown>
1001325c: 1c bf        	<unknown>
1001325e: ca bf        	<unknown>
10013260: 8c 3e        	<unknown>
10013262: 4f bf 0f 3d c0 3e fc 3e      	<unknown>
1001326a: 5e bf        	<unknown>
1001326c: ab 3f 58 bf e9 3f 37 be      	<unknown>
10013274: bb 3f 94 be 95 3d ea 3e      	<unknown>
1001327c: 28 3e        	<unknown>
1001327e: bb bf 84 3f 0e bf 5a be      	<unknown>
10013286: 76 3f        	<unknown>
10013288: cc be        	<unknown>
1001328a: 06 bf        	<unknown>
1001328c: 89 3e        	<unknown>
1001328e: 0c 3f        	<unknown>
10013290: bd be        	<unknown>
10013292: 57 3f 41 bd 12 3f 19 bf      	<unknown>
1001329a: c5 bc        	<unknown>
1001329c: b2 bd        	<unknown>
1001329e: 93 bf d8 3d 3b bf 18 bf      	<unknown>
100132a6: 48 bf        	<unknown>
100132a8: 06 3f        	<unknown>
100132aa: ab 3f 2a bf 36 bf 08 3f      	<unknown>
100132b2: a2 bf        	<unknown>
100132b4: 2b 40 8f 3e a6 bf 4a bf      	<unknown>
100132bc: 93 bf 8f 3f bd be 53 bf      	<unknown>
100132c4: f9 3e        	<unknown>
100132c6: 11 40        	<unknown>
100132c8: ef bf 53 3f 68 3f b3 3e      	<unknown>
100132d0: 85 3f        	<unknown>
100132d2: e5 bf        	<unknown>
100132d4: f9 3e        	<unknown>
100132d6: c5 bf        	<unknown>
100132d8: d4 be        	<unknown>
100132da: 53 bf 0a 3f c8 3f 67 bf      	<unknown>
100132e2: 0c 40        	<unknown>
100132e4: 4e 3f        	<unknown>
100132e6: 5c 3f        	<unknown>
100132e8: 8d be        	<unknown>
100132ea: f3 3f 28 3e ee bf d8 3e      	<unknown>
100132f2: 2a 3f        	<unknown>
100132f4: 41 bf        	<unknown>
100132f6: a0 bf        	<unknown>
100132f8: d4 be        	<unknown>
100132fa: 14 40        	<unknown>
100132fc: 44 3e        	<unknown>
100132fe: 57 3f ff 3d bf bf 39 bc      	<unknown>
10013306: 94 bf        	<unknown>
10013308: a2 bf        	<unknown>
1001330a: 93 bd 86 bf 5f 3e 9b 3f      	<unknown>
10013312: 85 3e        	<unknown>
10013314: e8 be        	<unknown>
10013316: 00 c0        	<unknown>
10013318: 61 bf        	<unknown>
1001331a: 3e be        	<unknown>
1001331c: 81 3f        	<unknown>
1001331e: ba 3f        	<unknown>
10013320: 24 40        	<unknown>
10013322: 57 3f b0 3e ef be d7 be      	<unknown>
1001332a: 26 be        	<unknown>
1001332c: bb bf 92 3f d1 be a5 bd      	<unknown>
10013334: 85 3f        	<unknown>
10013336: be bf        	<unknown>
10013338: ea be        	<unknown>
1001333a: 2f 3e 8b bf 20 bf a9 be      	<unknown>
10013342: 43 3f 07 bf 5c 3f 8d 3e      	<unknown>
1001334a: f3 bf 82 3f cc bf c3 bf      	<unknown>
10013352: 43 3e f3 be ae be 87 bf      	<unknown>
1001335a: ca 3e        	<unknown>
1001335c: 55 3f        	<unknown>
1001335e: f8 be        	<unknown>
10013360: e3 3e a8 39 78 3e 3a be      	<unknown>
10013368: 35 bf        	<unknown>
1001336a: 09 3f        	<unknown>
1001336c: 38 bf        	<unknown>
1001336e: b6 3f        	<unknown>
10013370: 81 3f        	<unknown>
10013372: 29 3f        	<unknown>
10013374: 90 bd        	<unknown>
10013376: a7 3d b7 be 20 be 12 c0      	<unknown>
1001337e: 86 3f        	<unknown>
10013380: cc 3e        	<unknown>
10013382: a9 3f        	<unknown>
10013384: 7f be be be 19 3f 51 bd      	<unknown>
1001338c: 9f 3f 26 3e 9a bf 86 3e      	<unknown>
10013394: 80 bf        	<unknown>
10013396: aa 3d        	<unknown>
10013398: 10 bf        	<unknown>
1001339a: 3a 3f        	<unknown>
1001339c: 3d 3e        	<unknown>
1001339e: e3 be df be 14 3f 8b 3e      	<unknown>
100133a6: 2c 3f        	<unknown>
100133a8: 1c c0        	<unknown>
100133aa: 82 bf        	<unknown>
100133ac: ac 3f        	<unknown>
100133ae: 60 be        	<unknown>
100133b0: 41 3f        	<unknown>
100133b2: 14 bf        	<unknown>
100133b4: 82 be        	<unknown>
100133b6: e0 3f        	<unknown>
100133b8: 60 3f        	<unknown>
100133ba: a2 bd        	<unknown>
100133bc: 8d bf        	<unknown>
100133be: 82 3e        	<unknown>
100133c0: 90 bf        	<unknown>
100133c2: 99 3e        	<unknown>
100133c4: 75 3d        	<unknown>
100133c6: 01 c0        	<unknown>
100133c8: 46 3f        	<unknown>
100133ca: cd 3d        	<unknown>
100133cc: 5b bf 83 be b3 bd 99 be      	<unknown>
100133d4: af 3e 53 bf 19 bf 7f bf      	<unknown>
100133dc: 35 3e        	<unknown>
100133de: 50 bf        	<unknown>
100133e0: 02 3f        	<unknown>
100133e2: dd bf        	<unknown>
100133e4: c0 bd        	<unknown>
100133e6: 20 bf        	<unknown>
100133e8: 2b 3e 63 be 2c bf 87 3f      	<unknown>
100133f0: 72 3f        	<unknown>
100133f2: 86 bf        	<unknown>
100133f4: de be        	<unknown>
100133f6: 7a 3f        	<unknown>
100133f8: 86 be        	<unknown>
100133fa: bf 3e b4 3f 34 3f 2c 40      	<unknown>
10013402: 5c 3d        	<unknown>
10013404: 49 3f        	<unknown>
10013406: 63 3d 6f bf 61 bf 97 3e      	<unknown>
1001340e: 3b bf 00 00 10 40 9b 3e      	<unknown>
10013416: 96 3f        	<unknown>
10013418: c5 3e        	<unknown>
1001341a: 18 3f        	<unknown>
1001341c: 1a bd        	<unknown>
1001341e: 84 3f        	<unknown>
10013420: 9d 3f        	<unknown>
10013422: 10 bf        	<unknown>
10013424: 96 3e        	<unknown>
10013426: 38 3f        	<unknown>
10013428: 8c 3f        	<unknown>
1001342a: 6d 3f        	<unknown>
1001342c: 9f be 93 bf 31 3f 5a 3f      	<unknown>
10013434: 62 bf        	<unknown>
10013436: 40 3f        	<unknown>
10013438: 1a bf        	<unknown>
1001343a: 55 3e        	<unknown>
1001343c: 1f bf ab bf 17 3d aa 3e      	<unknown>
10013444: d6 3f        	<unknown>
10013446: dd be        	<unknown>
10013448: 85 bf        	<unknown>
1001344a: b4 3f        	<unknown>
1001344c: 38 bf        	<unknown>
1001344e: 1e 3e        	<unknown>
10013450: 7b bf e6 3e 6b bf 70 bf      	<unknown>
10013458: 01 bd        	<unknown>
1001345a: 55 bf        	<unknown>
1001345c: 56 3f        	<unknown>
1001345e: 83 3f fe 3f 30 3f d8 bd      	<unknown>
10013466: 6a bf        	<unknown>
10013468: 25 bf        	<unknown>
1001346a: 85 bf        	<unknown>
1001346c: 05 3f        	<unknown>
1001346e: 1f bf b0 3e c1 be c0 3f      	<unknown>
10013476: 06 3e        	<unknown>
10013478: 69 bf        	<unknown>
1001347a: 38 be        	<unknown>
1001347c: 8e 3e        	<unknown>
1001347e: 70 3f        	<unknown>
10013480: 7f bf 6f be c8 3e ab 3f      	<unknown>
10013488: 63 bf a7 bc 0b 3d 0d 3e      	<unknown>
10013490: 66 bf        	<unknown>
10013492: f0 be        	<unknown>
10013494: bf bf a0 bf 3a bf 52 bf      	<unknown>
1001349c: f5 3e        	<unknown>
1001349e: 57 bf af 3f d5 bf 6c 3f      	<unknown>
100134a6: c9 3f        	<unknown>
100134a8: ed be        	<unknown>
100134aa: 43 3f b4 be 97 bf 06 3f      	<unknown>
100134b2: e7 be fc 3f 86 3f 79 3f      	<unknown>
100134ba: 8e bf        	<unknown>
100134bc: 0d 3f        	<unknown>
100134be: 88 3f        	<unknown>
100134c0: 40 3e        	<unknown>
100134c2: 56 bf        	<unknown>
100134c4: 06 40        	<unknown>
100134c6: fb bd 84 3f 25 bf df 3c      	<unknown>
100134ce: 5f bf 8a bd 31 3e c3 bf      	<unknown>
100134d6: fc be        	<unknown>
100134d8: 99 be        	<unknown>
100134da: bb 3f 13 3f 4a 3f ce 3d      	<unknown>
100134e2: 95 3f        	<unknown>
100134e4: b1 3e        	<unknown>
100134e6: 7a 3f        	<unknown>
100134e8: af 3f 0b 3f 99 bf 97 3f      	<unknown>
100134f0: ba bf        	<unknown>
100134f2: 31 3e        	<unknown>
100134f4: 3d 3e        	<unknown>
100134f6: 7a 3e        	<unknown>
100134f8: 09 3d        	<unknown>
100134fa: 46 3f        	<unknown>
100134fc: 55 3e        	<unknown>
100134fe: 2a 3f        	<unknown>
10013500: 3a be        	<unknown>
10013502: 9b 3f 98 be 86 3f df 3e      	<unknown>
1001350a: 04 c0        	<unknown>
1001350c: d1 3f        	<unknown>
1001350e: 1c 40        	<unknown>
10013510: e5 3f        	<unknown>
10013512: 45 bf        	<unknown>
10013514: 97 39 98 bf 02 be ca 3f      	<unknown>
1001351c: fb bf 0c 3f e5 be ce 3f      	<unknown>
10013524: d1 3f        	<unknown>
10013526: 94 3e        	<unknown>
10013528: 2d 3f        	<unknown>
1001352a: ce be        	<unknown>
1001352c: 64 3f        	<unknown>
1001352e: 3a bf        	<unknown>
10013530: 8b 3f 63 bf 85 be 45 3e      	<unknown>
10013538: dc bd        	<unknown>
1001353a: 07 bf 25 bf a1 bf a6 3d      	<unknown>
10013542: a1 be        	<unknown>
10013544: c6 3f        	<unknown>
10013546: cf 3e 42 3e b1 3f 8e 3f      	<unknown>
1001354e: d4 be        	<unknown>
10013550: ba 3e        	<unknown>
10013552: 07 3f 7c be 5c bc 42 be      	<unknown>
1001355a: 0c 3e        	<unknown>
1001355c: 06 3f        	<unknown>
1001355e: 55 3f        	<unknown>
10013560: 1d 3f        	<unknown>
10013562: 7c 3f        	<unknown>
10013564: 56 bf        	<unknown>
10013566: 77 bf 6f bf d2 3f 7e bf      	<unknown>
1001356e: 75 3f        	<unknown>
10013570: ba 3d        	<unknown>
10013572: 43 bf f3 3e 3e 3f 02 c0      	<unknown>
1001357a: 18 c0        	<unknown>
1001357c: ec be        	<unknown>
1001357e: bc 3e        	<unknown>
10013580: 6e bf        	<unknown>
10013582: e2 3f        	<unknown>
10013584: f4 bf        	<unknown>
10013586: 11 be        	<unknown>
10013588: a6 3e        	<unknown>
1001358a: 02 be        	<unknown>
1001358c: ce 3f        	<unknown>
1001358e: 32 bf        	<unknown>
10013590: 0d c0        	<unknown>
10013592: 63 3f ab 3f 0f be 97 3f      	<unknown>
1001359a: a0 3f        	<unknown>
1001359c: d5 bd        	<unknown>
1001359e: ff bf f3 be 35 bf 1a bf      	<unknown>
100135a6: 9d 3f        	<unknown>
100135a8: a8 bf        	<unknown>
100135aa: 58 bf        	<unknown>
100135ac: 1c 3e        	<unknown>
100135ae: c1 3e        	<unknown>
100135b0: ba 3e        	<unknown>
100135b2: 5c be        	<unknown>
100135b4: a3 3e 9d 3f 55 3f 56 3f      	<unknown>
100135bc: 0d c0        	<unknown>
100135be: 5b 3e f1 3e 18 3f b7 3e      	<unknown>
100135c6: 26 3d        	<unknown>
100135c8: e6 bf        	<unknown>
100135ca: 73 bf 91 3e f1 bf a4 bf      	<unknown>
100135d2: 37 bf 25 bf 17 3e de 3f      	<unknown>
100135da: 14 bf        	<unknown>
100135dc: 07 3f 7d bf 05 3f 6e 3e      	<unknown>
100135e4: d5 3f        	<unknown>
100135e6: 1b 3f 04 3f 9e 3e 40 bd      	<unknown>
100135ee: f8 bd        	<unknown>
100135f0: 8e 3f        	<unknown>
100135f2: d7 be 19 bf d4 bf 33 3f      	<unknown>
100135fa: f3 bc 03 40 b0 bf 83 bf      	<unknown>
10013602: d0 bf        	<unknown>
10013604: 0b 3f 8b 3e 7e 3f 5f bf      	<unknown>
1001360c: 95 bf        	<unknown>
1001360e: 5e 3f        	<unknown>
10013610: d7 be fe 3e 22 be db 3e      	<unknown>
10013618: 2d c0        	<unknown>
1001361a: b0 3e        	<unknown>
1001361c: 90 3f        	<unknown>
1001361e: 81 3f        	<unknown>
10013620: e5 bf        	<unknown>
10013622: 9c be        	<unknown>
10013624: 89 bf        	<unknown>
10013626: 76 3e        	<unknown>
10013628: 4a bf        	<unknown>
1001362a: b4 3f        	<unknown>
1001362c: 9e bf        	<unknown>
1001362e: eb 3e af 3d 8a bf 0a 40      	<unknown>
10013636: b0 3f        	<unknown>
10013638: 80 3d        	<unknown>
1001363a: 90 3e        	<unknown>
1001363c: cc be        	<unknown>
1001363e: d7 3f 7f 3e 14 3f bc bf      	<unknown>
10013646: d3 3f a4 3f e1 bf a5 3f      	<unknown>
1001364e: 5e 3e        	<unknown>
10013650: 17 3d 4b bf 9c 3e e9 3e      	<unknown>
10013658: 51 be        	<unknown>
1001365a: 35 c0        	<unknown>
1001365c: fe bd        	<unknown>
1001365e: 3c bf        	<unknown>
10013660: 02 40        	<unknown>
10013662: dd bd        	<unknown>
10013664: c3 3e 89 bf 0c be 09 bf      	<unknown>
1001366c: 87 3e 06 3e a6 be 9d bf      	<unknown>
10013674: 5f bf 32 40 6b 3f 05 3f      	<unknown>
1001367c: 95 3e        	<unknown>
1001367e: 49 3e        	<unknown>
10013680: a1 3d        	<unknown>
10013682: d8 39        	<unknown>
10013684: 6b be 17 be 30 3f bb bd      	<unknown>
1001368c: c7 3e 6d be 24 bd 5a 3f      	<unknown>
10013694: a9 3f        	<unknown>
10013696: 7a bf        	<unknown>
10013698: c8 3f        	<unknown>
1001369a: fc 3f        	<unknown>
1001369c: 26 3f        	<unknown>
1001369e: de 3e        	<unknown>
100136a0: 3d 3f        	<unknown>
100136a2: 5c bc        	<unknown>
100136a4: ea bf        	<unknown>
100136a6: b0 3d        	<unknown>
100136a8: e8 3e        	<unknown>
100136aa: 58 bf        	<unknown>
100136ac: 0c bf        	<unknown>
100136ae: fc 3f        	<unknown>
100136b0: 1b 3f 1c be 8e bf 5b bf      	<unknown>
100136b8: 43 bf d1 bc a6 bf 6d bf      	<unknown>
100136c0: 75 bf        	<unknown>
100136c2: ce bf        	<unknown>
100136c4: 8e 3e        	<unknown>
100136c6: a3 3f a2 bd 66 3f 06 3e      	<unknown>
100136ce: 1c 3d        	<unknown>
100136d0: 85 bf        	<unknown>
100136d2: e2 3e        	<unknown>
100136d4: 56 3f        	<unknown>
100136d6: d0 3f        	<unknown>
100136d8: 22 3f        	<unknown>
100136da: 15 40        	<unknown>
100136dc: 7e bf        	<unknown>
100136de: c2 be        	<unknown>
100136e0: aa bf        	<unknown>
100136e2: e6 be        	<unknown>
100136e4: c7 3b 8c be c4 be 50 bf      	<unknown>
100136ec: d6 3e        	<unknown>
100136ee: f1 3e        	<unknown>
100136f0: 41 3f        	<unknown>
100136f2: d0 3e        	<unknown>
100136f4: b4 bd        	<unknown>
100136f6: 8e bd        	<unknown>
100136f8: af 3d 19 bd 4b 3e e7 3e      	<unknown>
10013700: b9 3e        	<unknown>
10013702: eb 3f c4 3e 0e 3f 31 3f      	<unknown>
1001370a: 1e bd        	<unknown>
1001370c: 9e be        	<unknown>
1001370e: f0 3d        	<unknown>
10013710: d0 be        	<unknown>
10013712: 3a bf        	<unknown>
10013714: 05 3f        	<unknown>
10013716: 90 be        	<unknown>
10013718: 3b bf 48 3e 3b bf 37 bf      	<unknown>
10013720: e2 bf        	<unknown>
10013722: 50 be        	<unknown>
10013724: ad 3e        	<unknown>
10013726: b0 bf        	<unknown>
10013728: a4 bf        	<unknown>
1001372a: 24 3e        	<unknown>
1001372c: c2 3e        	<unknown>
1001372e: 1c bf        	<unknown>
10013730: c9 3e        	<unknown>
10013732: 96 3f        	<unknown>
10013734: 73 3e 74 bf 86 be 6a 3f      	<unknown>
1001373c: a4 bf        	<unknown>
1001373e: 5c 3f        	<unknown>
10013740: ef bf 42 3d 17 c0 4e bf      	<unknown>
10013748: 73 3f 3e bf a5 3f 9c 3f      	<unknown>
10013750: 45 3f        	<unknown>
10013752: 5a 3e        	<unknown>
10013754: 43 3f 0f bf 8d 3f cf bf      	<unknown>
1001375c: ed be        	<unknown>
1001375e: 5b 3f b0 bf 92 bf 74 3d      	<unknown>
10013766: 22 be        	<unknown>
10013768: f3 be 5e 3e 9e 3e 9b be      	<unknown>
10013770: f1 3f        	<unknown>
10013772: 6f bf cb bf c7 3f c6 3f      	<unknown>
1001377a: 0b bf 13 3f 4a 3f 00 40      	<unknown>
10013782: 67 3f 51 40 46 bf 1d bf      	<unknown>
1001378a: ad 3e        	<unknown>
1001378c: 4f 3f 3e bf e5 3e ce 3e      	<unknown>
10013794: 26 3f        	<unknown>
10013796: b9 3e        	<unknown>
10013798: 93 3f 73 3e 93 3f 94 3f      	<unknown>
100137a0: 3e 3e        	<unknown>
100137a2: 6a bf        	<unknown>
100137a4: 0b 3f 47 bf 8d be a8 bf      	<unknown>
100137ac: cc 3f        	<unknown>
100137ae: ed bf        	<unknown>
100137b0: 96 bd        	<unknown>
100137b2: 2f 3f e4 3e 4a be e3 be      	<unknown>
100137ba: 2b 3f a8 bf 0e 40 d3 3d      	<unknown>
100137c2: 28 bf        	<unknown>
100137c4: 85 3e        	<unknown>
100137c6: ea 3e        	<unknown>
100137c8: 4a bf        	<unknown>
100137ca: 86 bf        	<unknown>
100137cc: 18 bf        	<unknown>
100137ce: bc be        	<unknown>
100137d0: 45 3e        	<unknown>
100137d2: c1 3d        	<unknown>
100137d4: 44 3e        	<unknown>
100137d6: 98 3f        	<unknown>
100137d8: 7b bd 8e bf 26 3f c7 be      	<unknown>
100137e0: d9 be        	<unknown>
100137e2: 94 3f        	<unknown>
100137e4: 17 3e 3b 3f 79 bf 45 bf      	<unknown>
100137ec: 96 3e        	<unknown>
100137ee: 80 be        	<unknown>
100137f0: f4 3f        	<unknown>
100137f2: 82 bf        	<unknown>
100137f4: b8 3f        	<unknown>
100137f6: b7 3f fa bf b0 be 8f bf      	<unknown>
100137fe: b5 3e        	<unknown>
10013800: 48 3f        	<unknown>
10013802: e8 3e        	<unknown>
10013804: 66 3f        	<unknown>
10013806: ec bf        	<unknown>
10013808: 78 bf        	<unknown>
1001380a: 28 3f        	<unknown>
1001380c: e3 bf 78 3e 3b bf 29 bf      	<unknown>
10013814: 32 bf        	<unknown>
10013816: fa 3f        	<unknown>
10013818: df 3e 7b 3f ae 3f 17 3f      	<unknown>
10013820: 35 bf        	<unknown>
10013822: af bf 0e 3f 46 bf df 3e      	<unknown>
1001382a: 3c bd        	<unknown>
1001382c: 8d be        	<unknown>
1001382e: 72 3f        	<unknown>
10013830: c6 bf        	<unknown>
10013832: f7 3f 1c 3e 09 be c0 3e      	<unknown>
1001383a: 5a be        	<unknown>
1001383c: 1a bf        	<unknown>
1001383e: 9f 3e fe be 13 3f ae bd      	<unknown>
10013846: 89 bf        	<unknown>
10013848: ba bf        	<unknown>
1001384a: 9d 3f        	<unknown>
1001384c: dc bf        	<unknown>
1001384e: 33 3d d0 3f 56 bf c4 3e      	<unknown>
10013856: 39 3f        	<unknown>
10013858: 39 be        	<unknown>
1001385a: a3 bd 99 3e ea 3f 18 40      	<unknown>
10013862: cb bd 1e 3f b9 3f 24 3f      	<unknown>
1001386a: b8 3d        	<unknown>
1001386c: 93 be 34 3f 08 bf 0b bf      	<unknown>
10013874: dc 3d        	<unknown>
10013876: a3 bf 69 3f a6 bf 33 3f      	<unknown>
1001387e: 0b bf e5 be dc bf 6c bf      	<unknown>
10013886: 58 3e        	<unknown>
10013888: 50 3f        	<unknown>
1001388a: 5f bf 05 c0 85 3f 94 bf      	<unknown>
10013892: 1e 3f        	<unknown>
10013894: dd 3f        	<unknown>
10013896: 07 bf 3a 3e fb bd c3 bd      	<unknown>
1001389e: d0 bf        	<unknown>
100138a0: 32 bf        	<unknown>
100138a2: c5 bf        	<unknown>
100138a4: 38 3f        	<unknown>
100138a6: c5 bf        	<unknown>
100138a8: 89 bf        	<unknown>
100138aa: c6 3f        	<unknown>
100138ac: 22 3d        	<unknown>
100138ae: 09 3f        	<unknown>
100138b0: 7e be        	<unknown>
100138b2: 45 be        	<unknown>
100138b4: b9 3e        	<unknown>
100138b6: 38 3f        	<unknown>
100138b8: 74 3e        	<unknown>
100138ba: 86 bf        	<unknown>
100138bc: 87 bf 58 be 9f be e0 3f      	<unknown>
100138c4: c7 bf ac 3f f1 3e 7f bf      	<unknown>
100138cc: 28 bf        	<unknown>
100138ce: f8 be        	<unknown>
100138d0: b9 bf        	<unknown>
100138d2: af 3f 6a 3f 00 00 56 3e      	<unknown>
100138da: 12 3e        	<unknown>
100138dc: e3 3e b9 3e 46 bd c5 3e      	<unknown>
100138e4: 07 bf 9f 3f cb bf 54 3f      	<unknown>
100138ec: 5e 3e        	<unknown>
100138ee: c2 3e        	<unknown>
100138f0: 5c bf        	<unknown>
100138f2: a7 bf 2c 3f 04 3f 12 3f      	<unknown>
100138fa: d5 3e        	<unknown>
100138fc: 03 be c4 3f c3 bf 9f be      	<unknown>
10013904: c6 3e        	<unknown>
10013906: da bc        	<unknown>
10013908: ed be        	<unknown>
1001390a: ff 3f d2 3f 86 bf ed be      	<unknown>
10013912: 8c bf        	<unknown>
10013914: 87 bf 89 bf 86 3f 5c bf      	<unknown>
1001391c: 26 3e        	<unknown>
1001391e: 28 bf        	<unknown>
10013920: 95 3f        	<unknown>
10013922: f7 be f0 3e f2 be 38 3e      	<unknown>
1001392a: d6 be        	<unknown>
1001392c: 80 3d        	<unknown>
1001392e: 37 bf 07 c0 65 bf 0b 3f      	<unknown>
10013936: a9 3f        	<unknown>
10013938: af 3d 57 bf a2 3e 23 3e      	<unknown>
10013940: e3 3e 0d 3f cb be 8d 3a      	<unknown>
10013948: a7 bf 01 bf 4c 3e 5b bf      	<unknown>
10013950: 0a 3f        	<unknown>
10013952: 29 bf        	<unknown>
10013954: cb bf 0e 40 45 3f 0d 3f      	<unknown>
1001395c: 99 3e        	<unknown>
1001395e: 13 3f be 3f 6e 3f f3 be      	<unknown>
10013966: ac 3f        	<unknown>
10013968: 94 3f        	<unknown>
1001396a: c4 3d        	<unknown>
1001396c: 02 bf        	<unknown>
1001396e: 09 bf        	<unknown>
10013970: 61 3e        	<unknown>
10013972: 52 bf        	<unknown>
10013974: 26 c0        	<unknown>
10013976: 37 bd 16 bf 23 c0 05 3e      	<unknown>
1001397e: 78 3e        	<unknown>
10013980: b3 be 80 3f b5 be 88 3f      	<unknown>
10013988: 23 bf 40 3f 57 be d0 be      	<unknown>
10013990: 4b 3f 75 3f 3e c0 52 be      	<unknown>
10013998: b8 be        	<unknown>
1001399a: 40 bf        	<unknown>
1001399c: 19 c0        	<unknown>
1001399e: 23 3f 64 3f fd be 7f be      	<unknown>
100139a6: 9d bf        	<unknown>
100139a8: 0d be        	<unknown>
100139aa: 57 3e 42 bf 85 be 0e c0      	<unknown>
100139b2: c8 bf        	<unknown>
100139b4: 90 3f        	<unknown>
100139b6: 1f bf fb 3f 57 3e a0 3e      	<unknown>
100139be: 95 3f        	<unknown>
100139c0: 6a bf        	<unknown>
100139c2: c8 bf        	<unknown>
100139c4: 23 be ce 3e dc 3f 20 3f      	<unknown>
100139cc: 52 3e        	<unknown>
100139ce: f6 3f        	<unknown>
100139d0: f5 be        	<unknown>
100139d2: c1 3f        	<unknown>
100139d4: 98 3e        	<unknown>
100139d6: 16 bf        	<unknown>
100139d8: 9f bf df 3d 31 bf ff bd      	<unknown>
100139e0: ed 3e        	<unknown>
100139e2: ac bf        	<unknown>
100139e4: 0d c0        	<unknown>
100139e6: 34 bc        	<unknown>
100139e8: af 3f 79 be 10 3f 10 bf      	<unknown>
100139f0: 94 bf        	<unknown>
100139f2: 8d bf        	<unknown>
100139f4: 84 3f        	<unknown>
100139f6: b4 3d        	<unknown>
100139f8: b7 3f 19 40 43 3f 5c 3d      	<unknown>
10013a00: 83 3f f9 3e 78 3e 4e c0      	<unknown>
10013a08: b1 bf        	<unknown>
10013a0a: a1 3f        	<unknown>
10013a0c: 0e c0        	<unknown>
10013a0e: e3 bd 36 3e cc 3e 13 3e      	<unknown>
10013a16: 52 bf        	<unknown>
10013a18: 30 be        	<unknown>
10013a1a: bc be        	<unknown>
10013a1c: 35 3e        	<unknown>
10013a1e: fd bf        	<unknown>
10013a20: 56 bf        	<unknown>
10013a22: 45 bf        	<unknown>
10013a24: 10 be        	<unknown>
10013a26: 48 3f        	<unknown>
10013a28: 5e 3e        	<unknown>
10013a2a: 41 bf        	<unknown>
10013a2c: 2d 3d        	<unknown>
10013a2e: 32 bf        	<unknown>
10013a30: 31 3e        	<unknown>
10013a32: 93 bd 00 40 dc be ab bc      	<unknown>
10013a3a: ae 3e        	<unknown>
10013a3c: 1c bf        	<unknown>
10013a3e: 56 3f        	<unknown>
10013a40: 5c bf        	<unknown>
10013a42: 0c 3f        	<unknown>
10013a44: 88 3f        	<unknown>
10013a46: a5 bf        	<unknown>
10013a48: 40 3f        	<unknown>
10013a4a: 70 3e        	<unknown>
10013a4c: 0b 3f c0 bf e0 3d 2a 3f      	<unknown>
10013a54: e1 3e        	<unknown>
10013a56: 3d 3e        	<unknown>
10013a58: 97 be 4b bf f0 3e 4b 3f      	<unknown>
10013a60: 6f 3e 9c bf 83 3f f5 be      	<unknown>
10013a68: 6e 3f        	<unknown>
10013a6a: be 3f        	<unknown>
10013a6c: 2c 3f        	<unknown>
10013a6e: d6 bd        	<unknown>
10013a70: b6 bf        	<unknown>
10013a72: 69 3f        	<unknown>
10013a74: dc bf        	<unknown>
10013a76: 54 bf        	<unknown>
10013a78: e2 3e        	<unknown>
10013a7a: 71 3f        	<unknown>
10013a7c: d7 bf aa be 47 be 31 bf      	<unknown>
10013a84: e4 bd        	<unknown>
10013a86: 8c bf        	<unknown>
10013a88: 91 3f        	<unknown>
10013a8a: 06 bf        	<unknown>
10013a8c: a5 3f        	<unknown>
10013a8e: cb 3f d1 bf f8 3d 40 3e      	<unknown>
10013a96: 7c bf        	<unknown>
10013a98: 84 3f        	<unknown>
10013a9a: 68 bf        	<unknown>
10013a9c: 6f bf cb 3e 31 bf 01 3f      	<unknown>
10013aa4: 16 3f        	<unknown>
10013aa6: 56 bf        	<unknown>
10013aa8: 38 3f        	<unknown>
10013aaa: 9b be 14 3f 5a 3f 54 3f      	<unknown>
10013ab2: 45 c0        	<unknown>
10013ab4: b2 be        	<unknown>
10013ab6: ba 3f        	<unknown>
10013ab8: 38 3f        	<unknown>
10013aba: 59 3f        	<unknown>
10013abc: bc be        	<unknown>
10013abe: 9e bf        	<unknown>
10013ac0: 9f 3f 8f 3e b3 3f 80 3e      	<unknown>
10013ac8: 00 3f        	<unknown>
10013aca: 42 3d        	<unknown>
10013acc: fd bf        	<unknown>
10013ace: 7e bf        	<unknown>
10013ad0: 6a 3f        	<unknown>
10013ad2: 0d 3d        	<unknown>
10013ad4: 00 bf        	<unknown>
10013ad6: c6 bc        	<unknown>
10013ad8: c2 3f        	<unknown>
10013ada: a1 bf        	<unknown>
10013adc: b0 bf        	<unknown>
10013ade: a3 3f bf be 6d 3f 7f bf      	<unknown>
10013ae6: 31 bf        	<unknown>
10013ae8: 51 3f        	<unknown>
10013aea: ca bf        	<unknown>
10013aec: 20 40        	<unknown>
10013aee: ac 3f        	<unknown>
10013af0: cf be f1 be e6 3e 61 3d      	<unknown>
10013af8: 3d 3f        	<unknown>
10013afa: 8d 3e        	<unknown>
10013afc: aa bd        	<unknown>
10013afe: 4b bf 01 3d 7b be 16 40      	<unknown>
10013b06: 8a bf        	<unknown>
10013b08: 35 3f        	<unknown>
10013b0a: 63 3e 37 3e 7f 3e 57 bf      	<unknown>
10013b12: d3 3f 46 3f 3b bf a1 3e      	<unknown>
10013b1a: 4f 3f ee 3e b5 3e c1 3f      	<unknown>
10013b22: 7d bf        	<unknown>
10013b24: 4e bd        	<unknown>
10013b26: 3c 3c        	<unknown>
10013b28: 5b 3e 8f 3f b5 3f b4 3f      	<unknown>
10013b30: c1 3e        	<unknown>
10013b32: 57 3f 8b 3f f6 3e 51 bf      	<unknown>
10013b3a: d0 bf        	<unknown>
10013b3c: 08 40        	<unknown>
10013b3e: 01 bf        	<unknown>
10013b40: 94 bf        	<unknown>
10013b42: 0e 3f        	<unknown>
10013b44: 65 bf        	<unknown>
10013b46: ab 3e 6d 3f 11 3f e3 3c      	<unknown>
10013b4e: ea 3f        	<unknown>
10013b50: 93 3a 97 3f 2b 3f a3 bf      	<unknown>
10013b58: 90 3e        	<unknown>
10013b5a: b4 bf        	<unknown>
10013b5c: 94 3f        	<unknown>
10013b5e: 5c bf        	<unknown>
10013b60: 5c 3f        	<unknown>
10013b62: 08 40        	<unknown>
10013b64: 91 bf        	<unknown>
10013b66: 25 3f        	<unknown>
10013b68: b3 be 6d bf e5 3e e1 be      	<unknown>
10013b70: 1b 3f 52 3f b4 bf cd bf      	<unknown>
10013b78: 36 3e        	<unknown>
10013b7a: 06 3f        	<unknown>
10013b7c: 1d bf        	<unknown>
10013b7e: 35 bf        	<unknown>
10013b80: 6b 3f 86 3d 6b be 21 be      	<unknown>
10013b88: 04 40        	<unknown>
10013b8a: 89 3f        	<unknown>
10013b8c: e7 3f 6f 3f 38 3f 05 3f      	<unknown>
10013b94: 52 3f        	<unknown>
10013b96: 1a be        	<unknown>
10013b98: 1d 3e        	<unknown>
10013b9a: 72 bf        	<unknown>
10013b9c: 18 3f        	<unknown>
10013b9e: 7d bf        	<unknown>
10013ba0: 4c 3e        	<unknown>
10013ba2: 9a bc        	<unknown>
10013ba4: 0d 3a        	<unknown>
10013ba6: db 3e 73 3f 84 3f a0 be      	<unknown>
10013bae: dd 3c        	<unknown>
10013bb0: 8a 3e        	<unknown>
10013bb2: 41 bf        	<unknown>
10013bb4: 8e 3f        	<unknown>
10013bb6: db 3e 63 bf 33 bf 8d bf      	<unknown>
10013bbe: 38 bf        	<unknown>
10013bc0: a9 3f        	<unknown>
10013bc2: 53 3f 2a be a7 3e 11 40      	<unknown>
10013bca: bc bd        	<unknown>
10013bcc: 64 bf        	<unknown>
10013bce: 85 bf        	<unknown>
10013bd0: f6 bf        	<unknown>
10013bd2: 53 3e d1 3f ff bf 50 3f      	<unknown>
10013bda: 45 bf        	<unknown>
10013bdc: 78 bf        	<unknown>
10013bde: 17 3f 63 3d 08 3f 60 bf      	<unknown>
10013be6: 2c bf        	<unknown>
10013be8: 90 3f        	<unknown>
10013bea: 8e 3e        	<unknown>
10013bec: e1 bf        	<unknown>
10013bee: 07 40 4d bf ac 3e fe 3f      	<unknown>
10013bf6: 3c 3f        	<unknown>
10013bf8: 2b 3f 35 bd 52 3f 20 3e      	<unknown>
10013c00: c7 be 04 3f 51 3e 5d bf      	<unknown>
10013c08: 9d 3f        	<unknown>
10013c0a: 34 3f        	<unknown>
10013c0c: e2 be        	<unknown>
10013c0e: 8f bd 8b 3f 8c 3e 17 be      	<unknown>
10013c16: 03 c0 f8 be bd bf b9 3f      	<unknown>
10013c1e: 4c bf        	<unknown>
10013c20: 8d 3f        	<unknown>
10013c22: 54 3f        	<unknown>
10013c24: 62 3f        	<unknown>
10013c26: b9 3f        	<unknown>
10013c28: d9 3f        	<unknown>
10013c2a: f4 3e        	<unknown>
10013c2c: 5f be e0 be 33 bf f1 3f      	<unknown>
10013c34: 79 3e        	<unknown>
10013c36: 2e bf        	<unknown>
10013c38: a8 bf        	<unknown>
10013c3a: 94 3f        	<unknown>
10013c3c: 20 bf        	<unknown>
10013c3e: 7e 3f        	<unknown>
10013c40: f8 bf        	<unknown>
10013c42: b3 bf 87 3e a4 be df bc      	<unknown>
10013c4a: 89 3e        	<unknown>
10013c4c: 1b bf a6 bf 7b bf 00 3f      	<unknown>
10013c54: b7 3e 26 3d 8c bf 27 3f      	<unknown>
10013c5c: 91 3f        	<unknown>
10013c5e: 4a bf        	<unknown>
10013c60: 12 bf        	<unknown>
10013c62: 00 bd        	<unknown>
10013c64: 5e 3e        	<unknown>
10013c66: c9 3f        	<unknown>
10013c68: 20 bf        	<unknown>
10013c6a: 99 3f        	<unknown>
10013c6c: 54 be        	<unknown>
10013c6e: 9d 3f        	<unknown>
10013c70: 02 3e        	<unknown>
10013c72: 0f bf 0b bf 6e bf ae bf      	<unknown>
10013c7a: 84 3f        	<unknown>
10013c7c: 6f 3f f8 3d 87 3f c7 be      	<unknown>
10013c84: c1 3d        	<unknown>
10013c86: 02 be        	<unknown>
10013c88: 72 bf        	<unknown>
10013c8a: f2 bf        	<unknown>
10013c8c: 25 bf        	<unknown>
10013c8e: c7 3e 14 bf ad be 5d be      	<unknown>
10013c96: a0 3f        	<unknown>
10013c98: f6 3e        	<unknown>
10013c9a: 1a 3e        	<unknown>
10013c9c: 84 bf        	<unknown>
10013c9e: e7 bd 93 bf 19 3f b7 bf      	<unknown>
10013ca6: 87 bf 35 3f 4f 3f 8e 3f      	<unknown>
10013cae: a5 bf        	<unknown>
10013cb0: 71 be        	<unknown>
10013cb2: a4 3f        	<unknown>
10013cb4: 95 bf        	<unknown>
10013cb6: 0f 3f 6f 3e 70 be 85 bf      	<unknown>
10013cbe: c7 3f ac bf 21 be 6c bf      	<unknown>
10013cc6: 94 3e        	<unknown>
10013cc8: 91 bd        	<unknown>
10013cca: 96 3d        	<unknown>
10013ccc: c6 3d        	<unknown>
10013cce: a2 be        	<unknown>
10013cd0: 00 be        	<unknown>
10013cd2: e5 bf        	<unknown>
10013cd4: 25 3e        	<unknown>
10013cd6: cb be 66 be fa bf a2 3d      	<unknown>
10013cde: de bf        	<unknown>
10013ce0: 74 bf        	<unknown>
10013ce2: 2a bd        	<unknown>
10013ce4: d2 be        	<unknown>
10013ce6: 97 3f 44 be 60 be c3 3f      	<unknown>
10013cee: 6a be        	<unknown>
10013cf0: bf 3f 65 3f d3 bf 89 3f      	<unknown>
10013cf8: 2e 40        	<unknown>
10013cfa: 82 3e        	<unknown>
10013cfc: 50 3f        	<unknown>
10013cfe: 6b bf 3a 3f 36 3e 05 3f      	<unknown>
10013d06: 27 c0 db 3c 27 40 42 3f      	<unknown>
10013d0e: ea 3f        	<unknown>
10013d10: eb be ad bf c8 bf 57 bf      	<unknown>
10013d18: 36 bf        	<unknown>
10013d1a: d5 be        	<unknown>
10013d1c: 0d bf        	<unknown>
10013d1e: 1a 3f        	<unknown>
10013d20: 46 be        	<unknown>
10013d22: 17 be 20 bf c8 bd c6 3f      	<unknown>
10013d2a: ce bd        	<unknown>
10013d2c: dc bd        	<unknown>
10013d2e: 6b 3f 32 3f ba 3f d0 bf      	<unknown>
10013d36: 07 40 10 c0 92 bf 9c bf      	<unknown>
10013d3e: 78 bf        	<unknown>
10013d40: 32 be        	<unknown>
10013d42: 03 3f 5a 3f 1b 3f 3d 3f      	<unknown>
10013d4a: 0c 3e        	<unknown>
10013d4c: 03 bf ae be 1f 3f b9 3e      	<unknown>
10013d54: 08 c0        	<unknown>
10013d56: 73 bf 2a 3e fe bf 63 bf      	<unknown>
10013d5e: fb 3f ba 3e 16 3f cb 3f      	<unknown>
10013d66: a3 3c 31 3f d0 3f ba bf      	<unknown>
10013d6e: 25 be        	<unknown>
10013d70: 8c 3f        	<unknown>
10013d72: f5 3f        	<unknown>
10013d74: e6 bf        	<unknown>
10013d76: 8f 3e 8b 3f e6 3e a7 bf      	<unknown>
10013d7e: 03 bf 90 3f 27 3f b3 be      	<unknown>
10013d86: ec bf        	<unknown>
10013d88: b5 3f        	<unknown>
10013d8a: a9 bf        	<unknown>
10013d8c: bd bc        	<unknown>
10013d8e: ba 3f        	<unknown>
10013d90: 8a 3f        	<unknown>
10013d92: df 3e bd 3e 31 c0 56 3e      	<unknown>
10013d9a: 2b 3e 81 3f 13 bf 9b bf      	<unknown>
10013da2: 8d 3f        	<unknown>
10013da4: b2 3f        	<unknown>
10013da6: 17 3e 43 bf 7a 3e d6 3c      	<unknown>
10013dae: 03 c0 6d 3d 8d 3f 27 bf      	<unknown>
10013db6: 27 3d 1f 40 c4 be 4a be      	<unknown>
10013dbe: 93 be 59 3f 9b bf 9b be      	<unknown>
10013dc6: 15 40        	<unknown>
10013dc8: a9 bf        	<unknown>
10013dca: bd 3f        	<unknown>
10013dcc: 14 3f        	<unknown>
10013dce: 22 bd        	<unknown>
10013dd0: 01 3e        	<unknown>
10013dd2: 87 bf 28 bf 24 3f 90 3f      	<unknown>
10013dda: 14 3d        	<unknown>
10013ddc: 8b 3f 34 bf 1e 3b 99 3f      	<unknown>
10013de4: ec 3e        	<unknown>
10013de6: 07 c0 1f be 3c 3f 83 3e      	<unknown>
10013dee: c1 bf        	<unknown>
10013df0: c3 be 6f 3f 45 40 ba be      	<unknown>
10013df8: 8a be        	<unknown>
10013dfa: 26 bf        	<unknown>
10013dfc: 24 bf        	<unknown>
10013dfe: 0b 3f 12 3f a9 bf c4 be      	<unknown>
10013e06: 3e 3f        	<unknown>
10013e08: 50 3f        	<unknown>
10013e0a: 20 bf        	<unknown>
10013e0c: 15 be        	<unknown>
10013e0e: ff 3d 12 bf 40 3f ab be      	<unknown>
10013e16: 8a bf        	<unknown>
10013e18: 21 bf        	<unknown>
10013e1a: 22 be        	<unknown>
10013e1c: d0 bd        	<unknown>
10013e1e: 44 bc        	<unknown>
10013e20: 5c bf        	<unknown>
10013e22: 09 3f        	<unknown>
10013e24: d9 3f        	<unknown>
10013e26: 0a 3f        	<unknown>
10013e28: 13 3f 87 bd 3c 3f 6b bf      	<unknown>
10013e30: 55 3f        	<unknown>
10013e32: 09 bf        	<unknown>
10013e34: ef 3e ed 3e 09 bf 29 c0      	<unknown>
10013e3c: e5 3f        	<unknown>
10013e3e: 48 3f        	<unknown>
10013e40: c9 3e        	<unknown>
10013e42: 37 40 8e bf 03 be 03 bf      	<unknown>
10013e4a: 9e bf        	<unknown>
10013e4c: 62 be        	<unknown>
10013e4e: f3 3d b1 be e9 be 92 3e      	<unknown>
10013e56: e9 be        	<unknown>
10013e58: 82 bd        	<unknown>
10013e5a: 5b be 60 3e c8 bd 1a 3f      	<unknown>
10013e62: b5 bf        	<unknown>
10013e64: 36 3f        	<unknown>
10013e66: b1 3f        	<unknown>
10013e68: c6 3f        	<unknown>
10013e6a: c3 be 05 3f 30 3e 2e bf      	<unknown>
10013e72: 9a 3f        	<unknown>
10013e74: 1d 3f        	<unknown>
10013e76: b8 bd        	<unknown>
10013e78: 6b 3f 34 bf a1 3f 25 be      	<unknown>
10013e80: 7e 3f        	<unknown>
10013e82: 7a bf        	<unknown>
10013e84: b8 bf        	<unknown>
10013e86: b5 3e        	<unknown>
10013e88: 65 3f        	<unknown>
10013e8a: 41 bf        	<unknown>
10013e8c: e5 bf        	<unknown>
10013e8e: ce be        	<unknown>
10013e90: e5 bf        	<unknown>
10013e92: 4d be        	<unknown>
10013e94: ee 3e        	<unknown>
10013e96: 08 3f        	<unknown>
10013e98: df bf 52 bf a0 3e 07 bf      	<unknown>
10013ea0: 72 be        	<unknown>
10013ea2: 8b 3f 29 3e 40 be 52 bf      	<unknown>
10013eaa: 5a bf        	<unknown>
10013eac: b0 3f        	<unknown>
10013eae: 01 c0        	<unknown>
10013eb0: d2 3e        	<unknown>
10013eb2: 14 bd        	<unknown>
10013eb4: 56 3f        	<unknown>
10013eb6: 07 3f f0 3d 00 3f 9e be      	<unknown>
10013ebe: 38 bf        	<unknown>
10013ec0: fe 3e        	<unknown>
10013ec2: e3 3e ac bf 76 be fa 3f      	<unknown>
10013eca: 5b be 79 bf 40 bf df be      	<unknown>
10013ed2: 82 bf        	<unknown>
10013ed4: c8 3f        	<unknown>
10013ed6: b9 be        	<unknown>
10013ed8: 76 3e        	<unknown>
10013eda: 7e bf        	<unknown>
10013edc: 59 bf        	<unknown>
10013ede: 92 3d        	<unknown>
10013ee0: e1 3f        	<unknown>
10013ee2: 9f be 9f 3e e4 be 36 be      	<unknown>
10013eea: c0 bf        	<unknown>
10013eec: f0 3d        	<unknown>
10013eee: ad bd        	<unknown>
10013ef0: 85 bf        	<unknown>
10013ef2: 0a 3f        	<unknown>
10013ef4: 20 3e        	<unknown>
10013ef6: 65 3f        	<unknown>
10013ef8: 22 40        	<unknown>
10013efa: 18 3f        	<unknown>
10013efc: cb be 61 3e 88 3f 17 be      	<unknown>
10013f04: a7 3f ce bf 77 3f 10 c0      	<unknown>
10013f0c: b7 bf e1 3d ae bf 25 3e      	<unknown>
10013f14: a0 3f        	<unknown>
10013f16: 05 3f        	<unknown>
10013f18: 67 bf c9 3f 68 3f c6 3f      	<unknown>
10013f20: 87 bf c5 bf af 3f a2 bf      	<unknown>
10013f28: 67 bf 34 3f cc be c1 3f      	<unknown>
10013f30: c1 3e        	<unknown>
10013f32: 8a 3e        	<unknown>
10013f34: 9d 3e        	<unknown>
10013f36: 85 be        	<unknown>
10013f38: a3 bf c6 be 56 3f c1 3e      	<unknown>
10013f40: e3 bd af 3f 0e 3f 18 3f      	<unknown>
10013f48: ee 3e        	<unknown>
10013f4a: d4 3f        	<unknown>
10013f4c: bc be        	<unknown>
10013f4e: 67 bf a1 bf 86 be 86 be      	<unknown>
10013f56: 44 bf        	<unknown>
10013f58: 57 bf f7 be 2e bf 94 3f      	<unknown>
10013f60: fc 3f        	<unknown>
10013f62: 4e c0        	<unknown>
10013f64: 02 bf        	<unknown>
10013f66: 48 bf        	<unknown>
10013f68: 03 bf c9 3f 8c 3f 2b be      	<unknown>
10013f70: 01 bf        	<unknown>
10013f72: 53 3f 93 be 77 bf bc bf      	<unknown>
10013f7a: 2e bf        	<unknown>
10013f7c: 16 3f        	<unknown>
10013f7e: 6a bf        	<unknown>
10013f80: d8 3e        	<unknown>
10013f82: ce 3e        	<unknown>
10013f84: f5 be        	<unknown>
10013f86: 9a 3f        	<unknown>
10013f88: a1 3f        	<unknown>
10013f8a: f8 3e        	<unknown>
10013f8c: e5 be        	<unknown>
10013f8e: d1 3e        	<unknown>
10013f90: 8c 3f        	<unknown>
10013f92: 6a 3f        	<unknown>
10013f94: c2 bf        	<unknown>
10013f96: 87 bf a5 be 9a bf 35 3e      	<unknown>
10013f9e: 8e bf        	<unknown>
10013fa0: 0a 3f        	<unknown>
10013fa2: cf 3c 62 3f 40 be 3a 3f      	<unknown>
10013faa: b0 3e        	<unknown>
10013fac: c8 be        	<unknown>
10013fae: b0 3f        	<unknown>
10013fb0: 94 3f        	<unknown>
10013fb2: 80 be        	<unknown>
10013fb4: b2 3f        	<unknown>
10013fb6: 89 bd        	<unknown>
10013fb8: 9a 3e        	<unknown>
10013fba: 00 bf        	<unknown>
10013fbc: b1 bf        	<unknown>
10013fbe: 82 3f        	<unknown>
10013fc0: 07 bd 85 3e 13 3f ab 3e      	<unknown>
10013fc8: e1 bd        	<unknown>
10013fca: 00 00        	<unknown>
10013fcc: 95 3e        	<unknown>
10013fce: d6 bd        	<unknown>
10013fd0: 36 3f        	<unknown>
10013fd2: 85 3d        	<unknown>
10013fd4: 96 be        	<unknown>
10013fd6: 55 bf        	<unknown>
10013fd8: 6c bf        	<unknown>
10013fda: 00 00        	<unknown>
10013fdc: e3 bf 98 bf 0a 40 3a 3f      	<unknown>
10013fe4: 94 be        	<unknown>
10013fe6: 9b 3f c6 bf b9 bf 58 3f      	<unknown>
10013fee: e9 3c        	<unknown>
10013ff0: 75 3f        	<unknown>
10013ff2: be bd        	<unknown>
10013ff4: 6a bf        	<unknown>
10013ff6: 26 3f        	<unknown>
10013ff8: fc 3f        	<unknown>
10013ffa: 2c bf        	<unknown>
10013ffc: 9b be 5d be be bf 1f 3f      	<unknown>

10014000 <B_raw>:
10014000: be bf        	<unknown>
10014002: 1f 3f b4 3d 73 3f 06 bf      	<unknown>
1001400a: 9f bf 07 3e 12 bf 92 3f      	<unknown>
10014012: 4e be        	<unknown>
10014014: 0e 3c        	<unknown>
10014016: 5c 3f        	<unknown>
10014018: 31 bf        	<unknown>
1001401a: 84 3e        	<unknown>
1001401c: 4e bf        	<unknown>
1001401e: 3d 3e        	<unknown>
10014020: bd bf        	<unknown>
10014022: 0c bd        	<unknown>
10014024: 11 3f        	<unknown>
10014026: f2 3b        	<unknown>
10014028: fa bd        	<unknown>
1001402a: 01 40        	<unknown>
1001402c: 0e bf        	<unknown>
1001402e: 3d bf        	<unknown>
10014030: cf 3e be 3f 3b bf 95 bf      	<unknown>
10014038: b2 bf        	<unknown>
1001403a: 00 00        	<unknown>
1001403c: 60 be        	<unknown>
1001403e: 3c 3a        	<unknown>
10014040: d3 bf 09 c0 9b be 83 bf      	<unknown>
10014048: bd bf        	<unknown>
1001404a: 12 3f        	<unknown>
1001404c: 83 bd e7 3f 9e bf 2f 3e      	<unknown>
10014054: b4 be        	<unknown>
10014056: e3 bf f1 3f 84 bf 3a bf      	<unknown>
1001405e: 68 3f        	<unknown>
10014060: e7 bf 93 bf 87 3f 2f 3e      	<unknown>
10014068: 73 3e 98 be 98 bf 01 c0      	<unknown>
10014070: fa be        	<unknown>
10014072: e8 3e        	<unknown>
10014074: f0 3e        	<unknown>
10014076: da bf        	<unknown>
10014078: 18 bf        	<unknown>
1001407a: d0 bf        	<unknown>
1001407c: 13 bd 00 3b d3 3d 1e 3f      	<unknown>
10014084: 08 bf        	<unknown>
10014086: d9 bf        	<unknown>
10014088: 2e 3e        	<unknown>
1001408a: 46 bf        	<unknown>
1001408c: ab 3f 3d 3f e9 3d ad be      	<unknown>
10014094: 10 3f        	<unknown>
10014096: b4 3e        	<unknown>
10014098: d4 3f        	<unknown>
1001409a: cc 3c        	<unknown>
1001409c: 9b 3f 55 bf 6c bf 4d 3e      	<unknown>
100140a4: 48 3f        	<unknown>
100140a6: af bf 37 40 c2 3e bc 3f      	<unknown>
100140ae: cb bf 36 3f a0 be 6d 3d      	<unknown>
100140b6: 75 3f        	<unknown>
100140b8: d9 3e        	<unknown>
100140ba: d4 bf        	<unknown>
100140bc: 1b 3f a8 3e 68 be 34 bf      	<unknown>
100140c4: 93 be 8c bf 2f bf a2 3e      	<unknown>
100140cc: c7 bf 47 3f a4 be 0a bf      	<unknown>
100140d4: 92 be        	<unknown>
100140d6: f3 3f b2 3e c5 3e 41 bd      	<unknown>
100140de: 10 bf        	<unknown>
100140e0: 9c 38        	<unknown>
100140e2: 7b 3f cb be 5c bf 91 3e      	<unknown>
100140ea: 0d bf        	<unknown>
100140ec: 2e 40        	<unknown>
100140ee: 9e 3f        	<unknown>
100140f0: 1d 3e        	<unknown>
100140f2: 8e bf        	<unknown>
100140f4: a7 bd 15 3f 5a bf df bf      	<unknown>
100140fc: 89 3e        	<unknown>
100140fe: bc 3d        	<unknown>
10014100: 40 3f        	<unknown>
10014102: 0d 3c        	<unknown>
10014104: 21 3e        	<unknown>
10014106: 0b bf 75 3f 00 bf 59 bf      	<unknown>
1001410e: 89 3f        	<unknown>
10014110: 40 3e        	<unknown>
10014112: ff bd fc 3d c2 3e 9e bf      	<unknown>
1001411a: a0 be        	<unknown>
1001411c: 66 bf        	<unknown>
1001411e: 12 bd        	<unknown>
10014120: fb 3f c2 3e 5d 3e e3 bf      	<unknown>
10014128: 8c 3f        	<unknown>
1001412a: 50 3f        	<unknown>
1001412c: 6b be f4 be eb bf 50 3f      	<unknown>
10014134: bf bd 54 3f aa 3e d0 3e      	<unknown>
1001413c: 52 3d        	<unknown>
1001413e: 75 3f        	<unknown>
10014140: bf 3f 69 3f d1 be d5 3f      	<unknown>
10014148: a3 3e 36 bf a4 bf ee bf      	<unknown>
10014150: d8 bf        	<unknown>
10014152: 04 3f        	<unknown>
10014154: e5 3d        	<unknown>
10014156: 88 be        	<unknown>
10014158: 4b bf aa be a2 3f 3c 3f      	<unknown>
10014160: 23 3f d2 bf 88 3e 78 3d      	<unknown>
10014168: ab bd ca bd b1 bf e2 be      	<unknown>
10014170: 18 bf        	<unknown>
10014172: 25 bf        	<unknown>
10014174: 8d bc        	<unknown>
10014176: ce bf        	<unknown>
10014178: 74 bf        	<unknown>
1001417a: 17 be 11 bf ab 3f 89 3f      	<unknown>
10014182: 37 3f 58 3e 11 c0 5f 3f      	<unknown>
1001418a: 17 c0 14 3f ec 3d 46 bf      	<unknown>
10014192: 6a 3f        	<unknown>
10014194: 4e bf        	<unknown>
10014196: b8 3f        	<unknown>
10014198: 2f 3d fa 3e 67 bf 34 bf      	<unknown>
100141a0: 1e be        	<unknown>
100141a2: ea 3d        	<unknown>
100141a4: b4 bf        	<unknown>
100141a6: 78 3f        	<unknown>
100141a8: cd be        	<unknown>
100141aa: 79 3e        	<unknown>
100141ac: e9 3e        	<unknown>
100141ae: e2 3d        	<unknown>
100141b0: c0 3e        	<unknown>
100141b2: c6 be        	<unknown>
100141b4: 5a bf        	<unknown>
100141b6: 90 be        	<unknown>
100141b8: 93 bf 1b bf 26 3f 8c bf      	<unknown>
100141c0: 96 3f        	<unknown>
100141c2: 0c bc        	<unknown>
100141c4: c1 bf        	<unknown>
100141c6: 68 3f        	<unknown>
100141c8: b3 be 55 3e 9f 3f 83 3f      	<unknown>
100141d0: 5a bf        	<unknown>
100141d2: be 3e        	<unknown>
100141d4: 5d 3e        	<unknown>
100141d6: a6 be        	<unknown>
100141d8: 9c be        	<unknown>
100141da: e3 3e a5 bd 10 bf 84 3e      	<unknown>
100141e2: 8e 3f        	<unknown>
100141e4: 6b 3f 89 be 5b 3f 2d 3c      	<unknown>
100141ec: 28 bf        	<unknown>
100141ee: 89 3e        	<unknown>
100141f0: 17 bf e1 3d f7 bf 1b 3f      	<unknown>
100141f8: 4d bf        	<unknown>
100141fa: 1c be        	<unknown>
100141fc: 12 bf        	<unknown>
100141fe: 32 3f        	<unknown>
10014200: 54 3e        	<unknown>
10014202: a7 bf b3 be ff 3e da be      	<unknown>
1001420a: 40 bf        	<unknown>
1001420c: 0c be        	<unknown>
1001420e: 77 3f 87 bf 80 3d 06 bf      	<unknown>
10014216: 39 bf        	<unknown>
10014218: c6 3e        	<unknown>
1001421a: b4 3e        	<unknown>
1001421c: 93 bf df bf 12 40 00 be      	<unknown>
10014224: a8 be        	<unknown>
10014226: 20 3e        	<unknown>
10014228: ba 3e        	<unknown>
1001422a: 22 3d        	<unknown>
1001422c: fd be        	<unknown>
1001422e: ff 3e ba be 1f be 37 bf      	<unknown>
10014236: 07 bf 8c bf 12 bf 7e bf      	<unknown>
1001423e: 3f 3f 61 bf 92 bd de 3f      	<unknown>
10014246: c5 bf        	<unknown>
10014248: 9f 3f 01 3e ba bf 47 bf      	<unknown>
10014250: 90 3f        	<unknown>
10014252: 82 3f        	<unknown>
10014254: a4 3f        	<unknown>
10014256: d6 be        	<unknown>
10014258: 04 40        	<unknown>
1001425a: f7 be 82 3e c9 be 6c 3f      	<unknown>
10014262: 56 3f        	<unknown>
10014264: 86 3f        	<unknown>
10014266: 4e 3f        	<unknown>
10014268: cc 3e        	<unknown>
1001426a: 85 bf        	<unknown>
1001426c: 60 3f        	<unknown>
1001426e: eb be 16 bf a9 be 13 bf      	<unknown>
10014276: 15 bf        	<unknown>
10014278: 0c bf        	<unknown>
1001427a: 07 3f 7e bf 85 3f a4 be      	<unknown>
10014282: cc 3f        	<unknown>
10014284: 41 bf        	<unknown>
10014286: 5c bf        	<unknown>
10014288: c5 be        	<unknown>
1001428a: 29 bf        	<unknown>
1001428c: 0d bf        	<unknown>
1001428e: c4 bf        	<unknown>
10014290: fa 3c        	<unknown>
10014292: e0 3e        	<unknown>
10014294: 05 be        	<unknown>
10014296: 34 bf        	<unknown>
10014298: 1b be 02 3f 35 3f 5d bf      	<unknown>
100142a0: e8 be        	<unknown>
100142a2: 9e bf        	<unknown>
100142a4: 06 c0        	<unknown>
100142a6: b6 3f        	<unknown>
100142a8: 3b 3f e5 3f 67 3f 95 bf      	<unknown>
100142b0: 61 bc        	<unknown>
100142b2: be 3f        	<unknown>
100142b4: df 3e 84 bf be be 0b 40      	<unknown>
100142bc: 8b bf ae bf a7 3e 2e 3f      	<unknown>
100142c4: 8e 3f        	<unknown>
100142c6: 1b 3e b5 bf b3 bd 85 3f      	<unknown>
100142ce: 0e bf        	<unknown>
100142d0: 03 bf c7 bf 4e bf 62 be      	<unknown>
100142d8: 4b be 4c 3e 40 bf 76 3f      	<unknown>
100142e0: 8f bf 73 3f c4 3e 64 3c      	<unknown>
100142e8: 0e be        	<unknown>
100142ea: 12 3f        	<unknown>
100142ec: bb 3e b4 3f 92 be c0 3f      	<unknown>
100142f4: a6 bf        	<unknown>
100142f6: 15 3f        	<unknown>
100142f8: 43 3e 0c c0 9a be e6 3f      	<unknown>
10014300: 13 3f e1 bd 38 c0 c4 be      	<unknown>
10014308: f2 3e        	<unknown>
1001430a: 7f 3f 6d bf 23 3e 48 3f      	<unknown>
10014312: 2a 3e        	<unknown>
10014314: 89 be        	<unknown>
10014316: c7 3f 08 bf b9 bf b4 3d      	<unknown>
1001431e: 16 3f        	<unknown>
10014320: b7 bf 9c bf 92 3c 6d 3f      	<unknown>
10014328: ed 3e        	<unknown>
1001432a: 96 bf        	<unknown>
1001432c: 1d bf        	<unknown>
1001432e: a3 3e 02 bf 31 3f f2 be      	<unknown>
10014336: ba 3c        	<unknown>
10014338: bd 3d        	<unknown>
1001433a: 2c 3e        	<unknown>
1001433c: db 3e ce 3f 2f 3f a0 3f      	<unknown>
10014344: 3a bf        	<unknown>
10014346: 07 3f 16 bf 0f 3e 23 bf      	<unknown>
1001434e: 90 be        	<unknown>
10014350: 8a 3d        	<unknown>
10014352: 0e 3f        	<unknown>
10014354: 67 bd f5 3e 8b bf c8 3e      	<unknown>
1001435c: 7f 3f 2f 3f 91 3f 4e be      	<unknown>
10014364: d6 be        	<unknown>
10014366: 9a bd        	<unknown>
10014368: e3 be ad bc a7 3f ac bf      	<unknown>
10014370: 91 3e        	<unknown>
10014372: 67 3f 57 bf ae 3e 5c bc      	<unknown>
1001437a: b0 3d        	<unknown>
1001437c: 04 40        	<unknown>
1001437e: 4a 3f        	<unknown>
10014380: 79 bd        	<unknown>
10014382: db 3f 4a 3f 39 40 d4 bf      	<unknown>
1001438a: ce 3f        	<unknown>
1001438c: 5a bd        	<unknown>
1001438e: 44 3f        	<unknown>
10014390: f9 3e        	<unknown>
10014392: 35 3f        	<unknown>
10014394: 91 3e        	<unknown>
10014396: 39 3f        	<unknown>
10014398: 1e be        	<unknown>
1001439a: 1e be        	<unknown>
1001439c: 73 bf e8 3d a9 3e 2b bf      	<unknown>
100143a4: 59 3f        	<unknown>
100143a6: c3 3d 8a be 30 bf 96 bd      	<unknown>
100143ae: af 3f 7e bf 94 bf 9b be      	<unknown>
100143b6: 1a 3e        	<unknown>
100143b8: 24 bf        	<unknown>
100143ba: 40 3f        	<unknown>
100143bc: 4a 3d        	<unknown>
100143be: 9a bf        	<unknown>
100143c0: 03 bf 70 bf 4e bd e1 bf      	<unknown>
100143c8: a2 bf        	<unknown>
100143ca: 76 3c        	<unknown>
100143cc: 14 3f        	<unknown>
100143ce: 34 be        	<unknown>
100143d0: 2c bf        	<unknown>
100143d2: 30 bd        	<unknown>
100143d4: 12 bf        	<unknown>
100143d6: 9d 3e        	<unknown>
100143d8: 3f 3f 5e be 64 bd a7 be      	<unknown>
100143e0: 93 3f a1 be 45 bf ed 3f      	<unknown>
100143e8: 14 bf        	<unknown>
100143ea: 0b 40 58 bf cc bd af 3d      	<unknown>
100143f2: 02 bf        	<unknown>
100143f4: cf 3f 0a bf 80 3f ca bf      	<unknown>
100143fc: 26 3f        	<unknown>
100143fe: 56 bf        	<unknown>
10014400: ed 3f        	<unknown>
10014402: a1 bf        	<unknown>
10014404: da be        	<unknown>
10014406: 51 3f        	<unknown>
10014408: 0c bf        	<unknown>
1001440a: 72 be        	<unknown>
1001440c: 2c 3f        	<unknown>
1001440e: ca be        	<unknown>
10014410: 2a 3f        	<unknown>
10014412: f0 bd        	<unknown>
10014414: b4 3d        	<unknown>
10014416: 3d 3f        	<unknown>
10014418: 28 3f        	<unknown>
1001441a: 56 bf        	<unknown>
1001441c: 21 bf        	<unknown>
1001441e: 65 3f        	<unknown>
10014420: fc 3e        	<unknown>
10014422: a1 bf        	<unknown>
10014424: d4 3e        	<unknown>
10014426: b9 3f        	<unknown>
10014428: ab 3f 70 bf 62 3e c4 bd      	<unknown>
10014430: 35 3e        	<unknown>
10014432: 9f 3f ae be 4b bf 63 3f      	<unknown>
1001443a: 6e 3f        	<unknown>
1001443c: 58 bf        	<unknown>
1001443e: da bf        	<unknown>
10014440: 22 c0        	<unknown>
10014442: 44 c0        	<unknown>
10014444: 0d bd        	<unknown>
10014446: 31 bf        	<unknown>
10014448: 00 00        	<unknown>
1001444a: 2f 3f ee bd a0 be 0a 40      	<unknown>
10014452: 09 3f        	<unknown>
10014454: 32 3e        	<unknown>
10014456: 4e 3f        	<unknown>
10014458: 00 00        	<unknown>
1001445a: 09 3f        	<unknown>
1001445c: 06 3f        	<unknown>
1001445e: 50 bf        	<unknown>
10014460: 3e bf        	<unknown>
10014462: b2 bf        	<unknown>
10014464: 46 3f        	<unknown>
10014466: 02 c0        	<unknown>
10014468: e1 bf        	<unknown>
1001446a: 06 3f        	<unknown>
1001446c: 97 3f ac 3e b0 bf b7 3e      	<unknown>
10014474: ae 3f        	<unknown>
10014476: 17 c0 98 3f db 3e 19 bf      	<unknown>
1001447e: a4 bf        	<unknown>
10014480: 14 bf        	<unknown>
10014482: 8d 3f        	<unknown>
10014484: 04 bf        	<unknown>
10014486: ca 3e        	<unknown>
10014488: d9 3e        	<unknown>
1001448a: 7c 3e        	<unknown>
1001448c: aa bf        	<unknown>
1001448e: c1 3f        	<unknown>
10014490: 37 bf 4c bf 8b 3f 28 3f      	<unknown>
10014498: 27 3e bd 3e 6e 3f 00 00      	<unknown>
100144a0: 3a bf        	<unknown>
100144a2: c3 bc 10 3f 7b 3d 8f bf      	<unknown>
100144aa: c1 3f        	<unknown>
100144ac: e3 bf 73 bf 83 bf af 3d      	<unknown>
100144b4: 9f be d1 bf 5b bf 2e c0      	<unknown>
100144bc: e1 3a        	<unknown>
100144be: 29 bf        	<unknown>
100144c0: 8d be        	<unknown>
100144c2: d7 bf 00 00 f4 bf 0e 3f      	<unknown>
100144ca: eb 3d b6 bf 5c bd f5 3e      	<unknown>
100144d2: 95 bf        	<unknown>
100144d4: 00 00        	<unknown>
100144d6: 48 bf        	<unknown>
100144d8: 2b bf 69 3f 38 bf dc 3e      	<unknown>
100144e0: 57 be fe bd 89 3f 11 3e      	<unknown>
100144e8: 0b bf ac be c9 3f ee 3f      	<unknown>
100144f0: 6a be        	<unknown>
100144f2: 7d bc        	<unknown>
100144f4: 83 3f 23 3f 51 bf 2d 3f      	<unknown>
100144fc: 08 40        	<unknown>
100144fe: b7 be 6e bf 1c be a0 3f      	<unknown>
10014506: 12 3d        	<unknown>
10014508: 48 bf        	<unknown>
1001450a: 54 bf        	<unknown>
1001450c: 7e 3f        	<unknown>
1001450e: 8f 3f a8 bf 30 3f 30 bf      	<unknown>
10014516: 41 3f        	<unknown>
10014518: f3 be df 3f 10 40 3a 40      	<unknown>
10014520: 67 3e 4d bf 40 3f 0c 40      	<unknown>
10014528: 04 3f        	<unknown>
1001452a: 27 3f 3d bf 02 bf 2f bf      	<unknown>
10014532: 0f bf 54 3f 39 3f 34 bf      	<unknown>
1001453a: 2f 3f 11 3d 94 3f 2b bf      	<unknown>
10014542: 17 40 33 3f d6 bf 5a bf      	<unknown>
1001454a: be 3f        	<unknown>
1001454c: 6c be        	<unknown>
1001454e: fa 3f        	<unknown>
10014550: ba bf        	<unknown>
10014552: 99 bf        	<unknown>
10014554: 12 40        	<unknown>
10014556: 7c 3f        	<unknown>
10014558: 34 3f        	<unknown>
1001455a: d6 bf        	<unknown>
1001455c: c6 3f        	<unknown>
1001455e: aa bf        	<unknown>
10014560: 99 3f        	<unknown>
10014562: 66 bf        	<unknown>
10014564: 9f 3f 02 bd a6 3f f7 3f      	<unknown>
1001456c: 25 bf        	<unknown>
1001456e: 44 bf        	<unknown>
10014570: b1 3f        	<unknown>
10014572: 85 bf        	<unknown>
10014574: 94 bf        	<unknown>
10014576: a3 bf ac bd dd 3e 59 bf      	<unknown>
1001457e: 63 3f 1e 3f d1 be 11 c0      	<unknown>
10014586: 5a bf        	<unknown>
10014588: 14 bf        	<unknown>
1001458a: 68 bd        	<unknown>
1001458c: 5d bf        	<unknown>
1001458e: e8 3f        	<unknown>
10014590: 17 c0 28 bf 4f bf 20 bd      	<unknown>
10014598: 8b 3f 8b 3d 03 c0 b3 bf      	<unknown>
100145a0: 63 3f 30 3f f8 3f d5 bf      	<unknown>
100145a8: 51 bf        	<unknown>
100145aa: cd bf        	<unknown>
100145ac: 88 3f        	<unknown>
100145ae: 25 bf        	<unknown>
100145b0: 07 3f d2 3e 93 3f 28 3f      	<unknown>
100145b8: 3d 3f        	<unknown>
100145ba: 21 bf        	<unknown>
100145bc: 8d bd        	<unknown>
100145be: 07 bf a9 3f 22 3f 76 3f      	<unknown>
100145c6: b7 3e 3a 3f c1 be 3c 40      	<unknown>
100145ce: f5 be        	<unknown>
100145d0: 6b 3e 8c be 9d 3f 40 bf      	<unknown>
100145d8: a8 bf        	<unknown>
100145da: e8 3e        	<unknown>
100145dc: 03 3f d9 bf b3 bf 5f bf      	<unknown>
100145e4: 44 3e        	<unknown>
100145e6: 12 be        	<unknown>
100145e8: 88 3f        	<unknown>
100145ea: 0d c0        	<unknown>
100145ec: dc be        	<unknown>
100145ee: df bf 89 3d 42 bf 95 bf      	<unknown>
100145f6: b4 3f        	<unknown>
100145f8: 73 3e c2 be 67 3f 6c 3f      	<unknown>
10014600: 4f bf c0 be 6f bf 3a 40      	<unknown>
10014608: 8c 3f        	<unknown>
1001460a: 72 bf        	<unknown>
1001460c: 45 be        	<unknown>
1001460e: 09 bf        	<unknown>
10014610: 03 3f 41 bf fb be cd bf      	<unknown>
10014618: cc bf        	<unknown>
1001461a: be be        	<unknown>
1001461c: 00 3f        	<unknown>
1001461e: 6e 3f        	<unknown>
10014620: b8 3f        	<unknown>
10014622: ec 3e        	<unknown>
10014624: dd 3f        	<unknown>
10014626: 51 bf        	<unknown>
10014628: ad 3e        	<unknown>
1001462a: 90 3f        	<unknown>
1001462c: 50 bf        	<unknown>
1001462e: f8 3e        	<unknown>
10014630: b8 3e        	<unknown>
10014632: 06 bf        	<unknown>
10014634: 6b bd 8f 3f a5 bf 55 3f      	<unknown>
1001463c: 35 bf        	<unknown>
1001463e: 9a bf        	<unknown>
10014640: 21 bf        	<unknown>
10014642: 80 3e        	<unknown>
10014644: 92 3f        	<unknown>
10014646: 64 bf        	<unknown>
10014648: b7 bf 16 3e 3e 3f 57 bf      	<unknown>
10014650: 04 3f        	<unknown>
10014652: 85 bc        	<unknown>
10014654: 57 3f a3 be 52 3e 95 3f      	<unknown>
1001465c: 32 bf        	<unknown>
1001465e: 54 bf        	<unknown>
10014660: f6 3e        	<unknown>
10014662: 02 c0        	<unknown>
10014664: 7f 3f a5 3f 91 3f 46 c0      	<unknown>
1001466c: 18 3e        	<unknown>
1001466e: 8a bf        	<unknown>
10014670: eb 3e 39 bf c8 3c ae bf      	<unknown>
10014678: 91 3f        	<unknown>
1001467a: 97 3e 1c bd d9 3e 02 40      	<unknown>
10014682: 95 bf        	<unknown>
10014684: bf 3f 28 c0 50 3f 01 bf      	<unknown>
1001468c: 98 3f        	<unknown>
1001468e: 2a 3f        	<unknown>
10014690: 80 3e        	<unknown>
10014692: ea be        	<unknown>
10014694: 72 3f        	<unknown>
10014696: 56 3e        	<unknown>
10014698: 11 40        	<unknown>
1001469a: d3 be da 3e c9 be 9b 3f      	<unknown>
100146a2: 00 3f        	<unknown>
100146a4: 09 3e        	<unknown>
100146a6: a4 3e        	<unknown>
100146a8: 92 bd        	<unknown>
100146aa: 3c bf        	<unknown>
100146ac: ae 3e        	<unknown>
100146ae: 95 bd        	<unknown>
100146b0: 7f bf 11 bf a7 3f 77 3f      	<unknown>
100146b8: 47 40 77 bf 12 bf cc be      	<unknown>
100146c0: 95 3f        	<unknown>
100146c2: 99 3e        	<unknown>
100146c4: df be a0 3e 03 40 4b bf      	<unknown>
100146cc: 1b 3f 90 3f 23 bf f1 3e      	<unknown>
100146d4: e3 3f 84 be e7 bf b0 bf      	<unknown>
100146dc: 5f 3e 82 3f 89 3f fc 3f      	<unknown>
100146e4: ee bd        	<unknown>
100146e6: 93 be ec bd 05 bf c6 3f      	<unknown>
100146ee: ca 3f        	<unknown>
100146f0: 89 bf        	<unknown>
100146f2: 00 00        	<unknown>
100146f4: d4 3f        	<unknown>
100146f6: 70 3f        	<unknown>
100146f8: 27 3e fe be eb 3d 5e bf      	<unknown>
10014700: 39 bd        	<unknown>
10014702: 44 3f        	<unknown>
10014704: 0c c0        	<unknown>
10014706: 6b 3f 34 bf 08 be 8d be      	<unknown>
1001470e: bb 3f 4e bf 0e bf 48 bf      	<unknown>
10014716: a1 bf        	<unknown>
10014718: 87 bf c1 bf 2b be 2f bf      	<unknown>
10014720: c5 3f        	<unknown>
10014722: 52 bf        	<unknown>
10014724: b9 3e        	<unknown>
10014726: 10 c0        	<unknown>
10014728: 85 bf        	<unknown>
1001472a: 95 bf        	<unknown>
1001472c: 23 bf b1 bd 23 3f 2c bf      	<unknown>
10014734: a9 3f        	<unknown>
10014736: 3a 3f        	<unknown>
10014738: 17 bf cc 3f cf 3e f2 be      	<unknown>
10014740: 93 bf bd bf 48 bf 4f be      	<unknown>
10014748: 9b 3e ec 3e e5 3f 66 bf      	<unknown>
10014750: a0 bf        	<unknown>
10014752: 54 be        	<unknown>
10014754: bb 3f 50 bf c3 3f 17 3f      	<unknown>
1001475c: 30 3f        	<unknown>
1001475e: 30 3d        	<unknown>
10014760: a4 be        	<unknown>
10014762: 7b be fb be a5 be 0a bf      	<unknown>
1001476a: 12 bf        	<unknown>
1001476c: 1c 3f        	<unknown>
1001476e: cd bf        	<unknown>
10014770: d3 bd d0 bf 5a bf a3 be      	<unknown>
10014778: 91 3f        	<unknown>
1001477a: cd 3f        	<unknown>
1001477c: 53 3f 02 3e 03 bf 22 bf      	<unknown>
10014784: 54 3f        	<unknown>
10014786: 3b 3f fb 3f d1 be 79 3d      	<unknown>
1001478e: 00 00        	<unknown>
10014790: 0b bf 01 c0 9a bf e8 bf      	<unknown>
10014798: c8 3e        	<unknown>
1001479a: cf 3e cf bf 00 00 34 bf      	<unknown>
100147a2: 5c bf        	<unknown>
100147a4: 46 be        	<unknown>
100147a6: 61 3f        	<unknown>
100147a8: 3e 3f        	<unknown>
100147aa: 59 be        	<unknown>
100147ac: c2 bf        	<unknown>
100147ae: e2 be        	<unknown>
100147b0: 91 bf        	<unknown>
100147b2: ce 3e        	<unknown>
100147b4: 0a 3e        	<unknown>
100147b6: ba 3e        	<unknown>
100147b8: 9e 3f        	<unknown>
100147ba: 95 bf        	<unknown>
100147bc: f7 3d 0c bf 95 be 54 be      	<unknown>
100147c4: 12 c0        	<unknown>
100147c6: cc be        	<unknown>
100147c8: a9 3f        	<unknown>
100147ca: a2 3e        	<unknown>
100147cc: 8e bd        	<unknown>
100147ce: 9f 3e b8 be f1 3e 16 3f      	<unknown>
100147d6: 8e 3d        	<unknown>
100147d8: 2a 3f        	<unknown>
100147da: ce bf        	<unknown>
100147dc: 9e bf        	<unknown>
100147de: 60 3e        	<unknown>
100147e0: d0 be        	<unknown>
100147e2: 3d 3f        	<unknown>
100147e4: d7 3e 8f 3f 67 bf a4 bf      	<unknown>
100147ec: 3e bf        	<unknown>
100147ee: 8a 3f        	<unknown>
100147f0: a5 bf        	<unknown>
100147f2: 81 bf        	<unknown>
100147f4: b0 3e        	<unknown>
100147f6: 86 bf        	<unknown>
100147f8: d7 be b3 3f 64 3f 30 bf      	<unknown>
10014800: a3 3f fb be 77 3e 33 bf      	<unknown>
10014808: 86 3d        	<unknown>
1001480a: a6 3f        	<unknown>
1001480c: f0 be        	<unknown>
1001480e: 5a 3e        	<unknown>
10014810: d4 be        	<unknown>
10014812: 20 3f        	<unknown>
10014814: 62 3f        	<unknown>
10014816: 1c bf        	<unknown>
10014818: cd be        	<unknown>
1001481a: 93 bf 1e bf 94 3e 61 3f      	<unknown>
10014822: 82 bd        	<unknown>
10014824: 25 bf        	<unknown>
10014826: 77 bd e4 3e 9d be 33 bf      	<unknown>
1001482e: 93 3f 61 bf 08 bf 1f 3f      	<unknown>
10014836: a9 be        	<unknown>
10014838: 65 3e        	<unknown>
1001483a: 1d 3f        	<unknown>
1001483c: 1c bf        	<unknown>
1001483e: 63 bf 6f bf 2f bf e1 3f      	<unknown>
10014846: 2a 3f        	<unknown>
10014848: 8a 3f        	<unknown>
1001484a: fb 3d 95 3f be bf 32 3f      	<unknown>
10014852: 77 3f 24 c0 2e be b0 3f      	<unknown>
1001485a: 99 3f        	<unknown>
1001485c: 58 bf        	<unknown>
1001485e: e9 3e        	<unknown>
10014860: c4 3e        	<unknown>
10014862: 90 bf        	<unknown>
10014864: 1a 40        	<unknown>
10014866: 80 bf        	<unknown>
10014868: 76 bf        	<unknown>
1001486a: 0c 3e        	<unknown>
1001486c: 84 3f        	<unknown>
1001486e: 32 3a        	<unknown>
10014870: 51 3e        	<unknown>
10014872: dc 3d        	<unknown>
10014874: fc 3f        	<unknown>
10014876: cb 3e a2 bf 55 bf ac be      	<unknown>
1001487e: b3 3f ca bd 5f bf 47 c0      	<unknown>
10014886: 36 bf        	<unknown>
10014888: 78 3f        	<unknown>
1001488a: 3a bf        	<unknown>
1001488c: 8d bf        	<unknown>
1001488e: 7f be 08 40 d8 bc c1 bd      	<unknown>
10014896: ff 3e d0 bf c3 be 58 3d      	<unknown>
1001489e: 81 3f        	<unknown>
100148a0: df be 9a bf 8f bf d6 3e      	<unknown>
100148a8: a1 3e        	<unknown>
100148aa: 2e bf        	<unknown>
100148ac: 3d bf        	<unknown>
100148ae: 33 bf 0d 40 8a 3e e9 be      	<unknown>
100148b6: ec 3e        	<unknown>
100148b8: 1f 3f 1c bf 1b be 50 bf      	<unknown>
100148c0: 84 bf        	<unknown>
100148c2: ed 3e        	<unknown>
100148c4: a1 3f        	<unknown>
100148c6: 6e bf        	<unknown>
100148c8: c5 be        	<unknown>
100148ca: 68 3f        	<unknown>
100148cc: 08 3f        	<unknown>
100148ce: 8f 3f 9f 3f c8 bf c4 3f      	<unknown>
100148d6: a3 3f 4e be 4d bf 55 bf      	<unknown>
100148de: 94 bd        	<unknown>
100148e0: 33 3f cc 3f 78 3f 94 3f      	<unknown>
100148e8: b6 3e        	<unknown>
100148ea: e5 3f        	<unknown>
100148ec: c0 3e        	<unknown>
100148ee: c5 be        	<unknown>
100148f0: a9 3e        	<unknown>
100148f2: 41 3f        	<unknown>
100148f4: 37 3f 1d bd 17 40 87 bf      	<unknown>
100148fc: c9 3e        	<unknown>
100148fe: 0b bf 40 3f 56 bf ec 3c      	<unknown>
10014906: db be e1 bf 75 be 52 bf      	<unknown>
1001490e: 36 be        	<unknown>
10014910: f3 be 99 be 34 be 99 3f      	<unknown>
10014918: 7e be        	<unknown>
1001491a: 79 3f        	<unknown>
1001491c: bc be        	<unknown>
1001491e: b9 3d        	<unknown>
10014920: b6 bd        	<unknown>
10014922: a7 be 6b 3f 0e bf a0 bf      	<unknown>
1001492a: 7a 3f        	<unknown>
1001492c: ce be        	<unknown>
1001492e: 47 be f5 3f d4 3f d5 bf      	<unknown>
10014936: f3 3e ae be c5 3f 86 3f      	<unknown>
1001493e: 1d bf        	<unknown>
10014940: 26 3f        	<unknown>
10014942: 84 3f        	<unknown>
10014944: 55 3f        	<unknown>
10014946: 13 bf 48 3f ce be 8f bf      	<unknown>
1001494e: 3f bf 92 3f cb 3e b8 be      	<unknown>
10014956: 03 40 fe 3e 33 bf ca 3f      	<unknown>
1001495e: 3c 3f        	<unknown>
10014960: 42 bf        	<unknown>
10014962: 30 3f        	<unknown>
10014964: 82 3f        	<unknown>
10014966: 16 3f        	<unknown>
10014968: e8 bd        	<unknown>
1001496a: 90 3f        	<unknown>
1001496c: 81 3f        	<unknown>
1001496e: 90 3f        	<unknown>
10014970: 4d bf        	<unknown>
10014972: e5 3f        	<unknown>
10014974: f4 3f        	<unknown>
10014976: 0f c0 a5 bf fe 3f 8e 3f      	<unknown>
1001497e: 61 3f        	<unknown>
10014980: a2 3f        	<unknown>
10014982: 0b 3f fa 3c fb 3e 47 3d      	<unknown>
1001498a: 5b bf 53 3f 12 3f 26 be      	<unknown>
10014992: 88 3f        	<unknown>
10014994: 50 bf        	<unknown>
10014996: cd 3f        	<unknown>
10014998: 7d be        	<unknown>
1001499a: 8b 3d 3d be c6 be 7d 3f      	<unknown>
100149a2: d0 3f        	<unknown>
100149a4: 95 bf        	<unknown>
100149a6: 2e bf        	<unknown>
100149a8: 05 3e        	<unknown>
100149aa: 09 c0        	<unknown>
100149ac: 0b 3f d6 be a3 bf 6b 3f      	<unknown>
100149b4: f4 be        	<unknown>
100149b6: 66 bf        	<unknown>
100149b8: a5 bf        	<unknown>
100149ba: 11 40        	<unknown>
100149bc: b1 3e        	<unknown>
100149be: 57 bf dd 3f dc be 18 3e      	<unknown>
100149c6: 4f 3f ab bf 56 bf ef 3e      	<unknown>
100149ce: 92 bf        	<unknown>
100149d0: 94 3f        	<unknown>
100149d2: 9a 3f        	<unknown>
100149d4: ae be        	<unknown>
100149d6: 2b bf 95 bf 4d bf 73 be      	<unknown>
100149de: 2c 3f        	<unknown>
100149e0: f5 bd        	<unknown>
100149e2: 04 c0        	<unknown>
100149e4: 91 bf        	<unknown>
100149e6: 02 3f        	<unknown>
100149e8: df be 29 3f 3b 3e 00 c0      	<unknown>
100149f0: da 3f        	<unknown>
100149f2: 07 3f b1 be e4 be 69 be      	<unknown>
100149fa: 65 3f        	<unknown>
100149fc: f3 3e 03 3f ad be a9 3d      	<unknown>
10014a04: 98 3e        	<unknown>
10014a06: e3 bf c8 3e 5f 3f 5e bf      	<unknown>
10014a0e: d9 3f        	<unknown>
10014a10: 03 3f f2 3e 99 3f 0a bf      	<unknown>
10014a18: 97 bf 2f 3d 8e 3f b1 3f      	<unknown>
10014a20: 27 be a1 bf da 3e 09 c0      	<unknown>
10014a28: f4 3f        	<unknown>
10014a2a: 54 be        	<unknown>
10014a2c: 60 bf        	<unknown>
10014a2e: 86 be        	<unknown>
10014a30: bd 3e        	<unknown>
10014a32: 8c bf        	<unknown>
10014a34: cc be        	<unknown>
10014a36: 9d 3e        	<unknown>
10014a38: 90 bf        	<unknown>
10014a3a: b8 be        	<unknown>
10014a3c: 2c bf        	<unknown>
10014a3e: b1 be        	<unknown>
10014a40: 0e 3f        	<unknown>
10014a42: 2d bf        	<unknown>
10014a44: e5 bd        	<unknown>
10014a46: d0 3e        	<unknown>
10014a48: 26 c0        	<unknown>
10014a4a: 0c 40        	<unknown>
10014a4c: 74 be        	<unknown>
10014a4e: fd 3f        	<unknown>
10014a50: 1f 40 64 bf 79 be 18 bf      	<unknown>
10014a58: bc bf        	<unknown>
10014a5a: 83 bf f5 be f2 3f 34 3e      	<unknown>
10014a62: 34 bf        	<unknown>
10014a64: 29 3f        	<unknown>
10014a66: b1 3e        	<unknown>
10014a68: 38 be        	<unknown>
10014a6a: 9b bf 71 bf 24 be 75 3e      	<unknown>
10014a72: 87 bf b4 3f 35 bd b9 3e      	<unknown>
10014a7a: 80 3e        	<unknown>
10014a7c: c5 be        	<unknown>
10014a7e: a4 3f        	<unknown>
10014a80: bb bd 24 3f a3 be 13 3f      	<unknown>
10014a88: fe be        	<unknown>
10014a8a: 0e c0        	<unknown>
10014a8c: a2 be        	<unknown>
10014a8e: 95 3d        	<unknown>
10014a90: be 3e        	<unknown>
10014a92: 2d bf        	<unknown>
10014a94: 08 40        	<unknown>
10014a96: 48 3f        	<unknown>
10014a98: b1 be        	<unknown>
10014a9a: 90 3e        	<unknown>
10014a9c: b7 3f 35 3f e3 be ee be      	<unknown>
10014aa4: a5 3f        	<unknown>
10014aa6: 32 be        	<unknown>
10014aa8: 5b 3e 8e 3f cb be fa bf      	<unknown>
10014ab0: 64 3f        	<unknown>
10014ab2: 28 bf        	<unknown>
10014ab4: 52 be        	<unknown>
10014ab6: c9 bd        	<unknown>
10014ab8: 28 bd        	<unknown>
10014aba: 4d bf        	<unknown>
10014abc: a6 3f        	<unknown>
10014abe: a9 bf        	<unknown>
10014ac0: f5 3f        	<unknown>
10014ac2: 98 3a        	<unknown>
10014ac4: 8d be        	<unknown>
10014ac6: 82 bf        	<unknown>
10014ac8: 21 be        	<unknown>
10014aca: 34 be        	<unknown>
10014acc: 8b 3d 41 3e 21 3f 19 40      	<unknown>
10014ad4: 66 3f        	<unknown>
10014ad6: 04 bf        	<unknown>
10014ad8: 3b bf 21 3f 29 3f 53 bf      	<unknown>
10014ae0: c9 be        	<unknown>
10014ae2: 08 40        	<unknown>
10014ae4: 92 bf        	<unknown>
10014ae6: b9 bf        	<unknown>
10014ae8: 26 3f        	<unknown>
10014aea: 08 bf        	<unknown>
10014aec: 80 bf        	<unknown>
10014aee: b8 be        	<unknown>
10014af0: 5a bf        	<unknown>
10014af2: f3 be 07 c0 3b 3e 80 3e      	<unknown>
10014afa: 55 3f        	<unknown>
10014afc: 87 3f 20 bf e5 3f 0d bf      	<unknown>
10014b04: 9f 3e e0 bf ae 3e de 3d      	<unknown>
10014b0c: 82 bf        	<unknown>
10014b0e: ab 3c fc 3e d2 3e 29 bc      	<unknown>
10014b16: cb 3f 54 40 de 3d fc bc      	<unknown>
10014b1e: 5f 3f ca 3e 5c 39 8f 3d      	<unknown>
10014b26: f5 3e        	<unknown>
10014b28: 1f c0 f1 be 25 bf af bf      	<unknown>
10014b30: eb 3e de 3e 5f 3d 13 bf      	<unknown>
10014b38: 63 bf 03 3f 12 be bd be      	<unknown>
10014b40: bf 3e 54 bf 83 bf c2 bd      	<unknown>
10014b48: f0 be        	<unknown>
10014b4a: 92 3f        	<unknown>
10014b4c: 6d bf        	<unknown>
10014b4e: e9 3e        	<unknown>
10014b50: f3 bf c5 be d6 be 6f 3f      	<unknown>
10014b58: 2b be 83 be 81 be 36 bf      	<unknown>
10014b60: 42 3d        	<unknown>
10014b62: 9a 3f        	<unknown>
10014b64: 90 be        	<unknown>
10014b66: 4c 3f        	<unknown>
10014b68: a7 bd c2 bd 6e bf e5 bf      	<unknown>
10014b70: 99 3d        	<unknown>
10014b72: f3 3f 2b bf d6 bf 4d 3f      	<unknown>
10014b7a: ad 3f        	<unknown>
10014b7c: 17 3f a8 bd 83 be 32 c0      	<unknown>
10014b84: e8 bd        	<unknown>
10014b86: 99 bf        	<unknown>
10014b88: 52 3f        	<unknown>
10014b8a: e5 bc        	<unknown>
10014b8c: 64 3f        	<unknown>
10014b8e: 7e 3f        	<unknown>
10014b90: ad be        	<unknown>
10014b92: 8c bf        	<unknown>
10014b94: 84 3e        	<unknown>
10014b96: 64 3f        	<unknown>
10014b98: 18 bf        	<unknown>
10014b9a: 9c 3f        	<unknown>
10014b9c: 25 bf        	<unknown>
10014b9e: fa 3d        	<unknown>
10014ba0: 9c 3e        	<unknown>
10014ba2: da be        	<unknown>
10014ba4: a8 bf        	<unknown>
10014ba6: 8a bf        	<unknown>
10014ba8: 5d 3a        	<unknown>
10014baa: 91 be        	<unknown>
10014bac: 91 3e        	<unknown>
10014bae: 2e 3f        	<unknown>
10014bb0: 3e 3f        	<unknown>
10014bb2: 3d 3f        	<unknown>
10014bb4: b8 3e        	<unknown>
10014bb6: 1c 3f        	<unknown>
10014bb8: df 3f 4b 3f af be 2e 3f      	<unknown>
10014bc0: 98 3d        	<unknown>
10014bc2: 19 bf        	<unknown>
10014bc4: c7 bf a5 3a 20 c0 97 bf      	<unknown>
10014bcc: 09 3e        	<unknown>
10014bce: 9a be        	<unknown>
10014bd0: 47 40 cf be 1c bf 26 40      	<unknown>
10014bd8: e0 3e        	<unknown>
10014bda: 3d bf        	<unknown>
10014bdc: 63 3f de 3f 80 3f 4d bf      	<unknown>
10014be4: e0 3e        	<unknown>
10014be6: 03 be b1 3f da bf 31 3f      	<unknown>
10014bee: 00 bf        	<unknown>
10014bf0: 85 bd        	<unknown>
10014bf2: f9 be        	<unknown>
10014bf4: 46 3f        	<unknown>
10014bf6: ba bf        	<unknown>
10014bf8: fe 3e        	<unknown>
10014bfa: 0f c0 dc bf fd 3e b7 3f      	<unknown>
10014c02: 91 3f        	<unknown>
10014c04: 16 bf        	<unknown>
10014c06: ec 3d        	<unknown>
10014c08: ba bd        	<unknown>
10014c0a: 6a 3f        	<unknown>
10014c0c: eb 3f 05 bf cf bf 6d 3f      	<unknown>
10014c14: a4 bf        	<unknown>
10014c16: 01 bf        	<unknown>
10014c18: cf bf 98 be a5 3f 50 3f      	<unknown>
10014c20: a9 bf        	<unknown>
10014c22: f4 3f        	<unknown>
10014c24: 91 bf        	<unknown>
10014c26: d8 be        	<unknown>
10014c28: 1c 3f        	<unknown>
10014c2a: 86 3f        	<unknown>
10014c2c: d5 bf        	<unknown>
10014c2e: 62 bf        	<unknown>
10014c30: f3 3e b1 bf 58 bf b0 3f      	<unknown>
10014c38: eb bf 43 bf ff 3f 0f 3f      	<unknown>
10014c40: 89 bd        	<unknown>
10014c42: 15 3f        	<unknown>
10014c44: 8e bf        	<unknown>
10014c46: 86 3f        	<unknown>
10014c48: aa 3f        	<unknown>
10014c4a: 97 3c 5f bf c4 3e 28 3f      	<unknown>
10014c52: b5 3f        	<unknown>
10014c54: 40 3f        	<unknown>
10014c56: ab 3f 58 be fb be bb 3f      	<unknown>
10014c5e: dc 3f        	<unknown>
10014c60: d5 be        	<unknown>
10014c62: fb 3e 42 bf 30 bf ce 3f      	<unknown>
10014c6a: 91 be        	<unknown>
10014c6c: c0 bf        	<unknown>
10014c6e: 8a 3e        	<unknown>
10014c70: d9 3f        	<unknown>
10014c72: c4 3e        	<unknown>
10014c74: 0e bd        	<unknown>
10014c76: 64 3e        	<unknown>
10014c78: 14 3f        	<unknown>
10014c7a: 02 3e        	<unknown>
10014c7c: 18 3f        	<unknown>
10014c7e: 8a be        	<unknown>
10014c80: 87 be 39 3f fe 3f 9a bf      	<unknown>
10014c88: b4 3f        	<unknown>
10014c8a: 1b bf 0f 3f e9 3f 98 3f      	<unknown>
10014c92: eb bd 06 c0 6c 3d 70 3f      	<unknown>
10014c9a: ca 3f        	<unknown>
10014c9c: 88 3e        	<unknown>
10014c9e: 28 3f        	<unknown>
10014ca0: 1e 3f        	<unknown>
10014ca2: b5 be        	<unknown>
10014ca4: fb be b0 bf 1e 3f 11 bf      	<unknown>
10014cac: d5 3f        	<unknown>
10014cae: 41 3e        	<unknown>
10014cb0: 0f 3f b8 3f 12 c0 76 3e      	<unknown>
10014cb8: 14 bf        	<unknown>
10014cba: 92 bf        	<unknown>
10014cbc: bb bf aa 3e 44 bf 23 3f      	<unknown>
10014cc4: 0d bf        	<unknown>
10014cc6: 9a be        	<unknown>
10014cc8: d9 3f        	<unknown>
10014cca: 67 3f cb bf fa 3f 3d 3f      	<unknown>
10014cd2: 23 bf 35 3f 99 3e 2b bf      	<unknown>
10014cda: 8b bf 01 3e 76 3e d2 3d      	<unknown>
10014ce2: 48 bf        	<unknown>
10014ce4: 9e 3f        	<unknown>
10014ce6: 68 bf        	<unknown>
10014ce8: 03 bf 94 3d e6 3d 9e 3f      	<unknown>
10014cf0: c9 be        	<unknown>
10014cf2: 5b 3f 78 3d d9 3e 75 be      	<unknown>
10014cfa: ba 3e        	<unknown>
10014cfc: 40 3e        	<unknown>
10014cfe: 97 3f 4d 3d e2 be 81 be      	<unknown>
10014d06: af 3f 5d 3f 49 3f 9a 3e      	<unknown>
10014d0e: 91 be        	<unknown>
10014d10: fa 3e        	<unknown>
10014d12: 03 bf 1c 3f 5e bf c5 3e      	<unknown>
10014d1a: 1d 3f        	<unknown>
10014d1c: 17 bf 5a 3f 9f bf f8 3f      	<unknown>
10014d24: 91 3e        	<unknown>
10014d26: dd 3e        	<unknown>
10014d28: 9c 3b        	<unknown>
10014d2a: bb 3f 46 3d bf 3b 28 3f      	<unknown>
10014d32: c3 3d 9e bf 8a bf 4c 3e      	<unknown>
10014d3a: de 3d        	<unknown>
10014d3c: 2e 3f        	<unknown>
10014d3e: 6b bf d4 be e3 be ad 3e      	<unknown>
10014d46: 95 be        	<unknown>
10014d48: 15 3f        	<unknown>
10014d4a: 00 3a        	<unknown>
10014d4c: c4 bf        	<unknown>
10014d4e: 1d 3f        	<unknown>
10014d50: e8 3e        	<unknown>
10014d52: 3f 3f 6b bf ad bf 2e 3f      	<unknown>
10014d5a: 81 3f        	<unknown>
10014d5c: c2 3a        	<unknown>
10014d5e: ed bf        	<unknown>
10014d60: 0a c0        	<unknown>
10014d62: d3 3f 14 c0 e1 3c 50 bf      	<unknown>
10014d6a: d8 3f        	<unknown>
10014d6c: 61 be        	<unknown>
10014d6e: 80 bf        	<unknown>
10014d70: ae 3f        	<unknown>
10014d72: 86 be        	<unknown>
10014d74: 8f bd 3b bf 19 bd 26 3f      	<unknown>
10014d7c: fe bd        	<unknown>
10014d7e: 0b c0 c0 3d 5d bf 83 bf      	<unknown>
10014d86: 98 3e        	<unknown>
10014d88: 2e bf        	<unknown>
10014d8a: 4c 3f        	<unknown>
10014d8c: 2b 3f 69 bf a9 bd a5 bd      	<unknown>
10014d94: e3 bf e7 bf 97 bf d1 bd      	<unknown>
10014d9c: 11 c0        	<unknown>
10014d9e: 61 3f        	<unknown>
10014da0: c1 3f        	<unknown>
10014da2: 4e be        	<unknown>
10014da4: 49 bf        	<unknown>
10014da6: 49 bf        	<unknown>
10014da8: 04 40        	<unknown>
10014daa: d9 3f        	<unknown>
10014dac: c6 3f        	<unknown>
10014dae: 19 3f        	<unknown>
10014db0: 75 3f        	<unknown>
10014db2: 38 3f        	<unknown>
10014db4: 43 3f a2 bf 4c be 1b 3f      	<unknown>
10014dbc: 8c 3f        	<unknown>
10014dbe: b5 be        	<unknown>
10014dc0: a9 be        	<unknown>
10014dc2: 66 3f        	<unknown>
10014dc4: 8f bf a1 bf 71 bf 13 40      	<unknown>
10014dcc: 51 3f        	<unknown>
10014dce: 88 bf        	<unknown>
10014dd0: 8a bd        	<unknown>
10014dd2: 09 3f        	<unknown>
10014dd4: da 3d        	<unknown>
10014dd6: 17 3f 95 bd 2f 3e ce 3f      	<unknown>
10014dde: 62 3e        	<unknown>
10014de0: e0 bf        	<unknown>
10014de2: 45 40        	<unknown>
10014de4: de 3f        	<unknown>
10014de6: 80 bf        	<unknown>
10014de8: fc 3e        	<unknown>
10014dea: 2f bf da bf 29 3d 37 bf      	<unknown>
10014df2: a3 3f 51 bf 87 bf 64 bf      	<unknown>
10014dfa: 77 3f d8 3a 18 bf 00 00      	<unknown>
10014e02: 93 3d da bf a7 bf 27 3e      	<unknown>
10014e0a: 5f 3f d8 3e 69 3f 00 00      	<unknown>
10014e12: 3e 3e        	<unknown>
10014e14: dd be        	<unknown>
10014e16: 80 bf        	<unknown>
10014e18: 8b 3f ba 3f 4a 3f 71 bd      	<unknown>
10014e20: 9a 3f        	<unknown>
10014e22: a4 3e        	<unknown>
10014e24: 6f bf 89 3f 96 be 3e 3e      	<unknown>
10014e2c: 36 bf        	<unknown>
10014e2e: 1e bf        	<unknown>
10014e30: 2f 40 ef be 57 bf 23 3f      	<unknown>
10014e38: 6e bf        	<unknown>
10014e3a: f6 3e        	<unknown>
10014e3c: 88 bf        	<unknown>
10014e3e: 40 be        	<unknown>
10014e40: 93 3f 47 bf 0d 3f 24 3e      	<unknown>
10014e48: f4 be        	<unknown>
10014e4a: bd 3e        	<unknown>
10014e4c: 58 3e        	<unknown>
10014e4e: 61 3f        	<unknown>
10014e50: b0 bf        	<unknown>
10014e52: ad bf        	<unknown>
10014e54: 79 3f        	<unknown>
10014e56: 89 3e        	<unknown>
10014e58: 78 3d        	<unknown>
10014e5a: 10 c0        	<unknown>
10014e5c: 5a 3f        	<unknown>
10014e5e: a4 bf        	<unknown>
10014e60: d3 be 15 be be be 33 bf      	<unknown>
10014e68: be bf        	<unknown>
10014e6a: 6c 3e        	<unknown>
10014e6c: 22 3f        	<unknown>
10014e6e: c7 bd 26 be d1 3d 62 bf      	<unknown>
10014e76: 5a be        	<unknown>
10014e78: 80 bf        	<unknown>
10014e7a: 7a be        	<unknown>
10014e7c: b9 bf        	<unknown>
10014e7e: 27 3f 73 be 9e bf 3b 3f      	<unknown>
10014e86: 1e 3f        	<unknown>
10014e88: 1a bd        	<unknown>
10014e8a: 8b bf 76 bf cb bf 9a 3f      	<unknown>
10014e92: 72 3d        	<unknown>
10014e94: d4 3e        	<unknown>
10014e96: 8d 3e        	<unknown>
10014e98: bd 3e        	<unknown>
10014e9a: 72 bf        	<unknown>
10014e9c: a2 bf        	<unknown>
10014e9e: 8d bf        	<unknown>
10014ea0: 9a 3f        	<unknown>
10014ea2: e1 3f        	<unknown>
10014ea4: cc bd        	<unknown>
10014ea6: 65 bf        	<unknown>
10014ea8: 45 bf        	<unknown>
10014eaa: 04 3e        	<unknown>
10014eac: b3 bf 95 be a1 3f 9e 3f      	<unknown>
10014eb4: 8f 3e 4a be 09 bf a4 bf      	<unknown>
10014ebc: 85 3f        	<unknown>
10014ebe: 90 3e        	<unknown>
10014ec0: 1d 40        	<unknown>
10014ec2: 00 00        	<unknown>
10014ec4: 13 bf c6 3f 8b 3d e3 bf      	<unknown>
10014ecc: 47 be a0 3e a0 be 00 00      	<unknown>
10014ed4: a9 3d        	<unknown>
10014ed6: 6a bf        	<unknown>
10014ed8: e7 bf a7 bd 30 bd a0 be      	<unknown>
10014ee0: ab bf 9a bf 55 bf 36 c0      	<unknown>
10014ee8: 12 3f        	<unknown>
10014eea: 32 bf        	<unknown>
10014eec: 5d bf        	<unknown>
10014eee: b8 bf        	<unknown>
10014ef0: 80 bf        	<unknown>
10014ef2: f8 bf        	<unknown>
10014ef4: 0a 40        	<unknown>
10014ef6: fb be 2d 3d a1 3e 1b 3e      	<unknown>
10014efe: 0a c0        	<unknown>
10014f00: 8e 3f        	<unknown>
10014f02: ec be        	<unknown>
10014f04: ff be ce be 1a bf aa be      	<unknown>
10014f0c: 8e 3f        	<unknown>
10014f0e: 1a 40        	<unknown>
10014f10: 69 bf        	<unknown>
10014f12: d4 be        	<unknown>
10014f14: 0a be        	<unknown>
10014f16: 40 3f        	<unknown>
10014f18: 1e 3e        	<unknown>
10014f1a: 08 bf        	<unknown>
10014f1c: 6a bf        	<unknown>
10014f1e: 0a bf        	<unknown>
10014f20: d8 3e        	<unknown>
10014f22: 12 40        	<unknown>
10014f24: 07 3f 04 bf 5e 3e 1d be      	<unknown>
10014f2c: 08 bf        	<unknown>
10014f2e: bd 3f        	<unknown>
10014f30: a3 3f 16 bf 90 3e 8b be      	<unknown>
10014f38: 50 be        	<unknown>
10014f3a: 00 3f        	<unknown>
10014f3c: 73 be 83 3e 38 bf d0 be      	<unknown>
10014f44: 77 3f ce be c5 bf 65 bf      	<unknown>
10014f4c: 8b bf 90 bf ac 3e 34 bf      	<unknown>
10014f54: 96 3f        	<unknown>
10014f56: ba be        	<unknown>
10014f58: c3 3a 2b bf c8 3e 99 3f      	<unknown>
10014f60: 4f 3d a4 3f 9f 3f 79 3f      	<unknown>
10014f68: c2 3e        	<unknown>
10014f6a: d1 3f        	<unknown>
10014f6c: 60 bf        	<unknown>
10014f6e: c8 be        	<unknown>
10014f70: 46 be        	<unknown>
10014f72: 42 bf        	<unknown>
10014f74: 2f bf 05 3f 35 3f 5f 3f      	<unknown>
10014f7c: 82 3f        	<unknown>
10014f7e: da 3d        	<unknown>
10014f80: 07 bf b6 3f c7 3e 50 3f      	<unknown>
10014f88: 8c be        	<unknown>
10014f8a: 93 3f 59 3e 11 40 c1 bf      	<unknown>
10014f92: 8f 3f 27 bf a4 3f 48 bf      	<unknown>
10014f9a: 4c 3e        	<unknown>
10014f9c: 8a bf        	<unknown>
10014f9e: 94 bf        	<unknown>
10014fa0: dc 3e        	<unknown>
10014fa2: 06 bf        	<unknown>
10014fa4: 1f bf 91 be a8 3e e9 39      	<unknown>
10014fac: 86 bd        	<unknown>
10014fae: 40 bf        	<unknown>
10014fb0: 92 3e        	<unknown>
10014fb2: 8a 3c        	<unknown>
10014fb4: b4 3e        	<unknown>
10014fb6: f0 bf        	<unknown>
10014fb8: a0 3e        	<unknown>
10014fba: 6b 3f 95 bf f3 3e 42 3f      	<unknown>
10014fc2: c1 bd        	<unknown>
10014fc4: b8 bf        	<unknown>
10014fc6: 49 3f        	<unknown>
10014fc8: 32 bf        	<unknown>
10014fca: fd be        	<unknown>
10014fcc: a2 3f        	<unknown>
10014fce: 1f 3f 2e 3e 89 bf 3e 3d      	<unknown>
10014fd6: 38 40        	<unknown>
10014fd8: a6 3f        	<unknown>
10014fda: 7e bf        	<unknown>
10014fdc: 58 3f        	<unknown>
10014fde: 58 3f        	<unknown>
10014fe0: 08 40        	<unknown>
10014fe2: d7 be 91 bf 3e 3f b9 3f      	<unknown>
10014fea: 04 40        	<unknown>
10014fec: 76 be        	<unknown>
10014fee: 0c 3f        	<unknown>
10014ff0: bf 3f b1 3e 70 3e 92 3e      	<unknown>
10014ff8: 11 3d        	<unknown>
10014ffa: 09 be        	<unknown>
10014ffc: 77 bf 13 3f f5 3d 04 bf      	<unknown>
10015004: b4 3f        	<unknown>
10015006: 6d bf        	<unknown>
10015008: 4a 3a        	<unknown>
1001500a: 46 3f        	<unknown>
1001500c: 9e 3f        	<unknown>
1001500e: b7 bf dd bf b8 be b4 bf      	<unknown>
10015016: b1 bd        	<unknown>
10015018: cc 3f        	<unknown>
1001501a: 04 3f        	<unknown>
1001501c: 3c 3e        	<unknown>
1001501e: 09 be        	<unknown>
10015020: ad bf        	<unknown>
10015022: fb be 29 bf 49 be 84 bf      	<unknown>
1001502a: 46 bf        	<unknown>
1001502c: 1d 3e        	<unknown>
1001502e: 8d be        	<unknown>
10015030: b0 be        	<unknown>
10015032: 6b 3f 23 3f 33 40 bc be      	<unknown>
1001503a: e9 3e        	<unknown>
1001503c: c3 bf 2b 3f 1d 3e 20 c0      	<unknown>
10015044: 24 3f        	<unknown>
10015046: a9 bf        	<unknown>
10015048: 39 3d        	<unknown>
1001504a: 59 3f        	<unknown>
1001504c: 2f bf 3c 3c 77 3b 03 bf      	<unknown>
10015054: ee be        	<unknown>
10015056: 64 3f        	<unknown>
10015058: 30 be        	<unknown>
1001505a: 32 bf        	<unknown>
1001505c: e3 3f f6 3e bb 3f 8c bf      	<unknown>
10015064: dd be        	<unknown>
10015066: 49 3f        	<unknown>
10015068: 72 3f        	<unknown>
1001506a: af 3f 98 3e a0 be 3c 3f      	<unknown>
10015072: 13 bf 2d 3f ee be 24 bf      	<unknown>
1001507a: 03 40 66 bf 7e bf 8d 3f      	<unknown>
10015082: b7 3f eb bf 95 bf 6c 3f      	<unknown>
1001508a: 61 3f        	<unknown>
1001508c: 26 bf        	<unknown>
1001508e: 12 40        	<unknown>
10015090: 91 be        	<unknown>
10015092: 1e bf        	<unknown>
10015094: 85 3f        	<unknown>
10015096: cc 3f        	<unknown>
10015098: dd be        	<unknown>
1001509a: fe 3e        	<unknown>
1001509c: e9 3f        	<unknown>
1001509e: 3e bf        	<unknown>
100150a0: 77 bf 1f 40 2c 3f 10 3f      	<unknown>
100150a8: 4a 3f        	<unknown>
100150aa: a1 be        	<unknown>
100150ac: a6 3f        	<unknown>
100150ae: df bf 11 3f 84 3f 88 3f      	<unknown>
100150b6: d9 bf        	<unknown>
100150b8: 90 3f        	<unknown>
100150ba: 0c 3f        	<unknown>
100150bc: 10 bf        	<unknown>
100150be: b7 be 2b 3f 85 bf f8 3e      	<unknown>
100150c6: 8e 3f        	<unknown>
100150c8: b0 bf        	<unknown>
100150ca: 26 c0        	<unknown>
100150cc: 55 3f        	<unknown>
100150ce: 83 3e 76 3e 3a 3f 93 3d      	<unknown>
100150d6: 69 bf        	<unknown>
100150d8: ba 3f        	<unknown>
100150da: fe 3d        	<unknown>
100150dc: a0 3f        	<unknown>
100150de: bf be 51 bf ac be ac be      	<unknown>
100150e6: a1 bf        	<unknown>
100150e8: b7 3e 0c 40 9d 3f 9d be      	<unknown>
100150f0: 2b bf 82 3f c8 be bb bf      	<unknown>
100150f8: ae bf        	<unknown>
100150fa: 49 bf        	<unknown>
100150fc: 52 3f        	<unknown>
100150fe: aa be        	<unknown>
10015100: 82 be        	<unknown>
10015102: 89 bf        	<unknown>
10015104: 5f bf 2b c0 96 bd 03 40      	<unknown>
1001510c: c8 bf        	<unknown>
1001510e: c2 be        	<unknown>
10015110: 09 c0        	<unknown>
10015112: 96 3f        	<unknown>
10015114: 5d 3a        	<unknown>
10015116: 8c bf        	<unknown>
10015118: fc 3e        	<unknown>
1001511a: af 3f db 3f 05 c0 70 bf      	<unknown>
10015122: a7 be c4 be 94 3f 42 bf      	<unknown>
1001512a: cc 39        	<unknown>
1001512c: 0a bf        	<unknown>
1001512e: 54 bf        	<unknown>
10015130: 30 bd        	<unknown>
10015132: 6f bf ab be bd 3f 20 3f      	<unknown>
1001513a: 4e 3f        	<unknown>
1001513c: 9d 3f        	<unknown>
1001513e: c5 be        	<unknown>
10015140: b9 be        	<unknown>
10015142: 13 3f 2a be ae bf 83 3f      	<unknown>
1001514a: 77 be 8f 3e 15 3e 3a 3f      	<unknown>
10015152: 8a 3f        	<unknown>
10015154: 8c bf        	<unknown>
10015156: 9c bf        	<unknown>
10015158: 75 bf        	<unknown>
1001515a: b2 3f        	<unknown>
1001515c: aa 3c        	<unknown>
1001515e: 3e bf        	<unknown>
10015160: 85 3f        	<unknown>
10015162: f3 bd e2 bc a9 3f 63 3f      	<unknown>
1001516a: 91 bf        	<unknown>
1001516c: fd bf        	<unknown>
1001516e: 54 bf        	<unknown>
10015170: 32 3f        	<unknown>
10015172: c8 3d        	<unknown>
10015174: 8e bf        	<unknown>
10015176: a2 3f        	<unknown>
10015178: 11 be        	<unknown>
1001517a: 13 3e d0 be f1 3f 19 be      	<unknown>
10015182: 96 3e        	<unknown>
10015184: 16 40        	<unknown>
10015186: 84 bf        	<unknown>
10015188: eb be af 3f e3 3e e8 bd      	<unknown>
10015190: f3 be f9 3e d9 bf 7c bf      	<unknown>
10015198: 08 bf        	<unknown>
1001519a: 07 be 9b bf 1c 40 b3 bf      	<unknown>
100151a2: ea be        	<unknown>
100151a4: 2e bf        	<unknown>
100151a6: c8 bf        	<unknown>
100151a8: 68 bf        	<unknown>
100151aa: 01 bf        	<unknown>
100151ac: 12 3f        	<unknown>
100151ae: 9e bf        	<unknown>
100151b0: 71 3f        	<unknown>
100151b2: 20 3f        	<unknown>
100151b4: 5f 3f d9 be eb be b8 bf      	<unknown>
100151bc: 32 3f        	<unknown>
100151be: 33 3f 45 be 2c bf 8b bf      	<unknown>
100151c6: 3e be        	<unknown>
100151c8: 8f 3e 8b 3f 23 bf 14 be      	<unknown>
100151d0: 87 bf e0 bf 20 3e f6 be      	<unknown>
100151d8: ef 3e fa bf 66 bf ea be      	<unknown>
100151e0: 1f 3f 4d 3e 89 be 52 be      	<unknown>
100151e8: 1d bd        	<unknown>
100151ea: 5c 3f        	<unknown>
100151ec: a4 be        	<unknown>
100151ee: 3c bf        	<unknown>
100151f0: 18 3f        	<unknown>
100151f2: db 3e ee be d2 3f 54 3f      	<unknown>
100151fa: 2d 3d        	<unknown>
100151fc: 26 be        	<unknown>
100151fe: 29 bf        	<unknown>
10015200: 7d 3f        	<unknown>
10015202: f6 3e        	<unknown>
10015204: e1 be        	<unknown>
10015206: cd 3c        	<unknown>
10015208: 3e 3f        	<unknown>
1001520a: c2 3f        	<unknown>
1001520c: 5b bd 06 3f 0f 3f 91 be      	<unknown>
10015214: b2 bf        	<unknown>
10015216: ad bd        	<unknown>
10015218: 32 bf        	<unknown>
1001521a: c7 be 2d be f0 3d da bf      	<unknown>
10015222: da bd        	<unknown>
10015224: dd 3e        	<unknown>
10015226: a5 be        	<unknown>
10015228: f6 bf        	<unknown>
1001522a: 1b be a3 3d b3 3e a3 3f      	<unknown>
10015232: c1 be        	<unknown>
10015234: 7d bf        	<unknown>
10015236: 68 3f        	<unknown>
10015238: 9c 3f        	<unknown>
1001523a: 45 3f        	<unknown>
1001523c: 3b be 5f bf 87 bf 1f bf      	<unknown>
10015244: 7c be        	<unknown>
10015246: af bf 41 be 9f 3f 45 3f      	<unknown>
1001524e: 1c 3f        	<unknown>
10015250: ac 3f        	<unknown>
10015252: 0c c0        	<unknown>
10015254: 09 bf        	<unknown>
10015256: 31 3e        	<unknown>
10015258: c1 3f        	<unknown>
1001525a: 15 bf        	<unknown>
1001525c: 98 bd        	<unknown>
1001525e: 49 bf        	<unknown>
10015260: 1e 40        	<unknown>
10015262: 2d bf        	<unknown>
10015264: 99 bf        	<unknown>
10015266: 8e be        	<unknown>
10015268: bd bf        	<unknown>
1001526a: 4c 3f        	<unknown>
1001526c: 33 3e 49 3f db 3e 6e 3f      	<unknown>
10015274: fa be        	<unknown>
10015276: c2 bf        	<unknown>
10015278: bb 3f 9f bf 95 3f 9b 3e      	<unknown>
10015280: c9 bf        	<unknown>
10015282: 93 bf 8f bf 27 bf 2c bf      	<unknown>
1001528a: 09 be        	<unknown>
1001528c: a5 be        	<unknown>
1001528e: 01 40        	<unknown>
10015290: a5 be        	<unknown>
10015292: 70 bf        	<unknown>
10015294: 9b be 25 bf 02 40 8f 3e      	<unknown>
1001529c: 79 3f        	<unknown>
1001529e: 9a 3e        	<unknown>
100152a0: 8c 3f        	<unknown>
100152a2: 03 c0 63 be 0d 3f 4e 3f      	<unknown>
100152aa: 8f bf 1f 3f a7 3e c0 bf      	<unknown>
100152b2: 69 bf        	<unknown>
100152b4: e3 3f 29 bf 4e 3f 34 bf      	<unknown>
100152bc: aa 3f        	<unknown>
100152be: 76 3e        	<unknown>
100152c0: 79 3f        	<unknown>
100152c2: 99 bf        	<unknown>
100152c4: 1c be        	<unknown>
100152c6: 07 bf a7 3f 45 3e 8c be      	<unknown>
100152ce: 56 bc        	<unknown>
100152d0: 4c 3f        	<unknown>
100152d2: c5 be        	<unknown>
100152d4: 6e 3c        	<unknown>
100152d6: dd 3f        	<unknown>
100152d8: a0 3f        	<unknown>
100152da: f5 be        	<unknown>
100152dc: 14 3e        	<unknown>
100152de: 06 bf        	<unknown>
100152e0: 65 3f        	<unknown>
100152e2: 5b bf 8a bf 06 3f 9a 3b      	<unknown>
100152ea: 16 bf        	<unknown>
100152ec: 0c 3e        	<unknown>
100152ee: 4e bf        	<unknown>
100152f0: 30 be        	<unknown>
100152f2: cd 3e        	<unknown>
100152f4: ce bf        	<unknown>
100152f6: 93 be 00 be ee bf f7 3f      	<unknown>
100152fe: 1e 3f        	<unknown>
10015300: c3 3e fa be e9 bf bb 3f      	<unknown>
10015308: a3 3d 07 c0 b8 bf b3 3f      	<unknown>
10015310: c5 3f        	<unknown>
10015312: 44 3f        	<unknown>
10015314: e7 3a 6e 3f 93 bf ba be      	<unknown>
1001531c: 40 bf        	<unknown>
1001531e: 8a be        	<unknown>
10015320: cc bc        	<unknown>
10015322: 86 3f        	<unknown>
10015324: 3f 3f 18 be 0e bf e9 3e      	<unknown>
1001532c: df 3e 92 bf 8b 3f 52 3f      	<unknown>
10015334: 4a bf        	<unknown>
10015336: 7f 3f 48 bf 07 be b6 3f      	<unknown>
1001533e: 11 be        	<unknown>
10015340: c1 3e        	<unknown>
10015342: 13 3f 9b be b9 3d 6c 3f      	<unknown>
1001534a: e5 3e        	<unknown>
1001534c: 9f bf 00 00 4b bf 13 3f      	<unknown>
10015354: 76 bf        	<unknown>
10015356: a7 bf 74 bd 60 bf a3 3e      	<unknown>
1001535e: 00 00        	<unknown>
10015360: 33 bf 96 be f8 bf 5d bf      	<unknown>
10015368: b6 3d        	<unknown>
1001536a: 07 40 88 be 75 3f 6c bf      	<unknown>
10015372: 8f be ab be 9c 3f 17 c0      	<unknown>
1001537a: d0 be        	<unknown>
1001537c: 52 be        	<unknown>
1001537e: 8e be        	<unknown>
10015380: 96 be        	<unknown>
10015382: ec 3e        	<unknown>
10015384: 99 3f        	<unknown>
10015386: 7a 3f        	<unknown>
10015388: 10 bf        	<unknown>
1001538a: 3d 3f        	<unknown>
1001538c: 13 3f 7c bf 42 3f 2a 3e      	<unknown>
10015394: b2 be        	<unknown>
10015396: 2a bf        	<unknown>
10015398: 1d 3f        	<unknown>
1001539a: 2a 3e        	<unknown>
1001539c: 00 00        	<unknown>
1001539e: db bf 6d 3f 8e bf f4 3e      	<unknown>
100153a6: 8e bf        	<unknown>
100153a8: 70 3e        	<unknown>
100153aa: ea bc        	<unknown>
100153ac: 93 bd 00 00 21 bf 9a bf      	<unknown>
100153b4: 94 3f        	<unknown>
100153b6: 32 bf        	<unknown>
100153b8: b7 bf 02 bf a4 bf 00 00      	<unknown>
100153c0: 8b 3e 94 be 62 bf e1 3f      	<unknown>
100153c8: 6a 3f        	<unknown>
100153ca: 25 40        	<unknown>
100153cc: 52 3f        	<unknown>
100153ce: 51 3e        	<unknown>
100153d0: fa be        	<unknown>
100153d2: 5f 3f 87 3f 03 bf 9f 3f      	<unknown>
100153da: 08 c0        	<unknown>
100153dc: f8 3d        	<unknown>
100153de: 85 bf        	<unknown>
100153e0: 05 bf        	<unknown>
100153e2: 90 bf        	<unknown>
100153e4: 00 40        	<unknown>
100153e6: b1 be        	<unknown>
100153e8: ce be        	<unknown>
100153ea: c4 3f        	<unknown>
100153ec: d5 be        	<unknown>
100153ee: 3e be        	<unknown>
100153f0: ad 3f        	<unknown>
100153f2: 7e be        	<unknown>
100153f4: 4b bf db be 8f be 01 3f      	<unknown>
100153fc: 8a bf        	<unknown>
100153fe: 9f 3f 1a 3f 76 3f 7c bf      	<unknown>
10015406: c2 3f        	<unknown>
10015408: 90 be        	<unknown>
1001540a: 0b 3e c7 3e 35 3f 67 3f      	<unknown>
10015412: 8f be 79 3f 77 be 8c 3e      	<unknown>
1001541a: eb be e0 3f 68 3f b8 3e      	<unknown>
10015422: e1 3f        	<unknown>
10015424: 7b be 8e 3f c2 3f 7d bf      	<unknown>
1001542c: 10 c0        	<unknown>
1001542e: 50 bf        	<unknown>
10015430: 10 3c        	<unknown>
10015432: 12 bf        	<unknown>
10015434: da be        	<unknown>
10015436: 3e 3f        	<unknown>
10015438: ae be        	<unknown>
1001543a: 5c bf        	<unknown>
1001543c: 1c c0        	<unknown>
1001543e: d4 3e        	<unknown>
10015440: 61 bf        	<unknown>
10015442: 56 3e        	<unknown>
10015444: 51 3f        	<unknown>
10015446: 14 3f        	<unknown>
10015448: 87 3e 7c 3e e9 be 24 bf      	<unknown>
10015450: 00 40        	<unknown>
10015452: 88 bf        	<unknown>
10015454: c3 3f 4b bf e0 3f 70 bf      	<unknown>
1001545c: 8e 3f        	<unknown>
1001545e: 61 3f        	<unknown>
10015460: 0e bf        	<unknown>
10015462: 9f be 97 bf fa be ca 3f      	<unknown>
1001546a: c2 3e        	<unknown>
1001546c: 0c 3f        	<unknown>
1001546e: 8b be a0 be 21 be 16 be      	<unknown>
10015476: a2 bf        	<unknown>
10015478: 9b be 43 3e 23 3f a1 bf      	<unknown>
10015480: c9 be        	<unknown>
10015482: 5c be        	<unknown>
10015484: 1f 40 17 3f 10 3d 3b bf      	<unknown>
1001548c: 0d c0        	<unknown>
1001548e: 6f bf 4f 3c 18 bd 0f 3f      	<unknown>
10015496: 2a bf        	<unknown>
10015498: fe 3e        	<unknown>
1001549a: 4c 3f        	<unknown>
1001549c: a2 3e        	<unknown>
1001549e: 09 3e        	<unknown>
100154a0: 79 3f        	<unknown>
100154a2: 96 bf        	<unknown>
100154a4: 74 be        	<unknown>
100154a6: d5 be        	<unknown>
100154a8: 12 bf        	<unknown>
100154aa: 5e 3f        	<unknown>
100154ac: 8a be        	<unknown>
100154ae: 0a 3f        	<unknown>
100154b0: 5b bf b8 3e 1f bf bc bf      	<unknown>
100154b8: ff be 87 3e d1 3e e3 be      	<unknown>
100154c0: bc bf        	<unknown>
100154c2: 22 3f        	<unknown>
100154c4: 77 bf 95 3f e2 3f 6b bf      	<unknown>
100154cc: 88 3f        	<unknown>
100154ce: 88 3f        	<unknown>
100154d0: a7 be f9 bd 95 3f a9 bf      	<unknown>
100154d8: 71 3f        	<unknown>
100154da: 68 3f        	<unknown>
100154dc: d2 3e        	<unknown>
100154de: c3 be a5 bf 5c bf 3c be      	<unknown>
100154e6: 87 3f b4 3d 8a 3f 49 3f      	<unknown>
100154ee: 81 3f        	<unknown>
100154f0: 27 bf 1a 3f 81 3e 87 3e      	<unknown>
100154f8: 5b 3f 22 bf 90 be 71 bf      	<unknown>
10015500: 86 3f        	<unknown>
10015502: da bf        	<unknown>
10015504: d3 bf 57 3f e2 bf 27 bf      	<unknown>
1001550c: 84 3e        	<unknown>
1001550e: 04 c0        	<unknown>
10015510: f2 bf        	<unknown>
10015512: 80 3f        	<unknown>
10015514: 71 3e        	<unknown>
10015516: 5f bd e0 3a 09 be b3 3e      	<unknown>
1001551e: 86 3e        	<unknown>
10015520: 4a bf        	<unknown>
10015522: ae bf        	<unknown>
10015524: ff bf 5b 3f ac 3e 26 3f      	<unknown>
1001552c: 9b 3e 45 3f 0c bf 2d be      	<unknown>
10015534: d1 be        	<unknown>
10015536: d0 3e        	<unknown>
10015538: bc bf        	<unknown>
1001553a: 61 3f        	<unknown>
1001553c: df bd e0 3f 0c 3f 0b 3f      	<unknown>
10015544: 2f 3f ad bf 11 bd 1b 40      	<unknown>
1001554c: ac 3e        	<unknown>
1001554e: 40 3e        	<unknown>
10015550: fe 3e        	<unknown>
10015552: f4 be        	<unknown>
10015554: 9e bf        	<unknown>
10015556: 1c 3f        	<unknown>
10015558: ce be        	<unknown>
1001555a: 9e be        	<unknown>
1001555c: db 3e 11 3f c5 be a0 3e      	<unknown>
10015564: 42 3f        	<unknown>
10015566: 10 3f        	<unknown>
10015568: 71 be        	<unknown>
1001556a: ce bf        	<unknown>
1001556c: 86 3f        	<unknown>
1001556e: d2 be        	<unknown>
10015570: 4e be        	<unknown>
10015572: 1c bf        	<unknown>
10015574: f2 bf        	<unknown>
10015576: a5 bf        	<unknown>
10015578: c8 bf        	<unknown>
1001557a: e1 3e        	<unknown>
1001557c: ae be        	<unknown>
1001557e: 15 3f        	<unknown>
10015580: fe be        	<unknown>
10015582: 4f bf d6 3e d4 be 43 bd      	<unknown>
1001558a: 1c 3f        	<unknown>
1001558c: 3c 3f        	<unknown>
1001558e: 2f be 34 3f c0 bf 95 3f      	<unknown>
10015596: 0b bf f5 bf 83 bf 9e bf      	<unknown>
1001559e: 1b bf b9 3e 99 bf dd bf      	<unknown>
100155a6: 98 bf        	<unknown>
100155a8: 4f bf 08 c0 43 3e 60 be      	<unknown>
100155b0: a9 3f        	<unknown>
100155b2: 98 3a        	<unknown>
100155b4: 09 be        	<unknown>
100155b6: c4 3e        	<unknown>
100155b8: a3 be d0 3d d6 bd 08 3f      	<unknown>
100155c0: 27 3f b6 be f1 3e 00 00      	<unknown>
100155c8: 0e bf        	<unknown>
100155ca: 44 bf        	<unknown>
100155cc: 97 3f e9 be da 3f 90 bf      	<unknown>
100155d4: 56 3e        	<unknown>
100155d6: 00 00        	<unknown>
100155d8: 8f 3f b6 bf c3 bf ff 3d      	<unknown>
100155e0: 55 bf        	<unknown>
100155e2: b9 bf        	<unknown>
100155e4: ae bf        	<unknown>
100155e6: 10 3f        	<unknown>
100155e8: 21 3e        	<unknown>
100155ea: 4c bf        	<unknown>
100155ec: 8a bf        	<unknown>
100155ee: 7f 3f d9 3d 81 bf 8e bf      	<unknown>
100155f6: 8d bf        	<unknown>
100155f8: 11 c0        	<unknown>
100155fa: 57 3f e8 3f 02 bf 4d bf      	<unknown>
10015602: f5 3f        	<unknown>
10015604: 4b bf b3 3e fa be 0f bf      	<unknown>
1001560c: 09 3e        	<unknown>
1001560e: 9c 3f        	<unknown>
10015610: 02 3f        	<unknown>
10015612: 30 3f        	<unknown>
10015614: 0e 3f        	<unknown>
10015616: e5 3e        	<unknown>
10015618: 3a bd        	<unknown>
1001561a: b5 3e        	<unknown>
1001561c: 88 3f        	<unknown>
1001561e: 27 3f a7 3f 3e 3e 2c bf      	<unknown>
10015626: a4 be        	<unknown>
10015628: 5d be        	<unknown>
1001562a: 29 3e        	<unknown>
1001562c: d8 be        	<unknown>
1001562e: 20 be        	<unknown>
10015630: 96 be        	<unknown>
10015632: 9e 3e        	<unknown>
10015634: c1 bd        	<unknown>
10015636: 8e be        	<unknown>
10015638: dc bc        	<unknown>
1001563a: d3 be 5b 3e 66 3f 00 00      	<unknown>
10015642: ca bf        	<unknown>
10015644: 27 3f 09 bf 62 3f 23 3f      	<unknown>
1001564c: 64 3f        	<unknown>
1001564e: aa 3f        	<unknown>
10015650: 00 00        	<unknown>
10015652: a6 be        	<unknown>
10015654: 03 3f 9b 3e 42 3f fd be      	<unknown>
1001565c: 9a 3f        	<unknown>
1001565e: 03 3f b3 be db 3e 90 be      	<unknown>
10015666: 4a 3e        	<unknown>
10015668: 37 3e d0 3d c7 3d f3 bf      	<unknown>
10015670: fd be        	<unknown>
10015672: db be 2b bf 76 3e 82 3e      	<unknown>
1001567a: bc bf        	<unknown>
1001567c: c9 3e        	<unknown>
1001567e: b2 bd        	<unknown>
10015680: 4f 3f a0 3f d4 3f e4 3f      	<unknown>
10015688: e5 be        	<unknown>
1001568a: 1e 40        	<unknown>
1001568c: d4 be        	<unknown>
1001568e: 07 bf 71 3f d1 be 62 3f      	<unknown>
10015696: 34 bf        	<unknown>
10015698: ab 3e 88 bf a8 bf a4 3f      	<unknown>
100156a0: f5 3f        	<unknown>
100156a2: f5 be        	<unknown>
100156a4: 00 00        	<unknown>
100156a6: 89 3e        	<unknown>
100156a8: d6 be        	<unknown>
100156aa: 64 bc        	<unknown>
100156ac: 98 3f        	<unknown>
100156ae: 06 3f        	<unknown>
100156b0: 7b be 30 3e 00 00 77 3e      	<unknown>
100156b8: 95 3d        	<unknown>
100156ba: 1b 3f ce 3f 35 3f c0 3e      	<unknown>
100156c2: 7e 3f        	<unknown>
100156c4: 23 bf b9 3e ce bf f7 bd      	<unknown>
100156cc: 3e 3f        	<unknown>
100156ce: 05 40        	<unknown>
100156d0: 4e 3f        	<unknown>
100156d2: 93 be 81 3e a9 3f 03 3e      	<unknown>
100156da: a1 be        	<unknown>
100156dc: da bf        	<unknown>
100156de: 6d 3f        	<unknown>
100156e0: 20 3f        	<unknown>
100156e2: 8b 3f bd 3e 63 bd 08 bf      	<unknown>
100156ea: b1 bf        	<unknown>
100156ec: 21 3f        	<unknown>
100156ee: 8b 3f 95 3f a9 3f 15 3d      	<unknown>
100156f6: 99 3f        	<unknown>
100156f8: e2 3d        	<unknown>
100156fa: 49 3f        	<unknown>
100156fc: 8e 3f        	<unknown>
100156fe: 90 bd        	<unknown>
10015700: 18 bf        	<unknown>
10015702: 90 be        	<unknown>
10015704: a2 3f        	<unknown>
10015706: b3 be 08 3e 92 3d b1 3e      	<unknown>
1001570e: 12 40        	<unknown>
10015710: 0a 3f        	<unknown>
10015712: e8 be        	<unknown>
10015714: c5 3f        	<unknown>
10015716: bd be        	<unknown>
10015718: 43 3f f2 bf 77 3f c2 3f      	<unknown>
10015720: 8e be        	<unknown>
10015722: 18 bf        	<unknown>
10015724: 3d 3f        	<unknown>
10015726: 00 00        	<unknown>
10015728: c1 3f        	<unknown>
1001572a: ca be        	<unknown>
1001572c: 03 bf 4c bf 2e 40 d3 be      	<unknown>
10015734: 2b 3f 00 00 45 bf 65 3f      	<unknown>
1001573c: 0f 3f 6c bf 32 be d5 3f      	<unknown>
10015744: e3 be 05 bf 72 be d1 3d      	<unknown>
1001574c: 87 3f 21 be 32 bf 19 bf      	<unknown>
10015754: ba be        	<unknown>
10015756: 85 bf        	<unknown>
10015758: fe bf        	<unknown>
1001575a: 0a 40        	<unknown>
1001575c: 51 bf        	<unknown>
1001575e: bf be 06 40 39 bf 25 3f      	<unknown>
10015766: c7 3e f0 3f 04 c0 a8 3e      	<unknown>
1001576e: 31 be        	<unknown>
10015770: ba 3e        	<unknown>
10015772: 92 3e        	<unknown>
10015774: 62 bf        	<unknown>
10015776: 88 bf        	<unknown>
10015778: 98 bf        	<unknown>
1001577a: b3 bf f1 bd 61 3f 39 3f      	<unknown>
10015782: 72 bf        	<unknown>
10015784: a0 bd        	<unknown>
10015786: a3 bf 34 3d 36 3e c7 bf      	<unknown>
1001578e: aa 3f        	<unknown>
10015790: 57 3f 9f bf b4 3e 7b bf      	<unknown>
10015798: 96 bf        	<unknown>
1001579a: de 3f        	<unknown>
1001579c: 00 bf        	<unknown>
1001579e: 9a 3f        	<unknown>
100157a0: 92 3f        	<unknown>
100157a2: ca bf        	<unknown>
100157a4: b5 3e        	<unknown>
100157a6: 23 3f 5a 3f 96 be a4 3f      	<unknown>
100157ae: 97 be 46 bf dc 3e 71 3e      	<unknown>
100157b6: 68 3f        	<unknown>
100157b8: b5 3f        	<unknown>
100157ba: 32 bf        	<unknown>
100157bc: 42 bf        	<unknown>
100157be: 33 bf ea 3f 97 be 9a bf      	<unknown>
100157c6: 95 be        	<unknown>
100157c8: d8 3f        	<unknown>
100157ca: 9b be 5b 3e 20 3f b7 3f      	<unknown>
100157d2: 6f bf 50 bf 7d 3e 89 3f      	<unknown>
100157da: df 3d 8a 3f 7a bf 01 c0      	<unknown>
100157e2: a5 bf        	<unknown>
100157e4: 8f 3e 94 3d a9 3f d8 3d      	<unknown>
100157ec: df 3e 78 bf 39 3f 27 3e      	<unknown>
100157f4: b4 3f        	<unknown>
100157f6: ba 3e        	<unknown>
100157f8: 66 bf        	<unknown>
100157fa: be 3f        	<unknown>
100157fc: 2a c0        	<unknown>
100157fe: 53 3f a9 3d 4a 3e 01 bf      	<unknown>
10015806: a8 3e        	<unknown>
10015808: 1c 3f        	<unknown>
1001580a: a6 3e        	<unknown>
1001580c: 26 be        	<unknown>
1001580e: a3 3f df 3f 9a bf 83 be      	<unknown>
10015816: 1d 3f        	<unknown>
10015818: 8a 3f        	<unknown>
1001581a: ba 3f        	<unknown>
1001581c: 15 be        	<unknown>
1001581e: 0d bf        	<unknown>
10015820: 97 3e dd 38 18 40 9b bf      	<unknown>
10015828: 43 3f 75 3f 18 bf c6 3f      	<unknown>
10015830: 90 bf        	<unknown>
10015832: 5f 3e 1e be c1 bd 85 bf      	<unknown>
1001583a: a1 3e        	<unknown>
1001583c: c5 3f        	<unknown>
1001583e: cd bd        	<unknown>
10015840: f0 3e        	<unknown>
10015842: 5b bf b6 3e e5 3d 91 bf      	<unknown>
1001584a: 27 3e dc bd c2 3f 2c 3e      	<unknown>
10015852: 88 bd        	<unknown>
10015854: 17 40 94 3e 94 be 6f 3f      	<unknown>
1001585c: 17 bf 77 be d9 3f 17 3f      	<unknown>
10015864: 43 bd 65 3f 25 3f a0 bf      	<unknown>
1001586c: 07 3f 0a c0 33 3f 02 3f      	<unknown>
10015874: a3 3e 57 bf 17 40 af 3f      	<unknown>
1001587c: 6f 3f 86 bd 9d 3f da 3e      	<unknown>
10015884: d2 3f        	<unknown>
10015886: 09 c0        	<unknown>
10015888: fa bf        	<unknown>
1001588a: 7e 3e        	<unknown>
1001588c: 70 bf        	<unknown>
1001588e: 94 bf        	<unknown>
10015890: 20 be        	<unknown>
10015892: a4 3f        	<unknown>
10015894: 22 be        	<unknown>
10015896: 88 be        	<unknown>
10015898: 34 3f        	<unknown>
1001589a: 2d bf        	<unknown>
1001589c: 45 3f        	<unknown>
1001589e: 27 bf cc be 9a bf 87 bf      	<unknown>
100158a6: 48 3f        	<unknown>
100158a8: a9 be        	<unknown>
100158aa: 13 3f 12 3e d2 3e 8d bd      	<unknown>
100158b2: 19 be        	<unknown>
100158b4: fb be d6 3e 8a bd 83 3e      	<unknown>
100158bc: 52 3f        	<unknown>
100158be: f4 3e        	<unknown>
100158c0: c8 bf        	<unknown>
100158c2: 59 3f        	<unknown>
100158c4: e9 bd        	<unknown>
100158c6: 41 3e        	<unknown>
100158c8: b2 be        	<unknown>
100158ca: 0e 3f        	<unknown>
100158cc: 44 3f        	<unknown>
100158ce: c3 3f 4e 3d 31 40 74 bf      	<unknown>
100158d6: 73 3f 1f be 4a 3f bf bf      	<unknown>
100158de: bb 3f bd bf 98 3f 6a 3f      	<unknown>
100158e6: 47 bf 57 be 9b be 94 3f      	<unknown>
100158ee: a4 3e        	<unknown>
100158f0: bc 3a        	<unknown>
100158f2: 9c be        	<unknown>
100158f4: 8f 3e cb 3d 3e bf 28 bf      	<unknown>
100158fc: 9b 3f ef be a6 3f c2 be      	<unknown>
10015904: d0 bf        	<unknown>
10015906: 42 3f        	<unknown>
10015908: 5f be 0a 3e 41 3f b1 bf      	<unknown>
10015910: 27 3f 0c 40 7c bf 39 3f      	<unknown>
10015918: 72 be        	<unknown>
1001591a: 45 3e        	<unknown>
1001591c: 68 bf        	<unknown>
1001591e: 9c be        	<unknown>
10015920: 1f 3e 73 bf bb 3e 49 bf      	<unknown>
10015928: 93 bf 89 be a1 be 2a 3f      	<unknown>
10015930: 72 bf        	<unknown>
10015932: 48 3f        	<unknown>
10015934: 6e 3e        	<unknown>
10015936: 26 3f        	<unknown>
10015938: 92 3a        	<unknown>
1001593a: ee be        	<unknown>
1001593c: f1 be        	<unknown>
1001593e: f6 be        	<unknown>
10015940: 2a 3c        	<unknown>
10015942: c1 3e        	<unknown>
10015944: 9d be        	<unknown>
10015946: ed bf        	<unknown>
10015948: 95 3f        	<unknown>
1001594a: e7 be 01 3f 20 bf d1 bf      	<unknown>
10015952: da be        	<unknown>
10015954: 4c bf        	<unknown>
10015956: 95 bf        	<unknown>
10015958: fb bf af 3f de 3e 0b bf      	<unknown>
10015960: a2 3f        	<unknown>
10015962: 07 3f 04 3f c7 be 92 3f      	<unknown>
1001596a: 89 bf        	<unknown>
1001596c: 9f 3f 88 bd 0c bf 73 bf      	<unknown>
10015974: 1a 3f        	<unknown>
10015976: 1c 3f        	<unknown>
10015978: 20 bf        	<unknown>
1001597a: 00 3f        	<unknown>
1001597c: e7 bf 97 bf 98 be 70 3f      	<unknown>
10015984: db 3e 35 3e 18 bf fb be      	<unknown>
1001598c: 19 3f        	<unknown>
1001598e: 33 3e c2 3e d4 3f 99 3f      	<unknown>
10015996: 3c bc        	<unknown>
10015998: 39 be        	<unknown>
1001599a: 4a bf        	<unknown>
1001599c: 52 bf        	<unknown>
1001599e: f4 be        	<unknown>
100159a0: 28 3e        	<unknown>
100159a2: 9e 3f        	<unknown>
100159a4: ae 3e        	<unknown>
100159a6: 08 bf        	<unknown>
100159a8: d3 3e bf 3e 53 3f 0a be      	<unknown>
100159b0: cd 3f        	<unknown>
100159b2: 88 3f        	<unknown>
100159b4: 54 40        	<unknown>
100159b6: e0 3e        	<unknown>
100159b8: 45 3f        	<unknown>
100159ba: 4c 3f        	<unknown>
100159bc: c8 3e        	<unknown>
100159be: 30 3e        	<unknown>
100159c0: b6 3e        	<unknown>
100159c2: 49 bf        	<unknown>
100159c4: bd 3f        	<unknown>
100159c6: 67 3f 8d bf ee be c5 bf      	<unknown>
100159ce: 8b bf ce be 25 bf 33 3f      	<unknown>
100159d6: 8b bf de be 28 3f 97 bf      	<unknown>
100159de: a1 3f        	<unknown>
100159e0: 16 bf        	<unknown>
100159e2: 3c 3f        	<unknown>
100159e4: 89 be        	<unknown>
100159e6: 9c 3e        	<unknown>
100159e8: 20 3e        	<unknown>
100159ea: c3 3e 7b 3f 42 3e 9e 3f      	<unknown>
100159f2: 45 3f        	<unknown>
100159f4: 09 40        	<unknown>
100159f6: 3e 40        	<unknown>
100159f8: 35 be        	<unknown>
100159fa: 74 bf        	<unknown>
100159fc: 8e bf        	<unknown>
100159fe: 04 bf        	<unknown>
10015a00: 49 3f        	<unknown>
10015a02: 04 3f        	<unknown>
10015a04: 97 3f d8 3e fb 3f 00 00      	<unknown>
10015a0c: 3f c0 33 3f 34 be 34 bf      	<unknown>
10015a14: a6 3e        	<unknown>
10015a16: 08 40        	<unknown>
10015a18: c8 3e        	<unknown>
10015a1a: 00 00        	<unknown>
10015a1c: 12 3e        	<unknown>
10015a1e: 07 40 87 3c 5d 3f a0 bf      	<unknown>
10015a26: 25 3e        	<unknown>
10015a28: d7 be 2a be 77 3f c7 be      	<unknown>
10015a30: 26 c0        	<unknown>
10015a32: da 3d        	<unknown>
10015a34: 35 bf        	<unknown>
10015a36: 07 3f 32 c0 0b 3f f0 bf      	<unknown>
10015a3e: 2d bf        	<unknown>
10015a40: 95 bf        	<unknown>
10015a42: 00 00        	<unknown>
10015a44: 1e 3f        	<unknown>
10015a46: 23 be 6b be ac 3e 82 be      	<unknown>
10015a4e: 03 3f b7 3e 00 00 2e 3f      	<unknown>
10015a56: 89 3e        	<unknown>
10015a58: 28 bf        	<unknown>
10015a5a: f6 3f        	<unknown>
10015a5c: 36 3f        	<unknown>
10015a5e: 03 3f 88 bf 7c 3e 38 3b      	<unknown>
10015a66: fc 3e        	<unknown>
10015a68: 23 3f 09 bf 40 3f 03 bf      	<unknown>
10015a70: d5 3f        	<unknown>
10015a72: d2 3f        	<unknown>
10015a74: e3 be fc 3d 0c 3f 11 bf      	<unknown>
10015a7c: 0b bf c9 be b4 be 20 bf      	<unknown>
10015a84: 53 3e 8e 3f 38 bf 39 bf      	<unknown>
10015a8c: ba 3f        	<unknown>
10015a8e: de 3f        	<unknown>
10015a90: 61 be        	<unknown>
10015a92: 3a bf        	<unknown>
10015a94: 55 3f        	<unknown>
10015a96: 7e be        	<unknown>
10015a98: 12 c0        	<unknown>
10015a9a: 04 c0        	<unknown>
10015a9c: 77 3f a4 3f e5 be 38 3f      	<unknown>
10015aa4: b3 3f 92 3f 28 be 5b 3f      	<unknown>
10015aac: 68 3e        	<unknown>
10015aae: 93 bf 34 be e9 3e 93 bf      	<unknown>
10015ab6: 98 bd        	<unknown>
10015ab8: ef bf 9f bf 05 bf a0 3f      	<unknown>
10015ac0: ea bf        	<unknown>
10015ac2: 48 3d        	<unknown>
10015ac4: 2d 3f        	<unknown>
10015ac6: 93 3f e9 3e b4 3b f7 3e      	<unknown>
10015ace: 7f be 69 be a6 bf 79 3e      	<unknown>
10015ad6: 63 bf be 3f 5e bf d5 3e      	<unknown>
10015ade: 06 be        	<unknown>
10015ae0: d2 3f        	<unknown>
10015ae2: 0b be 1e 40 a1 bf 89 3f      	<unknown>
10015aea: 4b be 08 3e e1 3e ff 3e      	<unknown>
10015af2: 93 3d 00 00 9f bf ba 3f      	<unknown>
10015afa: 9b 3c a9 bf 24 bf ed bf      	<unknown>
10015b02: 09 3f        	<unknown>
10015b04: 0a 3f        	<unknown>
10015b06: 97 3e be be 9b bf dc bf      	<unknown>
10015b0e: fb be 42 bf 77 bf 64 3e      	<unknown>
10015b16: 90 bf        	<unknown>
10015b18: 31 3f        	<unknown>
10015b1a: 89 be        	<unknown>
10015b1c: 79 bf        	<unknown>
10015b1e: c0 3c        	<unknown>
10015b20: 49 3e        	<unknown>
10015b22: 0e 3f        	<unknown>
10015b24: e4 bc        	<unknown>
10015b26: c6 3f        	<unknown>
10015b28: 58 be        	<unknown>
10015b2a: 32 3e        	<unknown>
10015b2c: b6 3f        	<unknown>
10015b2e: 25 3f        	<unknown>
10015b30: 5c bf        	<unknown>
10015b32: 25 3f        	<unknown>
10015b34: 8f bf b2 be d8 3e 94 3f      	<unknown>
10015b3c: b6 3e        	<unknown>
10015b3e: 17 40 a5 bf cd be 09 c0      	<unknown>
10015b46: 65 3d        	<unknown>
10015b48: f0 be        	<unknown>
10015b4a: d5 3f        	<unknown>
10015b4c: 57 3f 27 3f 87 bf a2 bf      	<unknown>
10015b54: 08 3b        	<unknown>
10015b56: be bf        	<unknown>
10015b58: 88 3f        	<unknown>
10015b5a: 02 3f        	<unknown>
10015b5c: c8 3f        	<unknown>
10015b5e: 31 bf        	<unknown>
10015b60: b1 bf        	<unknown>
10015b62: 17 3e ad be 2c bd 26 c0      	<unknown>
10015b6a: 2b 3e 81 bf a9 bf 34 bf      	<unknown>
10015b72: 04 40        	<unknown>
10015b74: 78 bf        	<unknown>
10015b76: 8e be        	<unknown>
10015b78: 35 3f        	<unknown>
10015b7a: d0 3f        	<unknown>
10015b7c: 14 3e        	<unknown>
10015b7e: 32 3f        	<unknown>
10015b80: 9f 3f ff 3f 86 be 9e be      	<unknown>
10015b88: c7 3e cb be 1b c0 d2 bf      	<unknown>
10015b90: ce be        	<unknown>
10015b92: 49 bf        	<unknown>
10015b94: de bf        	<unknown>
10015b96: c1 3d        	<unknown>
10015b98: 42 bf        	<unknown>
10015b9a: 30 bf        	<unknown>
10015b9c: 6c 3e        	<unknown>
10015b9e: cb 3f d5 be 85 3f fe bf      	<unknown>
10015ba6: 6e bf        	<unknown>
10015ba8: 7e bf        	<unknown>
10015baa: c5 3f        	<unknown>
10015bac: 73 3f 00 00 b9 be 08 be      	<unknown>
10015bb4: 24 3f        	<unknown>
10015bb6: 17 3f 76 3f d9 3e 1e 40      	<unknown>
10015bbe: 00 00        	<unknown>
10015bc0: 46 3e        	<unknown>
10015bc2: 9c bf        	<unknown>
10015bc4: a5 3f        	<unknown>
10015bc6: 13 bf 78 bf ac be ba 3f      	<unknown>
10015bce: b5 bf        	<unknown>
10015bd0: 46 3d        	<unknown>
10015bd2: 57 be ed 3e b3 3f 90 bf      	<unknown>
10015bda: af bd 4c bf 4b be f2 be      	<unknown>
10015be2: dc be        	<unknown>
10015be4: c8 3f        	<unknown>
10015be6: b4 bf        	<unknown>
10015be8: 9e 3f        	<unknown>
10015bea: 85 3f        	<unknown>
10015bec: 68 3e        	<unknown>
10015bee: 94 3f        	<unknown>
10015bf0: 7a 3c        	<unknown>
10015bf2: 17 c0 dd 3f 08 40 fa be      	<unknown>
10015bfa: de 3f        	<unknown>
10015bfc: 1e bf        	<unknown>
10015bfe: ff be 44 bf dd 3b b6 3f      	<unknown>
10015c06: 28 bf        	<unknown>
10015c08: 8f bf 8e be a1 3e c3 bf      	<unknown>
10015c10: d5 bf        	<unknown>
10015c12: 88 bf        	<unknown>
10015c14: 10 bf        	<unknown>
10015c16: 92 3f        	<unknown>
10015c18: 41 3f        	<unknown>
10015c1a: 69 be        	<unknown>
10015c1c: 19 c0        	<unknown>
10015c1e: c1 3f        	<unknown>
10015c20: 35 be        	<unknown>
10015c22: fc bf        	<unknown>
10015c24: d9 3f        	<unknown>
10015c26: 28 40        	<unknown>
10015c28: 6d 3e        	<unknown>
10015c2a: aa bf        	<unknown>
10015c2c: 93 3d 9d 3f 52 bf 3c be      	<unknown>
10015c34: fc be        	<unknown>
10015c36: ac be        	<unknown>
10015c38: e0 bf        	<unknown>
10015c3a: 1f 40 37 bf 15 3f 98 bf      	<unknown>
10015c42: 01 3a        	<unknown>
10015c44: 8e be        	<unknown>
10015c46: 61 bf        	<unknown>
10015c48: cd 3d        	<unknown>
10015c4a: cb bd 12 3d 1e 3c 33 3f      	<unknown>
10015c52: 82 3f        	<unknown>
10015c54: cc 3f        	<unknown>
10015c56: b2 3e        	<unknown>
10015c58: 42 bf        	<unknown>
10015c5a: 9c bd        	<unknown>
10015c5c: 73 bf c2 bf 6e bf 6b 3d      	<unknown>
10015c64: 9f 3f 86 bf f2 bf 15 bf      	<unknown>
10015c6c: 7b 3f dc 3d 44 3f 54 bf      	<unknown>
10015c74: 4a 3f        	<unknown>
10015c76: 6a bf        	<unknown>
10015c78: 14 3f        	<unknown>
10015c7a: 2e 3f        	<unknown>
10015c7c: 8b 3f 2c be ae bf ed 3e      	<unknown>
10015c84: 26 bf        	<unknown>
10015c86: 4e 3f        	<unknown>
10015c88: 8a be        	<unknown>
10015c8a: 69 bf        	<unknown>
10015c8c: a7 bd 47 bd 6b 3f a7 3e      	<unknown>
10015c94: b5 bf        	<unknown>
10015c96: 06 40        	<unknown>
10015c98: 24 bf        	<unknown>
10015c9a: a7 be 4d 3f 5e bf 7f bf      	<unknown>
10015ca2: 88 3e        	<unknown>
10015ca4: 60 3f        	<unknown>
10015ca6: 1a 3f        	<unknown>
10015ca8: 99 3e        	<unknown>
10015caa: 98 bf        	<unknown>
10015cac: 89 bf        	<unknown>
10015cae: 16 40        	<unknown>
10015cb0: 2c bf        	<unknown>
10015cb2: ac 3f        	<unknown>
10015cb4: 37 40 af 3f 3a 3f 88 3e      	<unknown>
10015cbc: 83 bf c8 3f 8f be 95 3e      	<unknown>
10015cc4: dc bf        	<unknown>
10015cc6: 7f bf 99 3d 6e bf b8 bf      	<unknown>
10015cce: 0b c0 ed bf 14 40 c0 bf      	<unknown>
10015cd6: 12 3e        	<unknown>
10015cd8: ca 3f        	<unknown>
10015cda: 44 3f        	<unknown>
10015cdc: e4 bd        	<unknown>
10015cde: cc bd        	<unknown>
10015ce0: d3 bd a3 bf 8a bf bc 3f      	<unknown>
10015ce8: 98 3f        	<unknown>
10015cea: af bf 00 c0 87 3a 96 bf      	<unknown>
10015cf2: 5c bf        	<unknown>
10015cf4: 2d bf        	<unknown>
10015cf6: 09 c0        	<unknown>
10015cf8: e4 3f        	<unknown>
10015cfa: 03 be 37 bf 08 40 05 3d      	<unknown>
10015d02: 80 bf        	<unknown>
10015d04: 9d bf        	<unknown>
10015d06: 6e bf        	<unknown>
10015d08: f4 bf        	<unknown>
10015d0a: bd 3e        	<unknown>
10015d0c: 91 3f        	<unknown>
10015d0e: 93 bf f1 be 23 3f 53 bf      	<unknown>
10015d16: 17 3f fa 3e 47 bf c5 3f      	<unknown>
10015d1e: 1c 3f        	<unknown>
10015d20: 9f bf 8e 3f 26 3f 82 be      	<unknown>
10015d28: 8a 3f        	<unknown>
10015d2a: 9e bd        	<unknown>
10015d2c: ca 3f        	<unknown>
10015d2e: c3 3e ca 3d cc be 2c bd      	<unknown>
10015d36: 83 bf 00 00 02 bf 9e 3f      	<unknown>
10015d3e: 93 3f 86 be 2d 3f 30 bf      	<unknown>
10015d46: 45 3f        	<unknown>
10015d48: 37 3f b0 be 17 3f f7 3e      	<unknown>
10015d50: 0d c0        	<unknown>
10015d52: 6b 3f c0 bf 3c 3f 3c be      	<unknown>
10015d5a: 7b bf 41 3f 30 3f 79 3f      	<unknown>
10015d62: 89 3f        	<unknown>
10015d64: 33 be 70 bf 73 3f 98 3f      	<unknown>
10015d6c: 7f bf d0 3b c5 be 75 be      	<unknown>
10015d74: ff bf 08 3f 33 3f 7a bf      	<unknown>
10015d7c: 22 3f        	<unknown>
10015d7e: 80 bf        	<unknown>
10015d80: 0e 3e        	<unknown>
10015d82: ee 3d        	<unknown>
10015d84: 72 3e        	<unknown>
10015d86: d5 bf        	<unknown>
10015d88: fe bf        	<unknown>
10015d8a: 35 3f        	<unknown>
10015d8c: 7c 3f        	<unknown>
10015d8e: ae bf        	<unknown>
10015d90: 1f 3f 2a 3f fe be 71 bf      	<unknown>
10015d98: 6d 3f        	<unknown>
10015d9a: 8b bd 82 bd 85 3d d1 bf      	<unknown>
10015da2: 0c bf        	<unknown>
10015da4: 2c bf        	<unknown>
10015da6: 58 3f        	<unknown>
10015da8: 28 be        	<unknown>
10015daa: 19 40        	<unknown>
10015dac: 50 bf        	<unknown>
10015dae: c3 bf 07 3f 53 bf 19 3e      	<unknown>
10015db6: 9b 3e a8 3f d0 bf c1 be      	<unknown>
10015dbe: d4 bf        	<unknown>
10015dc0: cc bc        	<unknown>
10015dc2: a3 3f ac be 56 3f ac bd      	<unknown>
10015dca: bf bd c0 bc 3e 3f e3 be      	<unknown>
10015dd2: 9c 3f        	<unknown>
10015dd4: ab 39 c8 3f ac be aa 3f      	<unknown>
10015ddc: 83 3f 43 be bb 3e af 3f      	<unknown>
10015de4: ef be 8d bf 63 be 29 3e      	<unknown>
10015dec: cd be        	<unknown>
10015dee: 99 be        	<unknown>
10015df0: 73 3f 2a c0 b2 be ab be      	<unknown>
10015df8: c5 3e        	<unknown>
10015dfa: 72 3f        	<unknown>
10015dfc: 81 be        	<unknown>
10015dfe: f6 be        	<unknown>
10015e00: d9 be        	<unknown>
10015e02: 59 bf        	<unknown>
10015e04: 9a 3f        	<unknown>
10015e06: d1 3f        	<unknown>
10015e08: 53 3f ec 3d a0 bf 62 bd      	<unknown>
10015e10: ac bf        	<unknown>
10015e12: 8b 3f 60 bf 77 bf 06 be      	<unknown>
10015e1a: cf bd fa 3f 98 3f 20 3f      	<unknown>
10015e22: a1 bf        	<unknown>
10015e24: ea bf        	<unknown>
10015e26: c7 3f b0 3e 88 3e b5 bf      	<unknown>
10015e2e: 02 40        	<unknown>
10015e30: e1 3e        	<unknown>
10015e32: 8c bf        	<unknown>
10015e34: e3 3f 09 c0 c5 3f 82 bf      	<unknown>
10015e3c: 5c bf        	<unknown>
10015e3e: 17 bf d1 be 22 bf 1c c0      	<unknown>
10015e46: 16 bf        	<unknown>
10015e48: 0a c0        	<unknown>
10015e4a: fb 3f dd be 60 bd d2 bf      	<unknown>
10015e52: 01 c0        	<unknown>
10015e54: a1 3d        	<unknown>
10015e56: ab 3f 53 3e 9f bf 1c bf      	<unknown>
10015e5e: eb be 7e bf 3f be 9d bf      	<unknown>
10015e66: 27 bd a2 be 22 bf 51 bf      	<unknown>
10015e6e: 1c 3e        	<unknown>
10015e70: 8b 3f 87 3e 86 3f d1 bf      	<unknown>
10015e78: dd bf        	<unknown>
10015e7a: 85 3e        	<unknown>
10015e7c: 64 bf        	<unknown>
10015e7e: 6d bf        	<unknown>
10015e80: 89 bf        	<unknown>
10015e82: fd be        	<unknown>
10015e84: 20 3f        	<unknown>
10015e86: ab 3e 8c 3f 5d bf 68 3d      	<unknown>
10015e8e: e8 3f        	<unknown>
10015e90: 88 3a        	<unknown>
10015e92: a4 bf        	<unknown>
10015e94: ff 3d bb bf f7 3f 89 bf      	<unknown>
10015e9c: 8b bd 03 c0 01 3f e8 3e      	<unknown>
10015ea4: 4a 3f        	<unknown>
10015ea6: 96 3f        	<unknown>
10015ea8: e3 3e 88 bf 04 bf 00 00      	<unknown>
10015eb0: e7 bd 78 3f 4a 3f 9c bd      	<unknown>
10015eb8: 12 bf        	<unknown>
10015eba: b3 bf 9b 3e 00 00 c3 be      	<unknown>
10015ec2: a4 3f        	<unknown>
10015ec4: 4f 3f f9 bd 94 3f b5 bf      	<unknown>
10015ecc: fd be        	<unknown>
10015ece: ce bf        	<unknown>
10015ed0: 6d 3f        	<unknown>
10015ed2: bf be 01 c0 c5 be e3 3e      	<unknown>
10015eda: c5 be        	<unknown>
10015edc: 96 bf        	<unknown>
10015ede: df be b4 3e 69 bf 30 3f      	<unknown>
10015ee6: 82 3f        	<unknown>
10015ee8: f6 3e        	<unknown>
10015eea: ff 3d 41 3f e4 be 31 3f      	<unknown>
10015ef2: b7 be 1e be e7 3e d0 bf      	<unknown>
10015efa: 54 3f        	<unknown>
10015efc: f5 3e        	<unknown>
10015efe: ac 3f        	<unknown>
10015f00: 2f 3f a5 3f fa 3e 35 3f      	<unknown>
10015f08: 26 3f        	<unknown>
10015f0a: 86 bf        	<unknown>
10015f0c: b5 bf        	<unknown>
10015f0e: b3 3f 37 3f a5 3f 41 3e      	<unknown>
10015f16: 57 3d 02 3f b1 bf 2a 3f      	<unknown>
10015f1e: 02 c0        	<unknown>
10015f20: 27 3f 1d be 8c 3f 0b c0      	<unknown>
10015f28: dc 3f        	<unknown>
10015f2a: 12 40        	<unknown>
10015f2c: fc 3e        	<unknown>
10015f2e: f9 bf        	<unknown>
10015f30: 03 3d 1e bf 9a 3e 48 3f      	<unknown>
10015f38: 72 bf        	<unknown>
10015f3a: 32 3f        	<unknown>
10015f3c: f0 bf        	<unknown>
10015f3e: 8d 3f        	<unknown>
10015f40: 0f bf 04 3e 17 3e d2 bf      	<unknown>
10015f48: 86 be        	<unknown>
10015f4a: a3 3e 11 bf 54 3f 0f c0      	<unknown>
10015f52: e8 3f        	<unknown>
10015f54: 3e 3f        	<unknown>
10015f56: 2d 3f        	<unknown>
10015f58: 0e 3e        	<unknown>
10015f5a: 0d be        	<unknown>
10015f5c: ab bf 98 be e4 3f 5c 3e      	<unknown>
10015f64: e5 be        	<unknown>
10015f66: 0b c0 a4 be 04 bf 07 bf      	<unknown>
10015f6e: 64 bf        	<unknown>
10015f70: 05 40        	<unknown>
10015f72: ec 3e        	<unknown>
10015f74: 1d 3f        	<unknown>
10015f76: c2 3f        	<unknown>
10015f78: e1 3e        	<unknown>
10015f7a: d8 3f        	<unknown>
10015f7c: 32 bf        	<unknown>
10015f7e: e5 3f        	<unknown>
10015f80: 33 3f 64 be 28 bf 18 bf      	<unknown>
10015f88: 7b 3f 6a 3e b3 3e 34 3f      	<unknown>
10015f90: c5 be        	<unknown>
10015f92: 67 3f 59 3e 01 3f 71 3f      	<unknown>
10015f9a: 95 bf        	<unknown>
10015f9c: f3 3e b5 3e 9b 3f 61 3f      	<unknown>
10015fa4: 19 bf        	<unknown>
10015fa6: a1 3e        	<unknown>
10015fa8: 63 3e c6 3f ab 3f fd be      	<unknown>
10015fb0: df 3e e7 bd 4a bf 18 3e      	<unknown>
10015fb8: 3a 3f        	<unknown>
10015fba: e0 bf        	<unknown>
10015fbc: 70 3f        	<unknown>
10015fbe: 22 3f        	<unknown>
10015fc0: 9c 3f        	<unknown>
10015fc2: 81 be        	<unknown>
10015fc4: b2 3e        	<unknown>
10015fc6: 1c be        	<unknown>
10015fc8: 34 3f        	<unknown>
10015fca: 43 bf f5 bf 13 bf 54 bf      	<unknown>
10015fd2: 82 bf        	<unknown>
10015fd4: 21 bf        	<unknown>
10015fd6: 0c 3f        	<unknown>
10015fd8: 68 bf        	<unknown>
10015fda: a9 3f        	<unknown>
10015fdc: 6d bd        	<unknown>
10015fde: 02 be        	<unknown>
10015fe0: 34 3e        	<unknown>
10015fe2: 92 be        	<unknown>
10015fe4: 4e bf        	<unknown>
10015fe6: c7 3f c3 bf c7 bf dc 3f      	<unknown>
10015fee: 08 3f        	<unknown>
10015ff0: 63 3f 19 c0 78 3f ab 3f      	<unknown>
10015ff8: 8f bd fd 3d c7 3f 17 3f      	<unknown>
10016000: 8c be        	<unknown>
10016002: 99 bf        	<unknown>
10016004: f9 be        	<unknown>
10016006: 4e 3f        	<unknown>
10016008: a7 3f 3c bf 59 bf c8 bf      	<unknown>
10016010: 2a 3f        	<unknown>
10016012: 05 40        	<unknown>
10016014: 30 3f        	<unknown>
10016016: cf 3e 9d bf ec be b1 be      	<unknown>
1001601e: 53 3f 81 3f cf be 2b be      	<unknown>
10016026: 29 3e        	<unknown>
10016028: ff 3e b5 3f 0c 40 12 bf      	<unknown>
10016030: 78 3f        	<unknown>
10016032: 26 bf        	<unknown>
10016034: 6a bf        	<unknown>
10016036: 8e be        	<unknown>
10016038: 48 3c        	<unknown>
1001603a: bc bd        	<unknown>
1001603c: 95 bd        	<unknown>
1001603e: 65 be        	<unknown>
10016040: af 3f 90 3f 8a bd 82 3f      	<unknown>
10016048: 00 00        	<unknown>
1001604a: 00 00        	<unknown>
1001604c: dc 3b        	<unknown>
1001604e: 37 bd 86 be 9e 3e 45 bf      	<unknown>
10016056: be bf        	<unknown>
10016058: 00 00        	<unknown>
1001605a: 00 00        	<unknown>
1001605c: 90 3e        	<unknown>
1001605e: b7 3e 38 bf 5f bf 38 40      	<unknown>
10016066: 93 3e 46 be b3 be 05 3f      	<unknown>
1001606e: 1d bf        	<unknown>
10016070: 97 be 1b bf 8e be 89 be      	<unknown>
10016078: 47 bf 10 bf 98 bf a6 3e      	<unknown>
10016080: 85 bf        	<unknown>
10016082: 8f be 39 3f 74 bf 4c 3e      	<unknown>
1001608a: 34 c0        	<unknown>
1001608c: 31 3f        	<unknown>
1001608e: 15 be        	<unknown>
10016090: 5b 3f da 3c 50 bf c9 3e      	<unknown>
10016098: d6 be        	<unknown>
1001609a: 33 3b 52 3d 26 c0 5b bf      	<unknown>
100160a2: 4e be        	<unknown>
100160a4: 03 c0 8f bf 84 bf c0 be      	<unknown>
100160ac: 0c 3f        	<unknown>
100160ae: c1 3f        	<unknown>
100160b0: f7 be e0 be 28 40 49 40      	<unknown>
100160b8: 32 bf        	<unknown>
100160ba: 49 3f        	<unknown>
100160bc: 1a 3f        	<unknown>
100160be: 27 bf d4 bf 76 3f db 3f      	<unknown>
100160c6: f8 3e        	<unknown>
100160c8: 1a 3f        	<unknown>
100160ca: e3 3f 83 3f 2b bf 0b c0      	<unknown>
100160d2: 11 bf        	<unknown>
100160d4: 3e bf        	<unknown>
100160d6: 74 3f        	<unknown>
100160d8: 3b 3f 32 3d c5 3f b5 3e      	<unknown>
100160e0: 70 3f        	<unknown>
100160e2: 6b bf 4a 3f 64 3f a2 3f      	<unknown>
100160ea: ba 3f        	<unknown>
100160ec: 27 bf 9d bd 57 be f8 3e      	<unknown>
100160f4: 3d bf        	<unknown>
100160f6: c5 be        	<unknown>
100160f8: e8 be        	<unknown>
100160fa: 4d bf        	<unknown>
100160fc: 9b bf d3 3f 41 39 89 3f      	<unknown>
10016104: 15 40        	<unknown>
10016106: c0 3f        	<unknown>
10016108: 15 be        	<unknown>
1001610a: 9f 3e 90 bf aa bd c3 3e      	<unknown>
10016112: b9 3f        	<unknown>
10016114: 6b bf 64 3f d0 bd 78 3e      	<unknown>
1001611c: 01 bf        	<unknown>
1001611e: 72 bf        	<unknown>
10016120: 27 be f2 bf 68 bf e8 3d      	<unknown>
10016128: 84 bf        	<unknown>
1001612a: 6e 3f        	<unknown>
1001612c: d2 bf        	<unknown>
1001612e: 9c 3f        	<unknown>
10016130: cd 3f        	<unknown>
10016132: da bf        	<unknown>
10016134: 3f be 8d 3f cf be ef 3e      	<unknown>
1001613c: 2c bf        	<unknown>
1001613e: 9c bf        	<unknown>
10016140: 67 bf 0e 3e 76 be 9a 3f      	<unknown>
10016148: e4 bf        	<unknown>
1001614a: a1 bf        	<unknown>
1001614c: 03 40 a6 be 95 3e 7b 3e      	<unknown>
10016154: cc bf        	<unknown>
10016156: 29 bf        	<unknown>
10016158: 80 be        	<unknown>
1001615a: 3d 3f        	<unknown>
1001615c: 9c 3e        	<unknown>
1001615e: 84 bf        	<unknown>
10016160: c8 3f        	<unknown>
10016162: 92 3e        	<unknown>
10016164: af bf fe 3f 87 3f 10 c0      	<unknown>
1001616c: 9e 3f        	<unknown>
1001616e: 65 3f        	<unknown>
10016170: 9c 3f        	<unknown>
10016172: 04 bf        	<unknown>
10016174: 95 3f        	<unknown>
10016176: 36 3f        	<unknown>
10016178: 7d bf        	<unknown>
1001617a: 4f 3f e3 be 1b bf 9f 3e      	<unknown>
10016182: fd be        	<unknown>
10016184: 31 3e        	<unknown>
10016186: a9 bf        	<unknown>
10016188: 25 bf        	<unknown>
1001618a: 92 bf        	<unknown>
1001618c: 12 40        	<unknown>
1001618e: 20 be        	<unknown>
10016190: a0 3f        	<unknown>
10016192: 0a 3f        	<unknown>
10016194: 94 3e        	<unknown>
10016196: f2 be        	<unknown>
10016198: 6d 3e        	<unknown>
1001619a: 25 bf        	<unknown>
1001619c: ca 3e        	<unknown>
1001619e: 5b bf a0 3e a3 bf 9a bf      	<unknown>
100161a6: 88 3e        	<unknown>
100161a8: 35 3c        	<unknown>
100161aa: db 3f 0e 3f e3 be 15 3f      	<unknown>
100161b2: 7a bf        	<unknown>
100161b4: 3b bf a2 3c b4 3d a8 be      	<unknown>
100161bc: 8a bf        	<unknown>
100161be: 78 bf        	<unknown>
100161c0: eb be ef 3e 7e 3e 03 40      	<unknown>
100161c8: 43 bf a4 3e 1e 3e 3d bd      	<unknown>
100161d0: 08 bf        	<unknown>
100161d2: db 3f 1e bf 68 3f 47 3e      	<unknown>
100161da: 14 bf        	<unknown>
100161dc: 9d 3f        	<unknown>
100161de: 7f 3f ac be f6 bd 5f bf      	<unknown>
100161e6: 00 00        	<unknown>
100161e8: 44 3f        	<unknown>
100161ea: a2 bd        	<unknown>
100161ec: 2b bf 24 bd f8 3f 4c bf      	<unknown>
100161f4: 86 3f        	<unknown>
100161f6: 00 00        	<unknown>
100161f8: 19 3f        	<unknown>
100161fa: 75 3e        	<unknown>
100161fc: b3 be ce bf 78 3f 81 3e      	<unknown>
10016204: ac be        	<unknown>
10016206: 0c 3e        	<unknown>
10016208: e8 3f        	<unknown>
1001620a: 0f bf 4c 3e f8 3c 78 3e      	<unknown>
10016212: a3 3f 82 3f 68 3f ff 3e      	<unknown>
1001621a: 0d bf        	<unknown>
1001621c: 75 be        	<unknown>
1001621e: 97 3e a3 bf 80 bf d8 3f      	<unknown>
10016226: e3 bf 62 3f 5e bf fe bf      	<unknown>
1001622e: 97 bf 9e 3f 87 bf 80 3e      	<unknown>
10016236: cc bf        	<unknown>
10016238: 24 bf        	<unknown>
1001623a: 8e 3f        	<unknown>
1001623c: 35 bf        	<unknown>
1001623e: 92 3f        	<unknown>
10016240: b5 bf        	<unknown>
10016242: fc 3f        	<unknown>
10016244: af 3e 6e be fe 3e 44 bf      	<unknown>
1001624c: 23 bf 63 3e ad bf 24 bf      	<unknown>
10016254: 5a bf        	<unknown>
10016256: ee 3f        	<unknown>
10016258: d0 3f        	<unknown>
1001625a: de 3f        	<unknown>
1001625c: f3 3e 70 be 74 bf bc 3e      	<unknown>
10016264: cf be c6 be 17 bc 78 3f      	<unknown>
1001626c: 79 be        	<unknown>
1001626e: 30 3f        	<unknown>
10016270: 0a 3f        	<unknown>
10016272: 58 bf        	<unknown>
10016274: 50 bf        	<unknown>
10016276: c7 bf be be 1d bf d1 3f      	<unknown>
1001627e: c1 be        	<unknown>
10016280: b2 3f        	<unknown>
10016282: 72 bf        	<unknown>
10016284: a5 3e        	<unknown>
10016286: 62 3e        	<unknown>
10016288: 96 be        	<unknown>
1001628a: c0 be        	<unknown>
1001628c: a6 3f        	<unknown>
1001628e: 3e bf        	<unknown>
10016290: 54 3f        	<unknown>
10016292: d2 bf        	<unknown>
10016294: 97 3f 13 3f ce 3e 10 bf      	<unknown>
1001629c: 95 be        	<unknown>
1001629e: 0f 40 73 be c9 3e 3b 40      	<unknown>
100162a6: 5f 3f f2 3f bf bf 1c 40      	<unknown>
100162ae: a6 bf        	<unknown>
100162b0: ae 3d        	<unknown>
100162b2: 01 3f        	<unknown>
100162b4: 27 3f 69 3f ba be e5 3f      	<unknown>
100162bc: 12 c0        	<unknown>
100162be: a8 be        	<unknown>
100162c0: 84 3e        	<unknown>
100162c2: 95 3f        	<unknown>
100162c4: 9c be        	<unknown>
100162c6: a1 3e        	<unknown>
100162c8: 02 be        	<unknown>
100162ca: 9b 3e 98 be da bf 94 3f      	<unknown>
100162d2: cc bf        	<unknown>
100162d4: 9f 3f 60 3f af bd 80 be      	<unknown>
100162dc: d1 bf        	<unknown>
100162de: 0d 3f        	<unknown>
100162e0: 0d 3f        	<unknown>
100162e2: 02 c0        	<unknown>
100162e4: eb bf 99 bf 1c be 8d 3e      	<unknown>
100162ec: b8 bd        	<unknown>
100162ee: 5a 3f        	<unknown>
100162f0: b0 bf        	<unknown>
100162f2: 17 c0 8a 3f e9 3d 42 bc      	<unknown>
100162fa: d7 bf 81 3e 11 3f 04 3f      	<unknown>
10016302: 02 bf        	<unknown>
10016304: 4f bf 62 bf 27 3f 07 3d      	<unknown>
1001630c: 0a c0        	<unknown>
1001630e: 89 3f        	<unknown>
10016310: 1a 3f        	<unknown>
10016312: 93 be 80 bd 95 bf 8c bf      	<unknown>
1001631a: 80 be        	<unknown>
1001631c: 30 3e        	<unknown>
1001631e: 00 00        	<unknown>
10016320: 24 bf        	<unknown>
10016322: 7b 3f 18 bf 6c bf 5a be      	<unknown>
1001632a: be 3f        	<unknown>
1001632c: 9c 3f        	<unknown>
1001632e: 4c be        	<unknown>
10016330: 75 bd        	<unknown>
10016332: 63 3f 6f 3e 98 be 1c bf      	<unknown>
1001633a: 16 bf        	<unknown>
1001633c: b9 3d        	<unknown>
1001633e: a9 bf        	<unknown>
10016340: cd bf        	<unknown>
10016342: a5 bf        	<unknown>
10016344: 86 bf        	<unknown>
10016346: 65 3e        	<unknown>
10016348: ca be        	<unknown>
1001634a: 20 bf        	<unknown>
1001634c: fd 3c        	<unknown>
1001634e: 63 bf 12 bf 3b 3f 5c 3f      	<unknown>
10016356: 5a bf        	<unknown>
10016358: 8d 3e        	<unknown>
1001635a: 1a 3f        	<unknown>
1001635c: 27 3f a0 3f c6 3f a0 bf      	<unknown>
10016364: 87 3f 51 bf 03 be 38 3f      	<unknown>
1001636c: 98 be        	<unknown>
1001636e: 77 bf 98 be 0b c0 d5 3f      	<unknown>
10016376: 3c bf        	<unknown>
10016378: 59 bf        	<unknown>
1001637a: a6 bf        	<unknown>
1001637c: 18 40        	<unknown>
1001637e: 01 bf        	<unknown>
10016380: 90 3f        	<unknown>
10016382: 01 40        	<unknown>
10016384: f6 be        	<unknown>
10016386: 03 40 a9 be d5 3f 2c bf      	<unknown>
1001638e: c5 3e        	<unknown>
10016390: 4a 3f        	<unknown>
10016392: 9a 3e        	<unknown>
10016394: 06 bf        	<unknown>
10016396: 28 40        	<unknown>
10016398: 13 bf 28 bf 00 3f 6f 3f      	<unknown>
100163a0: 96 bf        	<unknown>
100163a2: 6f bf 23 3f da bf 4c bf      	<unknown>
100163aa: 2e be        	<unknown>
100163ac: cf 3f 94 bf 87 bf 9d bf      	<unknown>
100163b4: 38 bf        	<unknown>
100163b6: 98 3e        	<unknown>
100163b8: 31 bf        	<unknown>
100163ba: 3e 3e        	<unknown>
100163bc: a3 3d 63 3d 4e 3f 63 bf      	<unknown>
100163c4: 78 bf        	<unknown>
100163c6: 58 3f        	<unknown>
100163c8: 68 bd        	<unknown>
100163ca: 31 3f        	<unknown>
100163cc: 96 bf        	<unknown>
100163ce: 1e 3f        	<unknown>
100163d0: 4e 3f        	<unknown>
100163d2: d4 3f        	<unknown>
100163d4: a3 bf 7b be 1e 40 38 bd      	<unknown>
100163dc: c5 bf        	<unknown>
100163de: ef bf 75 be f2 bf 8c 3f      	<unknown>
100163e6: 32 3f        	<unknown>
100163e8: f1 3f        	<unknown>
100163ea: 6d bf        	<unknown>
100163ec: ba bf        	<unknown>
100163ee: 80 3d        	<unknown>
100163f0: 5c be        	<unknown>
100163f2: 34 be        	<unknown>
100163f4: 7a be        	<unknown>
100163f6: c3 be 50 bf 43 3f 55 3e      	<unknown>
100163fe: 42 3e        	<unknown>
10016400: 00 3a        	<unknown>
10016402: 97 3f 87 3e d6 be 2b 3f      	<unknown>
1001640a: fa be        	<unknown>
1001640c: c5 bf        	<unknown>
1001640e: 3e bf        	<unknown>
10016410: 81 3f        	<unknown>
10016412: 20 bd        	<unknown>
10016414: 0a be        	<unknown>
10016416: bd bf        	<unknown>
10016418: 68 3f        	<unknown>
