
vx32-p-bar:	file format elf32-littleriscv

Disassembly of section .text.init:

10000000 <_start>:
10000000: 6f 00 00 00 80 03 00 00      	j	0x10000038 <reset_vector>

10000008 <other_exception>:
10000008: 13 06 3c 00 90 53 00 00      	ori	gp, gp, 0x539

10000010 <write_tohost>:
10000010: 17 3c 00 00 00 00 00 00      	auipc	t5, 0x0
10000018: 23 00 e4 31 00 ff 01 00      	sw.global	gp, 0x1ff0(t5)
10000020: 17 3c 00 00 00 00 00 00      	auipc	t5, 0x0
10000028: 23 00 e4 01 40 fe 01 00      	sw.global	zero, 0x1fe4(t5)
10000030: 6f 00 00 f0 0f fe ff 0f      	j	0x10000010 <write_tohost>

10000038 <reset_vector>:
10000038: 13 0a 00 f0 ff ff ff 0f      	li	t0, -0x1
10000040: 0b 00 50 00 00 00 00 00      	vx_tmc	t0
10000048: 13 02 00 00 00 00 00 00      	li	ra, 0x0
10000050: 13 04 00 00 00 00 00 00      	li	sp, 0x0
10000058: 13 06 00 00 00 00 00 00      	li	gp, 0x0
10000060: 13 08 00 00 00 00 00 00      	li	tp, 0x0
10000068: 13 0a 00 00 00 00 00 00      	li	t0, 0x0
10000070: 13 0c 00 00 00 00 00 00      	li	t1, 0x0
10000078: 13 0e 00 00 00 00 00 00      	li	t2, 0x0
10000080: 13 10 00 00 00 00 00 00      	li	s0, 0x0
10000088: 13 12 00 00 00 00 00 00      	li	s1, 0x0
10000090: 13 14 00 00 00 00 00 00      	li	a0, 0x0
10000098: 13 16 00 00 00 00 00 00      	li	a1, 0x0
100000a0: 13 18 00 00 00 00 00 00      	li	a2, 0x0
100000a8: 13 1a 00 00 00 00 00 00      	li	a3, 0x0
100000b0: 13 1c 00 00 00 00 00 00      	li	a4, 0x0
100000b8: 13 1e 00 00 00 00 00 00      	li	a5, 0x0
100000c0: 13 20 00 00 00 00 00 00      	li	a6, 0x0
100000c8: 13 22 00 00 00 00 00 00      	li	a7, 0x0
100000d0: 13 24 00 00 00 00 00 00      	li	s2, 0x0
100000d8: 13 26 00 00 00 00 00 00      	li	s3, 0x0
100000e0: 13 28 00 00 00 00 00 00      	li	s4, 0x0
100000e8: 13 2a 00 00 00 00 00 00      	li	s5, 0x0
100000f0: 13 2c 00 00 00 00 00 00      	li	s6, 0x0
100000f8: 13 2e 00 00 00 00 00 00      	li	s7, 0x0
10000100: 13 30 00 00 00 00 00 00      	li	s8, 0x0
10000108: 13 32 00 00 00 00 00 00      	li	s9, 0x0
10000110: 13 34 00 00 00 00 00 00      	li	s10, 0x0
10000118: 13 36 00 00 00 00 00 00      	li	s11, 0x0
10000120: 13 38 00 00 00 00 00 00      	li	t3, 0x0
10000128: 13 3a 00 00 00 00 00 00      	li	t4, 0x0
10000130: 13 3c 00 00 00 00 00 00      	li	t5, 0x0
10000138: 13 3e 00 00 00 00 00 00      	li	t6, 0x0
10000140: 13 40 00 00 00 00 00 00      	li	a8, 0x0
10000148: 13 42 00 00 00 00 00 00      	li	a9, 0x0
10000150: 13 44 00 00 00 00 00 00      	li	a10, 0x0
10000158: 13 46 00 00 00 00 00 00      	li	a11, 0x0
10000160: 13 48 00 00 00 00 00 00      	li	a12, 0x0
10000168: 13 4a 00 00 00 00 00 00      	li	a13, 0x0
10000170: 13 4c 00 00 00 00 00 00      	li	a14, 0x0
10000178: 13 4e 00 00 00 00 00 00      	li	a15, 0x0
10000180: 13 50 00 00 00 00 00 00      	li	a16, 0x0
10000188: 13 52 00 00 00 00 00 00      	li	a17, 0x0
10000190: 13 54 00 00 00 00 00 00      	li	a18, 0x0
10000198: 13 56 00 00 00 00 00 00      	li	a19, 0x0
100001a0: 13 58 00 00 00 00 00 00      	li	a20, 0x0
100001a8: 13 5a 00 00 00 00 00 00      	li	a21, 0x0
100001b0: 13 5c 00 00 00 00 00 00      	li	a22, 0x0
100001b8: 13 5e 00 00 00 00 00 00      	li	a23, 0x0
100001c0: 13 60 00 00 00 00 00 00      	li	s12, 0x0
100001c8: 13 62 00 00 00 00 00 00      	li	s13, 0x0
100001d0: 13 64 00 00 00 00 00 00      	li	s14, 0x0
100001d8: 13 66 00 00 00 00 00 00      	li	s15, 0x0
100001e0: 13 68 00 00 00 00 00 00      	li	s16, 0x0
100001e8: 13 6a 00 00 00 00 00 00      	li	s17, 0x0
100001f0: 13 6c 00 00 00 00 00 00      	li	s18, 0x0
100001f8: 13 6e 00 00 00 00 00 00      	li	s19, 0x0
10000200: 13 70 00 00 00 00 00 00      	li	s20, 0x0
10000208: 13 72 00 00 00 00 00 00      	li	s21, 0x0
10000210: 13 74 00 00 00 00 00 00      	li	s22, 0x0
10000218: 13 76 00 00 00 00 00 00      	li	s23, 0x0
10000220: 13 78 00 00 00 00 00 00      	li	s24, 0x0
10000228: 13 7a 00 00 00 00 00 00      	li	s25, 0x0
10000230: 13 7c 00 00 00 00 00 00      	li	s26, 0x0
10000238: 13 7e 00 00 00 00 00 00      	li	s27, 0x0
10000240: 13 80 00 00 00 00 00 00      	li	s28, 0x0
10000248: 13 82 00 00 00 00 00 00      	li	s29, 0x0
10000250: 13 84 00 00 00 00 00 00      	li	s30, 0x0
10000258: 13 86 00 00 00 00 00 00      	li	s31, 0x0
10000260: 13 88 00 00 00 00 00 00      	li	s32, 0x0
10000268: 13 8a 00 00 00 00 00 00      	li	s33, 0x0
10000270: 13 8c 00 00 00 00 00 00      	li	s34, 0x0
10000278: 13 8e 00 00 00 00 00 00      	li	s35, 0x0
10000280: 13 90 00 00 00 00 00 00      	li	s36, 0x0
10000288: 13 92 00 00 00 00 00 00      	li	s37, 0x0
10000290: 13 94 00 00 00 00 00 00      	li	s38, 0x0
10000298: 13 96 00 00 00 00 00 00      	li	s39, 0x0
100002a0: 13 98 00 00 00 00 00 00      	li	s40, 0x0
100002a8: 13 9a 00 00 00 00 00 00      	li	s41, 0x0
100002b0: 13 9c 00 00 00 00 00 00      	li	s42, 0x0
100002b8: 13 9e 00 00 00 00 00 00      	li	s43, 0x0
100002c0: 13 a0 00 00 00 00 00 00      	li	s44, 0x0
100002c8: 13 a2 00 00 00 00 00 00      	li	s45, 0x0
100002d0: 13 a4 00 00 00 00 00 00      	li	s46, 0x0
100002d8: 13 a6 00 00 00 00 00 00      	li	s47, 0x0
100002e0: 13 a8 00 00 00 00 00 00      	li	s48, 0x0
100002e8: 13 aa 00 00 00 00 00 00      	li	s49, 0x0
100002f0: 13 ac 00 00 00 00 00 00      	li	s50, 0x0
100002f8: 13 ae 00 00 00 00 00 00      	li	s51, 0x0
10000300: 13 b0 00 00 00 00 00 00      	li	s52, 0x0
10000308: 13 b2 00 00 00 00 00 00      	li	s53, 0x0
10000310: 13 b4 00 00 00 00 00 00      	li	s54, 0x0
10000318: 13 b6 00 00 00 00 00 00      	li	s55, 0x0
10000320: 13 b8 00 00 00 00 00 00      	li	s56, 0x0
10000328: 13 ba 00 00 00 00 00 00      	li	s57, 0x0
10000330: 13 bc 00 00 00 00 00 00      	li	s58, 0x0
10000338: 13 be 00 00 00 00 00 00      	li	s59, 0x0
10000340: 13 c0 00 00 00 00 00 00      	li	t7, 0x0
10000348: 13 c2 00 00 00 00 00 00      	li	t8, 0x0
10000350: 13 c4 00 00 00 00 00 00      	li	t9, 0x0
10000358: 13 c6 00 00 00 00 00 00      	li	t10, 0x0
10000360: 13 c8 00 00 00 00 00 00      	li	t11, 0x0
10000368: 13 ca 00 00 00 00 00 00      	li	t12, 0x0
10000370: 13 cc 00 00 00 00 00 00      	li	t13, 0x0
10000378: 13 ce 00 00 00 00 00 00      	li	t14, 0x0
10000380: 13 d0 00 00 00 00 00 00      	li	t15, 0x0
10000388: 13 d2 00 00 00 00 00 00      	li	t16, 0x0
10000390: 13 d4 00 00 00 00 00 00      	li	t17, 0x0
10000398: 13 d6 00 00 00 00 00 00      	li	t18, 0x0
100003a0: 13 d8 00 00 00 00 00 00      	li	t19, 0x0
100003a8: 13 da 00 00 00 00 00 00      	li	t20, 0x0
100003b0: 13 dc 00 00 00 00 00 00      	li	t21, 0x0
100003b8: 13 de 00 00 00 00 00 00      	li	t22, 0x0
100003c0: 13 e0 00 00 00 00 00 00      	li	t23, 0x0
100003c8: 13 e2 00 00 00 00 00 00      	li	t24, 0x0
100003d0: 13 e4 00 00 00 00 00 00      	li	t25, 0x0
100003d8: 13 e6 00 00 00 00 00 00      	li	t26, 0x0
100003e0: 13 e8 00 00 00 00 00 00      	li	t27, 0x0
100003e8: 13 ea 00 00 00 00 00 00      	li	t28, 0x0
100003f0: 13 ec 00 00 00 00 00 00      	li	t29, 0x0
100003f8: 13 ee 00 00 00 00 00 00      	li	t30, 0x0
10000400: 13 f0 00 00 00 00 00 00      	li	t31, 0x0
10000408: 13 f2 00 00 00 00 00 00      	li	t32, 0x0
10000410: 13 f4 00 00 00 00 00 00      	li	t33, 0x0
10000418: 13 f6 00 00 00 00 00 00      	li	t34, 0x0
10000420: 13 f8 00 00 00 00 00 00      	li	t35, 0x0
10000428: 13 fa 00 00 00 00 00 00      	li	t36, 0x0
10000430: 13 fc 00 00 00 00 00 00      	li	t37, 0x0
10000438: 13 fe 00 00 00 00 00 00      	li	t38, 0x0
10000440: 13 06 00 00 00 00 00 00      	li	gp, 0x0
10000448: 13 14 00 00 10 00 00 00      	li	a0, 0x1
10000450: 13 14 a2 00 f0 01 00 00      	slli	a0, a0, 0x1f
10000458: 63 00 a8 00 80 03 00 00      	bltz	a0, 0x10000490 <reset_vector+0x458>
10000460: 0f 00 00 00 f0 0f 00 00      	fence
10000468: 13 06 00 00 10 00 00 00      	li	gp, 0x1
10000470: 13 14 00 00 00 00 00 00      	li	a0, 0x0
10000478: 73 00 a0 00 20 00 00 00      	tohost	a0
10000480: 13 00 00 00 00 00 00 00      	nop
10000488: 13 00 00 00 00 00 00 00      	nop
10000490: 6f 00 00 00 80 00 00 00      	j	0x10000498 <reset_vector+0x460>
10000498: 13 0a 00 00 40 00 00 00      	li	t0, 0x4
100004a0: 17 0c 00 00 00 01 00 00      	auipc	t1, 0x10
100004a8: 0b 00 52 60 00 00 00 00      	vx_wspawn	t0, t1

100004b0 <test_2>:
100004b0: 13 06 00 00 20 00 00 00      	li	gp, 0x2
100004b8: 13 16 00 00 40 00 00 00      	li	a1, 0x4
100004c0: 17 18 00 00 00 01 00 00      	auipc	a2, 0x10
100004c8: 0b 00 b2 c0 00 00 00 00      	vx_wspawn	a1, a2
100004d0: 13 28 00 f0 ff ff ff 0f      	li	s4, -0x1
100004d8: 0b 00 40 01 00 00 00 00      	vx_tmc	s4
100004e0: 13 06 00 00 20 00 00 00      	li	gp, 0x2
100004e8: 13 3a 00 00 00 00 00 00      	li	t4, 0x0
100004f0: 73 0a 04 00 10 cc 00 00      	csrr	t0, wid
100004f8: 63 00 52 00 00 02 00 00      	bnez	t0, 0x10000518 <test_2+0x68>
10000500: 13 0a 00 00 40 06 00 00      	li	t0, 0x64
10000508: 13 0a 50 f0 ff ff ff 0f      	addi	t0, t0, -0x1
10000510: 63 fe 53 00 80 ff ff 0f      	bnez	t0, 0x10000508 <test_2+0x58>
10000518: 13 3e 00 00 80 00 00 00      	li	t6, 0x8
10000520: 5b 00 d2 f1 01 00 d0 0f      	nu.invoke.ri.pw.sync	zero, t4, t6, zero, zero, 0x40
10000528: 17 16 00 00 80 ad 02 00      	auipc	a1, 0x2ad8
10000530: 73 18 04 00 40 f1 00 00      	csrr	a2, mhartid
10000538: 13 18 c2 00 20 00 00 00      	slli	a2, a2, 0x2
10000540: 33 16 b0 c0 00 00 00 00      	add	a1, a1, a2
10000548: 13 1a 00 00 10 00 00 00      	li	a3, 0x1
10000550: 23 00 b4 d0 00 00 00 00      	sw.global	a3, 0x0(a1)
10000558: 13 16 00 00 80 0c 00 00      	li	a1, 0xc8
10000560: 13 16 b0 f0 ff ff ff 0f      	addi	a1, a1, -0x1
10000568: 63 fe bb 00 80 ff ff 0f      	bgez	a1, 0x10000560 <test_2+0xb0>
10000570: 13 16 00 00 40 00 00 00      	li	a1, 0x4
10000578: 17 18 00 00 00 01 00 00      	auipc	a2, 0x10
10000580: 0b 00 b2 c0 00 00 00 00      	vx_wspawn	a1, a2
10000588: 13 16 00 00 10 00 00 00      	li	a1, 0x1
10000590: 0b 00 b0 00 00 00 00 00      	vx_tmc	a1
10000598: 73 16 04 00 10 cc 00 00      	csrr	a1, wid
100005a0: 13 16 be 00 f0 ff 0f 00      	andi	a1, a1, 0xffff
100005a8: 63 00 b0 00 00 01 00 00      	beqz	a1, 0x100005b8 <test_2+0x108>
100005b0: 0b 00 00 00 00 00 00 00      	vx_tmc	zero
100005b8: 13 20 00 00 00 00 00 00      	li	a6, 0x0
100005c0: 73 1a 04 00 40 f1 00 00      	csrr	a3, mhartid
100005c8: 73 16 04 00 00 fc 00 00      	csrr	a1, nt
100005d0: 73 18 04 00 10 fc 00 00      	csrr	a2, nw
100005d8: 33 16 b0 c0 00 00 10 00      	mul	a1, a1, a2
100005e0: 33 1a d8 b0 00 00 10 00      	div	a3, a3, a1
100005e8: 33 1a d0 b0 00 00 10 00      	mul	a3, a3, a1
100005f0: 13 1a d2 00 20 00 00 00      	slli	a3, a3, 0x2
100005f8: 17 16 00 00 80 a8 02 00      	auipc	a1, 0x2a88
10000600: 33 16 b0 d0 00 00 00 00      	add	a1, a1, a3
10000608: 13 18 00 00 00 00 00 00      	li	a2, 0x0
10000610: 13 1a 00 00 00 02 00 00      	li	a3, 0x20
10000618: 63 00 c0 d0 00 05 00 00      	beq	a2, a3, 0x10000668 <test_2+0x1b8>
10000620: 13 1c c2 00 20 00 00 00      	slli	a4, a2, 0x2
10000628: 33 1c b0 e0 00 00 00 00      	add	a4, a1, a4
10000630: 03 1e e4 00 00 00 00 00      	lw.global	a5, 0x0(a4)
10000638: 23 00 e4 00 00 00 00 00      	sw.global	zero, 0x0(a4)
10000640: 13 1e fe 00 10 00 00 00      	andi	a5, a5, 0x1
10000648: 33 1e f2 c0 00 00 00 00      	sll	a5, a5, a2
10000650: 33 20 0c f1 00 00 00 00      	or	a6, a6, a5
10000658: 13 18 c0 00 10 00 00 00      	addi	a2, a2, 0x1
10000660: 6f 00 00 f0 8f fb ff 0f      	j	0x10000618 <test_2+0x168>
10000668: 13 28 00 01 00 00 00 00      	mv	s4, a6
10000670: 13 0e 00 f0 ff ff ff 0f      	li	t2, -0x1
10000678: 63 00 42 71 80 48 01 00      	bne	s4, t2, 0x10001b00 <fail>
10000680: 13 16 00 00 40 00 00 00      	li	a1, 0x4
10000688: 17 18 00 00 00 01 00 00      	auipc	a2, 0x10
10000690: 0b 00 b2 c0 00 00 00 00      	vx_wspawn	a1, a2
10000698: 13 16 00 00 10 00 00 00      	li	a1, 0x1
100006a0: 0b 00 b0 00 00 00 00 00      	vx_tmc	a1
100006a8: 73 16 04 00 10 cc 00 00      	csrr	a1, wid
100006b0: 13 16 be 00 f0 ff 0f 00      	andi	a1, a1, 0xffff
100006b8: 63 00 b0 00 00 01 00 00      	beqz	a1, 0x100006c8 <test_2+0x218>
100006c0: 0b 00 00 00 00 00 00 00      	vx_tmc	zero
100006c8: 13 20 00 00 00 00 00 00      	li	a6, 0x0
100006d0: 73 1a 04 00 40 f1 00 00      	csrr	a3, mhartid
100006d8: 73 16 04 00 00 fc 00 00      	csrr	a1, nt
100006e0: 73 18 04 00 10 fc 00 00      	csrr	a2, nw
100006e8: 33 16 b0 c0 00 00 10 00      	mul	a1, a1, a2
100006f0: 33 1a d8 b0 00 00 10 00      	div	a3, a3, a1
100006f8: 33 1a d0 b0 00 00 10 00      	mul	a3, a3, a1
10000700: 13 1a d2 00 20 00 00 00      	slli	a3, a3, 0x2
10000708: 17 16 00 00 80 8f 02 00      	auipc	a1, 0x28f8
10000710: 33 16 b0 d0 00 00 00 00      	add	a1, a1, a3
10000718: 13 18 00 00 00 00 00 00      	li	a2, 0x0
10000720: 13 1a 00 00 00 02 00 00      	li	a3, 0x20
10000728: 63 00 c0 d0 00 05 00 00      	beq	a2, a3, 0x10000778 <test_2+0x2c8>
10000730: 13 1c c2 00 20 00 00 00      	slli	a4, a2, 0x2
10000738: 33 1c b0 e0 00 00 00 00      	add	a4, a1, a4
10000740: 03 1e e4 00 00 00 00 00      	lw.global	a5, 0x0(a4)
10000748: 23 00 e4 00 00 00 00 00      	sw.global	zero, 0x0(a4)
10000750: 13 1e fe 00 10 00 00 00      	andi	a5, a5, 0x1
10000758: 33 1e f2 c0 00 00 00 00      	sll	a5, a5, a2
10000760: 33 20 0c f1 00 00 00 00      	or	a6, a6, a5
10000768: 13 18 c0 00 10 00 00 00      	addi	a2, a2, 0x1
10000770: 6f 00 00 f0 8f fb ff 0f      	j	0x10000728 <test_2+0x278>
10000778: 13 28 00 01 00 00 00 00      	mv	s4, a6
10000780: 13 0e 00 f0 ff ff ff 0f      	li	t2, -0x1
10000788: 63 00 42 71 80 37 01 00      	bne	s4, t2, 0x10001b00 <fail>

10000790 <test_3>:
10000790: 13 06 00 00 30 00 00 00      	li	gp, 0x3
10000798: 13 16 00 00 40 00 00 00      	li	a1, 0x4
100007a0: 17 18 00 00 00 01 00 00      	auipc	a2, 0x10
100007a8: 0b 00 b2 c0 00 00 00 00      	vx_wspawn	a1, a2
100007b0: 13 28 00 f0 ff ff ff 0f      	li	s4, -0x1
100007b8: 0b 00 40 01 00 00 00 00      	vx_tmc	s4
100007c0: 13 06 00 00 30 00 00 00      	li	gp, 0x3
100007c8: 13 3a 00 00 00 00 00 00      	li	t4, 0x0
100007d0: 73 0a 04 00 10 cc 00 00      	csrr	t0, wid
100007d8: 63 00 50 00 00 02 00 00      	beqz	t0, 0x100007f8 <test_3+0x68>
100007e0: 13 0a 00 00 c0 12 00 00      	li	t0, 0x12c
100007e8: 13 0a 50 f0 ff ff ff 0f      	addi	t0, t0, -0x1
100007f0: 63 fe 53 00 80 ff ff 0f      	bnez	t0, 0x100007e8 <test_3+0x58>
100007f8: 13 3e 00 00 80 00 00 00      	li	t6, 0x8
10000800: 5b 00 d2 f1 01 00 d0 0f      	nu.invoke.ri.pw.sync	zero, t4, t6, zero, zero, 0x40
10000808: 17 16 00 00 80 7f 02 00      	auipc	a1, 0x27f8
10000810: 73 18 04 00 40 f1 00 00      	csrr	a2, mhartid
10000818: 13 18 c2 00 20 00 00 00      	slli	a2, a2, 0x2
10000820: 33 16 b0 c0 00 00 00 00      	add	a1, a1, a2
10000828: 13 1a 00 00 10 00 00 00      	li	a3, 0x1
10000830: 23 00 b4 d0 00 00 00 00      	sw.global	a3, 0x0(a1)
10000838: 13 16 00 00 80 0c 00 00      	li	a1, 0xc8
10000840: 13 16 b0 f0 ff ff ff 0f      	addi	a1, a1, -0x1
10000848: 63 fe bb 00 80 ff ff 0f      	bgez	a1, 0x10000840 <test_3+0xb0>
10000850: 13 16 00 00 40 00 00 00      	li	a1, 0x4
10000858: 17 18 00 00 00 01 00 00      	auipc	a2, 0x10
10000860: 0b 00 b2 c0 00 00 00 00      	vx_wspawn	a1, a2
10000868: 13 16 00 00 10 00 00 00      	li	a1, 0x1
10000870: 0b 00 b0 00 00 00 00 00      	vx_tmc	a1
10000878: 73 16 04 00 10 cc 00 00      	csrr	a1, wid
10000880: 13 16 be 00 f0 ff 0f 00      	andi	a1, a1, 0xffff
10000888: 63 00 b0 00 00 01 00 00      	beqz	a1, 0x10000898 <test_3+0x108>
10000890: 0b 00 00 00 00 00 00 00      	vx_tmc	zero
10000898: 13 20 00 00 00 00 00 00      	li	a6, 0x0
100008a0: 73 1a 04 00 40 f1 00 00      	csrr	a3, mhartid
100008a8: 73 16 04 00 00 fc 00 00      	csrr	a1, nt
100008b0: 73 18 04 00 10 fc 00 00      	csrr	a2, nw
100008b8: 33 16 b0 c0 00 00 10 00      	mul	a1, a1, a2
100008c0: 33 1a d8 b0 00 00 10 00      	div	a3, a3, a1
100008c8: 33 1a d0 b0 00 00 10 00      	mul	a3, a3, a1
100008d0: 13 1a d2 00 20 00 00 00      	slli	a3, a3, 0x2
100008d8: 17 16 00 00 80 7a 02 00      	auipc	a1, 0x27a8
100008e0: 33 16 b0 d0 00 00 00 00      	add	a1, a1, a3
100008e8: 13 18 00 00 00 00 00 00      	li	a2, 0x0
100008f0: 13 1a 00 00 00 02 00 00      	li	a3, 0x20
100008f8: 63 00 c0 d0 00 05 00 00      	beq	a2, a3, 0x10000948 <test_3+0x1b8>
10000900: 13 1c c2 00 20 00 00 00      	slli	a4, a2, 0x2
10000908: 33 1c b0 e0 00 00 00 00      	add	a4, a1, a4
10000910: 03 1e e4 00 00 00 00 00      	lw.global	a5, 0x0(a4)
10000918: 23 00 e4 00 00 00 00 00      	sw.global	zero, 0x0(a4)
10000920: 13 1e fe 00 10 00 00 00      	andi	a5, a5, 0x1
10000928: 33 1e f2 c0 00 00 00 00      	sll	a5, a5, a2
10000930: 33 20 0c f1 00 00 00 00      	or	a6, a6, a5
10000938: 13 18 c0 00 10 00 00 00      	addi	a2, a2, 0x1
10000940: 6f 00 00 f0 8f fb ff 0f      	j	0x100008f8 <test_3+0x168>
10000948: 13 28 00 01 00 00 00 00      	mv	s4, a6
10000950: 13 0e 00 f0 ff ff ff 0f      	li	t2, -0x1
10000958: 63 00 42 71 80 1a 01 00      	bne	s4, t2, 0x10001b00 <fail>
10000960: 13 16 00 00 40 00 00 00      	li	a1, 0x4
10000968: 17 18 00 00 00 01 00 00      	auipc	a2, 0x10
10000970: 0b 00 b2 c0 00 00 00 00      	vx_wspawn	a1, a2
10000978: 13 16 00 00 10 00 00 00      	li	a1, 0x1
10000980: 0b 00 b0 00 00 00 00 00      	vx_tmc	a1
10000988: 73 16 04 00 10 cc 00 00      	csrr	a1, wid
10000990: 13 16 be 00 f0 ff 0f 00      	andi	a1, a1, 0xffff
10000998: 63 00 b0 00 00 01 00 00      	beqz	a1, 0x100009a8 <test_3+0x218>
100009a0: 0b 00 00 00 00 00 00 00      	vx_tmc	zero
100009a8: 13 20 00 00 00 00 00 00      	li	a6, 0x0
100009b0: 73 1a 04 00 40 f1 00 00      	csrr	a3, mhartid
100009b8: 73 16 04 00 00 fc 00 00      	csrr	a1, nt
100009c0: 73 18 04 00 10 fc 00 00      	csrr	a2, nw
100009c8: 33 16 b0 c0 00 00 10 00      	mul	a1, a1, a2
100009d0: 33 1a d8 b0 00 00 10 00      	div	a3, a3, a1
100009d8: 33 1a d0 b0 00 00 10 00      	mul	a3, a3, a1
100009e0: 13 1a d2 00 20 00 00 00      	slli	a3, a3, 0x2
100009e8: 17 16 00 00 80 61 02 00      	auipc	a1, 0x2618
100009f0: 33 16 b0 d0 00 00 00 00      	add	a1, a1, a3
100009f8: 13 18 00 00 00 00 00 00      	li	a2, 0x0
10000a00: 13 1a 00 00 00 02 00 00      	li	a3, 0x20
10000a08: 63 00 c0 d0 00 05 00 00      	beq	a2, a3, 0x10000a58 <test_3+0x2c8>
10000a10: 13 1c c2 00 20 00 00 00      	slli	a4, a2, 0x2
10000a18: 33 1c b0 e0 00 00 00 00      	add	a4, a1, a4
10000a20: 03 1e e4 00 00 00 00 00      	lw.global	a5, 0x0(a4)
10000a28: 23 00 e4 00 00 00 00 00      	sw.global	zero, 0x0(a4)
10000a30: 13 1e fe 00 10 00 00 00      	andi	a5, a5, 0x1
10000a38: 33 1e f2 c0 00 00 00 00      	sll	a5, a5, a2
10000a40: 33 20 0c f1 00 00 00 00      	or	a6, a6, a5
10000a48: 13 18 c0 00 10 00 00 00      	addi	a2, a2, 0x1
10000a50: 6f 00 00 f0 8f fb ff 0f      	j	0x10000a08 <test_3+0x278>
10000a58: 13 28 00 01 00 00 00 00      	mv	s4, a6
10000a60: 13 0e 00 f0 ff ff ff 0f      	li	t2, -0x1
10000a68: 63 00 42 71 80 09 01 00      	bne	s4, t2, 0x10001b00 <fail>

10000a70 <test_4>:
10000a70: 13 06 00 00 40 00 00 00      	li	gp, 0x4
10000a78: 13 16 00 00 40 00 00 00      	li	a1, 0x4
10000a80: 17 18 00 00 00 01 00 00      	auipc	a2, 0x10
10000a88: 0b 00 b2 c0 00 00 00 00      	vx_wspawn	a1, a2
10000a90: 13 28 00 f0 ff ff ff 0f      	li	s4, -0x1
10000a98: 0b 00 40 01 00 00 00 00      	vx_tmc	s4
10000aa0: 13 06 00 00 40 00 00 00      	li	gp, 0x4
10000aa8: 73 3a 04 00 10 cc 00 00      	csrr	t4, wid
10000ab0: 13 3c 00 00 f0 00 00 00      	li	t5, 0xf
10000ab8: 13 3e 00 00 80 00 00 00      	li	t6, 0x8
10000ac0: 5b 00 e2 f1 01 00 d0 0f      	nu.invoke.ri.pw.sync	zero, t5, t6, zero, zero, 0x40
10000ac8: 13 3e 00 00 20 00 00 00      	li	t6, 0x2
10000ad0: 5b 00 d2 f1 01 00 d0 0f      	nu.invoke.ri.pw.sync	zero, t4, t6, zero, zero, 0x40
10000ad8: 13 3e 00 00 80 00 00 00      	li	t6, 0x8
10000ae0: 5b 00 e2 f1 01 00 d0 0f      	nu.invoke.ri.pw.sync	zero, t5, t6, zero, zero, 0x40
10000ae8: 17 16 00 00 80 51 02 00      	auipc	a1, 0x2518
10000af0: 73 18 04 00 40 f1 00 00      	csrr	a2, mhartid
10000af8: 13 18 c2 00 20 00 00 00      	slli	a2, a2, 0x2
10000b00: 33 16 b0 c0 00 00 00 00      	add	a1, a1, a2
10000b08: 13 1a 00 00 10 00 00 00      	li	a3, 0x1
10000b10: 23 00 b4 d0 00 00 00 00      	sw.global	a3, 0x0(a1)
10000b18: 13 16 00 00 80 0c 00 00      	li	a1, 0xc8
10000b20: 13 16 b0 f0 ff ff ff 0f      	addi	a1, a1, -0x1
10000b28: 63 fe bb 00 80 ff ff 0f      	bgez	a1, 0x10000b20 <test_4+0xb0>
10000b30: 13 16 00 00 40 00 00 00      	li	a1, 0x4
10000b38: 17 18 00 00 00 01 00 00      	auipc	a2, 0x10
10000b40: 0b 00 b2 c0 00 00 00 00      	vx_wspawn	a1, a2
10000b48: 13 16 00 00 10 00 00 00      	li	a1, 0x1
10000b50: 0b 00 b0 00 00 00 00 00      	vx_tmc	a1
10000b58: 73 16 04 00 10 cc 00 00      	csrr	a1, wid
10000b60: 13 16 be 00 f0 ff 0f 00      	andi	a1, a1, 0xffff
10000b68: 63 00 b0 00 00 01 00 00      	beqz	a1, 0x10000b78 <test_4+0x108>
10000b70: 0b 00 00 00 00 00 00 00      	vx_tmc	zero
10000b78: 13 20 00 00 00 00 00 00      	li	a6, 0x0
10000b80: 73 1a 04 00 40 f1 00 00      	csrr	a3, mhartid
10000b88: 73 16 04 00 00 fc 00 00      	csrr	a1, nt
10000b90: 73 18 04 00 10 fc 00 00      	csrr	a2, nw
10000b98: 33 16 b0 c0 00 00 10 00      	mul	a1, a1, a2
10000ba0: 33 1a d8 b0 00 00 10 00      	div	a3, a3, a1
10000ba8: 33 1a d0 b0 00 00 10 00      	mul	a3, a3, a1
10000bb0: 13 1a d2 00 20 00 00 00      	slli	a3, a3, 0x2
10000bb8: 17 16 00 00 80 4c 02 00      	auipc	a1, 0x24c8
10000bc0: 33 16 b0 d0 00 00 00 00      	add	a1, a1, a3
10000bc8: 13 18 00 00 00 00 00 00      	li	a2, 0x0
10000bd0: 13 1a 00 00 00 02 00 00      	li	a3, 0x20
10000bd8: 63 00 c0 d0 00 05 00 00      	beq	a2, a3, 0x10000c28 <test_4+0x1b8>
10000be0: 13 1c c2 00 20 00 00 00      	slli	a4, a2, 0x2
10000be8: 33 1c b0 e0 00 00 00 00      	add	a4, a1, a4
10000bf0: 03 1e e4 00 00 00 00 00      	lw.global	a5, 0x0(a4)
10000bf8: 23 00 e4 00 00 00 00 00      	sw.global	zero, 0x0(a4)
10000c00: 13 1e fe 00 10 00 00 00      	andi	a5, a5, 0x1
10000c08: 33 1e f2 c0 00 00 00 00      	sll	a5, a5, a2
10000c10: 33 20 0c f1 00 00 00 00      	or	a6, a6, a5
10000c18: 13 18 c0 00 10 00 00 00      	addi	a2, a2, 0x1
10000c20: 6f 00 00 f0 8f fb ff 0f      	j	0x10000bd8 <test_4+0x168>
10000c28: 13 28 00 01 00 00 00 00      	mv	s4, a6
10000c30: 13 0e 00 f0 ff ff ff 0f      	li	t2, -0x1
10000c38: 63 00 42 71 80 ec 00 00      	bne	s4, t2, 0x10001b00 <fail>
10000c40: 13 16 00 00 40 00 00 00      	li	a1, 0x4
10000c48: 17 18 00 00 00 01 00 00      	auipc	a2, 0x10
10000c50: 0b 00 b2 c0 00 00 00 00      	vx_wspawn	a1, a2
10000c58: 13 16 00 00 10 00 00 00      	li	a1, 0x1
10000c60: 0b 00 b0 00 00 00 00 00      	vx_tmc	a1
10000c68: 73 16 04 00 10 cc 00 00      	csrr	a1, wid
10000c70: 13 16 be 00 f0 ff 0f 00      	andi	a1, a1, 0xffff
10000c78: 63 00 b0 00 00 01 00 00      	beqz	a1, 0x10000c88 <test_4+0x218>
10000c80: 0b 00 00 00 00 00 00 00      	vx_tmc	zero
10000c88: 13 20 00 00 00 00 00 00      	li	a6, 0x0
10000c90: 73 1a 04 00 40 f1 00 00      	csrr	a3, mhartid
10000c98: 73 16 04 00 00 fc 00 00      	csrr	a1, nt
10000ca0: 73 18 04 00 10 fc 00 00      	csrr	a2, nw
10000ca8: 33 16 b0 c0 00 00 10 00      	mul	a1, a1, a2
10000cb0: 33 1a d8 b0 00 00 10 00      	div	a3, a3, a1
10000cb8: 33 1a d0 b0 00 00 10 00      	mul	a3, a3, a1
10000cc0: 13 1a d2 00 20 00 00 00      	slli	a3, a3, 0x2
10000cc8: 17 16 00 00 80 33 02 00      	auipc	a1, 0x2338
10000cd0: 33 16 b0 d0 00 00 00 00      	add	a1, a1, a3
10000cd8: 13 18 00 00 00 00 00 00      	li	a2, 0x0
10000ce0: 13 1a 00 00 00 02 00 00      	li	a3, 0x20
10000ce8: 63 00 c0 d0 00 05 00 00      	beq	a2, a3, 0x10000d38 <test_4+0x2c8>
10000cf0: 13 1c c2 00 20 00 00 00      	slli	a4, a2, 0x2
10000cf8: 33 1c b0 e0 00 00 00 00      	add	a4, a1, a4
10000d00: 03 1e e4 00 00 00 00 00      	lw.global	a5, 0x0(a4)
10000d08: 23 00 e4 00 00 00 00 00      	sw.global	zero, 0x0(a4)
10000d10: 13 1e fe 00 10 00 00 00      	andi	a5, a5, 0x1
10000d18: 33 1e f2 c0 00 00 00 00      	sll	a5, a5, a2
10000d20: 33 20 0c f1 00 00 00 00      	or	a6, a6, a5
10000d28: 13 18 c0 00 10 00 00 00      	addi	a2, a2, 0x1
10000d30: 6f 00 00 f0 8f fb ff 0f      	j	0x10000ce8 <test_4+0x278>
10000d38: 13 28 00 01 00 00 00 00      	mv	s4, a6
10000d40: 13 0e 00 f0 ff ff ff 0f      	li	t2, -0x1
10000d48: 63 00 42 71 80 db 00 00      	bne	s4, t2, 0x10001b00 <fail>

10000d50 <test_5>:
10000d50: 13 06 00 00 50 00 00 00      	li	gp, 0x5
10000d58: 13 16 00 00 40 00 00 00      	li	a1, 0x4
10000d60: 17 18 00 00 00 01 00 00      	auipc	a2, 0x10
10000d68: 0b 00 b2 c0 00 00 00 00      	vx_wspawn	a1, a2
10000d70: 13 28 00 f0 ff ff ff 0f      	li	s4, -0x1
10000d78: 0b 00 40 01 00 00 00 00      	vx_tmc	s4
10000d80: 13 06 00 00 50 00 00 00      	li	gp, 0x5
10000d88: 73 3a 04 00 20 cc 00 00      	csrr	t4, cid
10000d90: 73 0a 04 00 10 cc 00 00      	csrr	t0, wid
10000d98: 13 0a 52 00 70 00 00 00      	slli	t0, t0, 0x7
10000da0: 13 0a 50 00 10 00 00 00      	addi	t0, t0, 0x1
10000da8: 13 0a 50 f0 ff ff ff 0f      	addi	t0, t0, -0x1
10000db0: 63 fe 53 00 80 ff ff 0f      	bnez	t0, 0x10000da8 <test_5+0x58>
10000db8: 13 3e 00 00 40 00 00 00      	li	t6, 0x4
10000dc0: 5b 00 d2 f1 01 00 d0 0f      	nu.invoke.ri.pw.sync	zero, t4, t6, zero, zero, 0x40
10000dc8: 17 16 00 00 80 23 02 00      	auipc	a1, 0x2238
10000dd0: 73 18 04 00 40 f1 00 00      	csrr	a2, mhartid
10000dd8: 13 18 c2 00 20 00 00 00      	slli	a2, a2, 0x2
10000de0: 33 16 b0 c0 00 00 00 00      	add	a1, a1, a2
10000de8: 13 1a 00 00 10 00 00 00      	li	a3, 0x1
10000df0: 23 00 b4 d0 00 00 00 00      	sw.global	a3, 0x0(a1)
10000df8: 13 16 00 00 80 0c 00 00      	li	a1, 0xc8
10000e00: 13 16 b0 f0 ff ff ff 0f      	addi	a1, a1, -0x1
10000e08: 63 fe bb 00 80 ff ff 0f      	bgez	a1, 0x10000e00 <test_5+0xb0>
10000e10: 13 16 00 00 40 00 00 00      	li	a1, 0x4
10000e18: 17 18 00 00 00 01 00 00      	auipc	a2, 0x10
10000e20: 0b 00 b2 c0 00 00 00 00      	vx_wspawn	a1, a2
10000e28: 13 16 00 00 10 00 00 00      	li	a1, 0x1
10000e30: 0b 00 b0 00 00 00 00 00      	vx_tmc	a1
10000e38: 73 16 04 00 10 cc 00 00      	csrr	a1, wid
10000e40: 13 16 be 00 f0 ff 0f 00      	andi	a1, a1, 0xffff
10000e48: 63 00 b0 00 00 01 00 00      	beqz	a1, 0x10000e58 <test_5+0x108>
10000e50: 0b 00 00 00 00 00 00 00      	vx_tmc	zero
10000e58: 13 20 00 00 00 00 00 00      	li	a6, 0x0
10000e60: 73 1a 04 00 40 f1 00 00      	csrr	a3, mhartid
10000e68: 73 16 04 00 00 fc 00 00      	csrr	a1, nt
10000e70: 73 18 04 00 10 fc 00 00      	csrr	a2, nw
10000e78: 33 16 b0 c0 00 00 10 00      	mul	a1, a1, a2
10000e80: 33 1a d8 b0 00 00 10 00      	div	a3, a3, a1
10000e88: 33 1a d0 b0 00 00 10 00      	mul	a3, a3, a1
10000e90: 13 1a d2 00 20 00 00 00      	slli	a3, a3, 0x2
10000e98: 17 16 00 00 80 1e 02 00      	auipc	a1, 0x21e8
10000ea0: 33 16 b0 d0 00 00 00 00      	add	a1, a1, a3
10000ea8: 13 18 00 00 00 00 00 00      	li	a2, 0x0
10000eb0: 13 1a 00 00 00 02 00 00      	li	a3, 0x20
10000eb8: 63 00 c0 d0 00 05 00 00      	beq	a2, a3, 0x10000f08 <test_5+0x1b8>
10000ec0: 13 1c c2 00 20 00 00 00      	slli	a4, a2, 0x2
10000ec8: 33 1c b0 e0 00 00 00 00      	add	a4, a1, a4
10000ed0: 03 1e e4 00 00 00 00 00      	lw.global	a5, 0x0(a4)
10000ed8: 23 00 e4 00 00 00 00 00      	sw.global	zero, 0x0(a4)
10000ee0: 13 1e fe 00 10 00 00 00      	andi	a5, a5, 0x1
10000ee8: 33 1e f2 c0 00 00 00 00      	sll	a5, a5, a2
10000ef0: 33 20 0c f1 00 00 00 00      	or	a6, a6, a5
10000ef8: 13 18 c0 00 10 00 00 00      	addi	a2, a2, 0x1
10000f00: 6f 00 00 f0 8f fb ff 0f      	j	0x10000eb8 <test_5+0x168>
10000f08: 13 28 00 01 00 00 00 00      	mv	s4, a6
10000f10: 13 0e 00 f0 ff ff ff 0f      	li	t2, -0x1
10000f18: 63 00 42 71 80 be 00 00      	bne	s4, t2, 0x10001b00 <fail>
10000f20: 13 16 00 00 40 00 00 00      	li	a1, 0x4
10000f28: 17 18 00 00 00 01 00 00      	auipc	a2, 0x10
10000f30: 0b 00 b2 c0 00 00 00 00      	vx_wspawn	a1, a2
10000f38: 13 16 00 00 10 00 00 00      	li	a1, 0x1
10000f40: 0b 00 b0 00 00 00 00 00      	vx_tmc	a1
10000f48: 73 16 04 00 10 cc 00 00      	csrr	a1, wid
10000f50: 13 16 be 00 f0 ff 0f 00      	andi	a1, a1, 0xffff
10000f58: 63 00 b0 00 00 01 00 00      	beqz	a1, 0x10000f68 <test_5+0x218>
10000f60: 0b 00 00 00 00 00 00 00      	vx_tmc	zero
10000f68: 13 20 00 00 00 00 00 00      	li	a6, 0x0
10000f70: 73 1a 04 00 40 f1 00 00      	csrr	a3, mhartid
10000f78: 73 16 04 00 00 fc 00 00      	csrr	a1, nt
10000f80: 73 18 04 00 10 fc 00 00      	csrr	a2, nw
10000f88: 33 16 b0 c0 00 00 10 00      	mul	a1, a1, a2
10000f90: 33 1a d8 b0 00 00 10 00      	div	a3, a3, a1
10000f98: 33 1a d0 b0 00 00 10 00      	mul	a3, a3, a1
10000fa0: 13 1a d2 00 20 00 00 00      	slli	a3, a3, 0x2
10000fa8: 17 16 00 00 80 05 02 00      	auipc	a1, 0x2058
10000fb0: 33 16 b0 d0 00 00 00 00      	add	a1, a1, a3
10000fb8: 13 18 00 00 00 00 00 00      	li	a2, 0x0
10000fc0: 13 1a 00 00 00 02 00 00      	li	a3, 0x20
10000fc8: 63 00 c0 d0 00 05 00 00      	beq	a2, a3, 0x10001018 <test_5+0x2c8>
10000fd0: 13 1c c2 00 20 00 00 00      	slli	a4, a2, 0x2
10000fd8: 33 1c b0 e0 00 00 00 00      	add	a4, a1, a4
10000fe0: 03 1e e4 00 00 00 00 00      	lw.global	a5, 0x0(a4)
10000fe8: 23 00 e4 00 00 00 00 00      	sw.global	zero, 0x0(a4)
10000ff0: 13 1e fe 00 10 00 00 00      	andi	a5, a5, 0x1
10000ff8: 33 1e f2 c0 00 00 00 00      	sll	a5, a5, a2
10001000: 33 20 0c f1 00 00 00 00      	or	a6, a6, a5
10001008: 13 18 c0 00 10 00 00 00      	addi	a2, a2, 0x1
10001010: 6f 00 00 f0 8f fb ff 0f      	j	0x10000fc8 <test_5+0x278>
10001018: 13 28 00 01 00 00 00 00      	mv	s4, a6
10001020: 13 0e 00 f0 ff ff ff 0f      	li	t2, -0x1
10001028: 63 00 42 71 80 ad 00 00      	bne	s4, t2, 0x10001b00 <fail>

10001030 <test_6>:
10001030: 13 06 00 00 60 00 00 00      	li	gp, 0x6
10001038: 13 16 00 00 40 00 00 00      	li	a1, 0x4
10001040: 17 18 00 00 00 01 00 00      	auipc	a2, 0x10
10001048: 0b 00 b2 c0 00 00 00 00      	vx_wspawn	a1, a2
10001050: 13 28 00 f0 ff ff ff 0f      	li	s4, -0x1
10001058: 0b 00 40 01 00 00 00 00      	vx_tmc	s4
10001060: 13 06 00 00 60 00 00 00      	li	gp, 0x6
10001068: 73 0a 04 00 10 cc 00 00      	csrr	t0, wid
10001070: 13 0c 5a 00 10 00 00 00      	srli	t1, t0, 0x1
10001078: 13 0a 62 00 a0 00 00 00      	slli	t0, t1, 0xa
10001080: 13 0a 50 00 10 00 00 00      	addi	t0, t0, 0x1
10001088: 13 0a 50 f0 ff ff ff 0f      	addi	t0, t0, -0x1
10001090: 63 fe 53 00 80 ff ff 0f      	bnez	t0, 0x10001088 <test_6+0x58>
10001098: 13 3e 00 00 40 00 00 00      	li	t6, 0x4
100010a0: 5b 00 62 f0 01 00 d0 0f      	nu.invoke.ri.pw.sync	zero, t1, t6, zero, zero, 0x40
100010a8: 17 16 00 00 80 f5 01 00      	auipc	a1, 0x1f58
100010b0: 73 18 04 00 40 f1 00 00      	csrr	a2, mhartid
100010b8: 13 18 c2 00 20 00 00 00      	slli	a2, a2, 0x2
100010c0: 33 16 b0 c0 00 00 00 00      	add	a1, a1, a2
100010c8: 13 1a 00 00 10 00 00 00      	li	a3, 0x1
100010d0: 23 00 b4 d0 00 00 00 00      	sw.global	a3, 0x0(a1)
100010d8: 13 16 00 00 80 0c 00 00      	li	a1, 0xc8
100010e0: 13 16 b0 f0 ff ff ff 0f      	addi	a1, a1, -0x1
100010e8: 63 fe bb 00 80 ff ff 0f      	bgez	a1, 0x100010e0 <test_6+0xb0>
100010f0: 13 0e 60 f0 ff ff ff 0f      	addi	t2, t1, -0x1
100010f8: 13 38 78 f0 ff ff ff 0f      	not	t3, t2
10001100: 13 16 00 00 00 00 00 00      	li	a1, 0x0
10001108: 17 18 00 00 00 01 00 00      	auipc	a2, 0x10
10001110: 0b 00 b2 c0 00 00 00 00      	vx_wspawn	a1, a2
10001118: 13 16 00 00 10 00 00 00      	li	a1, 0x1
10001120: 0b 00 b0 00 00 00 00 00      	vx_tmc	a1
10001128: 73 16 04 00 10 cc 00 00      	csrr	a1, wid
10001130: 13 16 be 00 d0 ff 0f 00      	andi	a1, a1, 0xfffd
10001138: 63 00 b0 00 00 01 00 00      	beqz	a1, 0x10001148 <test_6+0x118>
10001140: 0b 00 00 00 00 00 00 00      	vx_tmc	zero
10001148: 13 20 00 00 00 00 00 00      	li	a6, 0x0
10001150: 73 1a 04 00 40 f1 00 00      	csrr	a3, mhartid
10001158: 73 16 04 00 00 fc 00 00      	csrr	a1, nt
10001160: 73 18 04 00 10 fc 00 00      	csrr	a2, nw
10001168: 33 16 b0 c0 00 00 10 00      	mul	a1, a1, a2
10001170: 33 1a d8 b0 00 00 10 00      	div	a3, a3, a1
10001178: 33 1a d0 b0 00 00 10 00      	mul	a3, a3, a1
10001180: 13 1a d2 00 20 00 00 00      	slli	a3, a3, 0x2
10001188: 17 16 00 00 80 ef 01 00      	auipc	a1, 0x1ef8
10001190: 33 16 b0 d0 00 00 00 00      	add	a1, a1, a3
10001198: 13 18 00 00 00 00 00 00      	li	a2, 0x0
100011a0: 13 1a 00 00 00 02 00 00      	li	a3, 0x20
100011a8: 63 00 c0 d0 00 05 00 00      	beq	a2, a3, 0x100011f8 <test_6+0x1c8>
100011b0: 13 1c c2 00 20 00 00 00      	slli	a4, a2, 0x2
100011b8: 33 1c b0 e0 00 00 00 00      	add	a4, a1, a4
100011c0: 03 1e e4 00 00 00 00 00      	lw.global	a5, 0x0(a4)
100011c8: 23 00 e4 00 00 00 00 00      	sw.global	zero, 0x0(a4)
100011d0: 13 1e fe 00 10 00 00 00      	andi	a5, a5, 0x1
100011d8: 33 1e f2 c0 00 00 00 00      	sll	a5, a5, a2
100011e0: 33 20 0c f1 00 00 00 00      	or	a6, a6, a5
100011e8: 13 18 c0 00 10 00 00 00      	addi	a2, a2, 0x1
100011f0: 6f 00 00 f0 8f fb ff 0f      	j	0x100011a8 <test_6+0x178>
100011f8: 13 28 00 01 00 00 00 00      	mv	s4, a6
10001200: 63 00 42 c1 01 90 00 00      	bne	s4, t3, 0x10001b00 <fail>
10001208: 13 16 00 00 00 00 00 00      	li	a1, 0x0
10001210: 17 18 00 00 00 01 00 00      	auipc	a2, 0x10
10001218: 0b 00 b2 c0 00 00 00 00      	vx_wspawn	a1, a2
10001220: 13 16 00 00 10 00 00 00      	li	a1, 0x1
10001228: 0b 00 b0 00 00 00 00 00      	vx_tmc	a1
10001230: 73 16 04 00 10 cc 00 00      	csrr	a1, wid
10001238: 13 16 be 00 d0 ff 0f 00      	andi	a1, a1, 0xfffd
10001240: 63 00 b0 00 00 01 00 00      	beqz	a1, 0x10001250 <test_6+0x220>
10001248: 0b 00 00 00 00 00 00 00      	vx_tmc	zero
10001250: 13 20 00 00 00 00 00 00      	li	a6, 0x0
10001258: 73 1a 04 00 40 f1 00 00      	csrr	a3, mhartid
10001260: 73 16 04 00 00 fc 00 00      	csrr	a1, nt
10001268: 73 18 04 00 10 fc 00 00      	csrr	a2, nw
10001270: 33 16 b0 c0 00 00 10 00      	mul	a1, a1, a2
10001278: 33 1a d8 b0 00 00 10 00      	div	a3, a3, a1
10001280: 33 1a d0 b0 00 00 10 00      	mul	a3, a3, a1
10001288: 13 1a d2 00 20 00 00 00      	slli	a3, a3, 0x2
10001290: 17 16 00 00 00 d7 01 00      	auipc	a1, 0x1d70
10001298: 33 16 b0 d0 00 00 00 00      	add	a1, a1, a3
100012a0: 13 18 00 00 00 00 00 00      	li	a2, 0x0
100012a8: 13 1a 00 00 00 02 00 00      	li	a3, 0x20
100012b0: 63 00 c0 d0 00 05 00 00      	beq	a2, a3, 0x10001300 <test_6+0x2d0>
100012b8: 13 1c c2 00 20 00 00 00      	slli	a4, a2, 0x2
100012c0: 33 1c b0 e0 00 00 00 00      	add	a4, a1, a4
100012c8: 03 1e e4 00 00 00 00 00      	lw.global	a5, 0x0(a4)
100012d0: 23 00 e4 00 00 00 00 00      	sw.global	zero, 0x0(a4)
100012d8: 13 1e fe 00 10 00 00 00      	andi	a5, a5, 0x1
100012e0: 33 1e f2 c0 00 00 00 00      	sll	a5, a5, a2
100012e8: 33 20 0c f1 00 00 00 00      	or	a6, a6, a5
100012f0: 13 18 c0 00 10 00 00 00      	addi	a2, a2, 0x1
100012f8: 6f 00 00 f0 8f fb ff 0f      	j	0x100012b0 <test_6+0x280>
10001300: 13 28 00 01 00 00 00 00      	mv	s4, a6
10001308: 63 00 42 71 80 7f 00 00      	bne	s4, t2, 0x10001b00 <fail>
10001310: 13 3e 00 00 40 00 00 00      	li	t6, 0x4
10001318: 5b 00 02 f0 01 00 d0 0f      	nu.invoke.ri.pw.sync	zero, zero, t6, zero, zero, 0x40
10001320: 17 16 00 00 00 ce 01 00      	auipc	a1, 0x1ce0
10001328: 73 18 04 00 40 f1 00 00      	csrr	a2, mhartid
10001330: 13 18 c2 00 20 00 00 00      	slli	a2, a2, 0x2
10001338: 33 16 b0 c0 00 00 00 00      	add	a1, a1, a2
10001340: 13 1a 00 00 10 00 00 00      	li	a3, 0x1
10001348: 23 00 b4 d0 00 00 00 00      	sw.global	a3, 0x0(a1)
10001350: 13 16 00 00 80 0c 00 00      	li	a1, 0xc8
10001358: 13 16 b0 f0 ff ff ff 0f      	addi	a1, a1, -0x1
10001360: 63 fe bb 00 80 ff ff 0f      	bgez	a1, 0x10001358 <test_6+0x328>
10001368: 13 16 00 00 40 00 00 00      	li	a1, 0x4
10001370: 17 18 00 00 00 01 00 00      	auipc	a2, 0x10
10001378: 0b 00 b2 c0 00 00 00 00      	vx_wspawn	a1, a2
10001380: 13 16 00 00 10 00 00 00      	li	a1, 0x1
10001388: 0b 00 b0 00 00 00 00 00      	vx_tmc	a1
10001390: 73 16 04 00 10 cc 00 00      	csrr	a1, wid
10001398: 13 16 be 00 f0 ff 0f 00      	andi	a1, a1, 0xffff
100013a0: 63 00 b0 00 00 01 00 00      	beqz	a1, 0x100013b0 <test_6+0x380>
100013a8: 0b 00 00 00 00 00 00 00      	vx_tmc	zero
100013b0: 13 20 00 00 00 00 00 00      	li	a6, 0x0
100013b8: 73 1a 04 00 40 f1 00 00      	csrr	a3, mhartid
100013c0: 73 16 04 00 00 fc 00 00      	csrr	a1, nt
100013c8: 73 18 04 00 10 fc 00 00      	csrr	a2, nw
100013d0: 33 16 b0 c0 00 00 10 00      	mul	a1, a1, a2
100013d8: 33 1a d8 b0 00 00 10 00      	div	a3, a3, a1
100013e0: 33 1a d0 b0 00 00 10 00      	mul	a3, a3, a1
100013e8: 13 1a d2 00 20 00 00 00      	slli	a3, a3, 0x2
100013f0: 17 16 00 00 00 c9 01 00      	auipc	a1, 0x1c90
100013f8: 33 16 b0 d0 00 00 00 00      	add	a1, a1, a3
10001400: 13 18 00 00 00 00 00 00      	li	a2, 0x0
10001408: 13 1a 00 00 00 02 00 00      	li	a3, 0x20
10001410: 63 00 c0 d0 00 05 00 00      	beq	a2, a3, 0x10001460 <test_6+0x430>
10001418: 13 1c c2 00 20 00 00 00      	slli	a4, a2, 0x2
10001420: 33 1c b0 e0 00 00 00 00      	add	a4, a1, a4
10001428: 03 1e e4 00 00 00 00 00      	lw.global	a5, 0x0(a4)
10001430: 23 00 e4 00 00 00 00 00      	sw.global	zero, 0x0(a4)
10001438: 13 1e fe 00 10 00 00 00      	andi	a5, a5, 0x1
10001440: 33 1e f2 c0 00 00 00 00      	sll	a5, a5, a2
10001448: 33 20 0c f1 00 00 00 00      	or	a6, a6, a5
10001450: 13 18 c0 00 10 00 00 00      	addi	a2, a2, 0x1
10001458: 6f 00 00 f0 8f fb ff 0f      	j	0x10001410 <test_6+0x3e0>
10001460: 13 28 00 01 00 00 00 00      	mv	s4, a6
10001468: 13 0e 00 00 10 00 00 00      	li	t2, 0x1
10001470: 63 00 42 71 00 69 00 00      	bne	s4, t2, 0x10001b00 <fail>
10001478: 13 16 00 00 40 00 00 00      	li	a1, 0x4
10001480: 17 18 00 00 00 01 00 00      	auipc	a2, 0x10
10001488: 0b 00 b2 c0 00 00 00 00      	vx_wspawn	a1, a2
10001490: 13 16 00 00 10 00 00 00      	li	a1, 0x1
10001498: 0b 00 b0 00 00 00 00 00      	vx_tmc	a1
100014a0: 73 16 04 00 10 cc 00 00      	csrr	a1, wid
100014a8: 13 16 be 00 f0 ff 0f 00      	andi	a1, a1, 0xffff
100014b0: 63 00 b0 00 00 01 00 00      	beqz	a1, 0x100014c0 <test_6+0x490>
100014b8: 0b 00 00 00 00 00 00 00      	vx_tmc	zero
100014c0: 13 20 00 00 00 00 00 00      	li	a6, 0x0
100014c8: 73 1a 04 00 40 f1 00 00      	csrr	a3, mhartid
100014d0: 73 16 04 00 00 fc 00 00      	csrr	a1, nt
100014d8: 73 18 04 00 10 fc 00 00      	csrr	a2, nw
100014e0: 33 16 b0 c0 00 00 10 00      	mul	a1, a1, a2
100014e8: 33 1a d8 b0 00 00 10 00      	div	a3, a3, a1
100014f0: 33 1a d0 b0 00 00 10 00      	mul	a3, a3, a1
100014f8: 13 1a d2 00 20 00 00 00      	slli	a3, a3, 0x2
10001500: 17 16 00 00 00 b0 01 00      	auipc	a1, 0x1b00
10001508: 33 16 b0 d0 00 00 00 00      	add	a1, a1, a3
10001510: 13 18 00 00 00 00 00 00      	li	a2, 0x0
10001518: 13 1a 00 00 00 02 00 00      	li	a3, 0x20
10001520: 63 00 c0 d0 00 05 00 00      	beq	a2, a3, 0x10001570 <test_6+0x540>
10001528: 13 1c c2 00 20 00 00 00      	slli	a4, a2, 0x2
10001530: 33 1c b0 e0 00 00 00 00      	add	a4, a1, a4
10001538: 03 1e e4 00 00 00 00 00      	lw.global	a5, 0x0(a4)
10001540: 23 00 e4 00 00 00 00 00      	sw.global	zero, 0x0(a4)
10001548: 13 1e fe 00 10 00 00 00      	andi	a5, a5, 0x1
10001550: 33 1e f2 c0 00 00 00 00      	sll	a5, a5, a2
10001558: 33 20 0c f1 00 00 00 00      	or	a6, a6, a5
10001560: 13 18 c0 00 10 00 00 00      	addi	a2, a2, 0x1
10001568: 6f 00 00 f0 8f fb ff 0f      	j	0x10001520 <test_6+0x4f0>
10001570: 13 28 00 01 00 00 00 00      	mv	s4, a6
10001578: 13 0e 00 00 10 00 00 00      	li	t2, 0x1
10001580: 63 00 42 71 00 58 00 00      	bne	s4, t2, 0x10001b00 <fail>

10001588 <test_7>:
10001588: 13 06 00 00 70 00 00 00      	li	gp, 0x7
10001590: 13 16 00 00 40 00 00 00      	li	a1, 0x4
10001598: 17 18 00 00 00 01 00 00      	auipc	a2, 0x10
100015a0: 0b 00 b2 c0 00 00 00 00      	vx_wspawn	a1, a2
100015a8: 13 28 00 f0 ff ff ff 0f      	li	s4, -0x1
100015b0: 0b 00 40 01 00 00 00 00      	vx_tmc	s4
100015b8: 13 06 00 00 70 00 00 00      	li	gp, 0x7
100015c0: 73 0a 04 00 10 cc 00 00      	csrr	t0, wid
100015c8: 13 0c 5e 00 10 00 00 00      	andi	t1, t0, 0x1
100015d0: 13 0e 00 00 10 00 00 00      	li	t2, 0x1
100015d8: 33 0c 70 60 00 00 00 02      	sub	t1, t2, t1
100015e0: 13 0a 62 00 a0 00 00 00      	slli	t0, t1, 0xa
100015e8: 13 0a 50 00 10 00 00 00      	addi	t0, t0, 0x1
100015f0: 13 0a 50 f0 ff ff ff 0f      	addi	t0, t0, -0x1
100015f8: 63 fe 53 00 80 ff ff 0f      	bnez	t0, 0x100015f0 <test_7+0x68>
10001600: 13 3e 00 00 40 00 00 00      	li	t6, 0x4
10001608: 5b 00 62 f0 01 00 d0 0f      	nu.invoke.ri.pw.sync	zero, t1, t6, zero, zero, 0x40
10001610: 17 16 00 00 00 9f 01 00      	auipc	a1, 0x19f0
10001618: 73 18 04 00 40 f1 00 00      	csrr	a2, mhartid
10001620: 13 18 c2 00 20 00 00 00      	slli	a2, a2, 0x2
10001628: 33 16 b0 c0 00 00 00 00      	add	a1, a1, a2
10001630: 13 1a 00 00 10 00 00 00      	li	a3, 0x1
10001638: 23 00 b4 d0 00 00 00 00      	sw.global	a3, 0x0(a1)
10001640: 13 16 00 00 80 0c 00 00      	li	a1, 0xc8
10001648: 13 16 b0 f0 ff ff ff 0f      	addi	a1, a1, -0x1
10001650: 63 fe bb 00 80 ff ff 0f      	bgez	a1, 0x10001648 <test_7+0xc0>
10001658: 13 0e 00 00 f0 ff 0f 00      	li	t2, 0xffff
10001660: 13 38 60 f0 ff ff ff 0f      	addi	t3, t1, -0x1
10001668: 33 0e 78 c0 01 00 00 00      	xor	t2, t2, t3
10001670: 13 16 00 00 00 00 00 00      	li	a1, 0x0
10001678: 17 18 00 00 00 01 00 00      	auipc	a2, 0x10
10001680: 0b 00 b2 c0 00 00 00 00      	vx_wspawn	a1, a2
10001688: 13 16 00 00 10 00 00 00      	li	a1, 0x1
10001690: 0b 00 b0 00 00 00 00 00      	vx_tmc	a1
10001698: 73 16 04 00 10 cc 00 00      	csrr	a1, wid
100016a0: 13 16 be 00 e0 ff 0f 00      	andi	a1, a1, 0xfffe
100016a8: 63 00 b0 00 00 01 00 00      	beqz	a1, 0x100016b8 <test_7+0x130>
100016b0: 0b 00 00 00 00 00 00 00      	vx_tmc	zero
100016b8: 13 20 00 00 00 00 00 00      	li	a6, 0x0
100016c0: 73 1a 04 00 40 f1 00 00      	csrr	a3, mhartid
100016c8: 73 16 04 00 00 fc 00 00      	csrr	a1, nt
100016d0: 73 18 04 00 10 fc 00 00      	csrr	a2, nw
100016d8: 33 16 b0 c0 00 00 10 00      	mul	a1, a1, a2
100016e0: 33 1a d8 b0 00 00 10 00      	div	a3, a3, a1
100016e8: 33 1a d0 b0 00 00 10 00      	mul	a3, a3, a1
100016f0: 13 1a d2 00 20 00 00 00      	slli	a3, a3, 0x2
100016f8: 17 16 00 00 80 98 01 00      	auipc	a1, 0x1988
10001700: 33 16 b0 d0 00 00 00 00      	add	a1, a1, a3
10001708: 13 18 00 00 00 00 00 00      	li	a2, 0x0
10001710: 13 1a 00 00 00 02 00 00      	li	a3, 0x20
10001718: 63 00 c0 d0 00 05 00 00      	beq	a2, a3, 0x10001768 <test_7+0x1e0>
10001720: 13 1c c2 00 20 00 00 00      	slli	a4, a2, 0x2
10001728: 33 1c b0 e0 00 00 00 00      	add	a4, a1, a4
10001730: 03 1e e4 00 00 00 00 00      	lw.global	a5, 0x0(a4)
10001738: 23 00 e4 00 00 00 00 00      	sw.global	zero, 0x0(a4)
10001740: 13 1e fe 00 10 00 00 00      	andi	a5, a5, 0x1
10001748: 33 1e f2 c0 00 00 00 00      	sll	a5, a5, a2
10001750: 33 20 0c f1 00 00 00 00      	or	a6, a6, a5
10001758: 13 18 c0 00 10 00 00 00      	addi	a2, a2, 0x1
10001760: 6f 00 00 f0 8f fb ff 0f      	j	0x10001718 <test_7+0x190>
10001768: 13 28 00 01 00 00 00 00      	mv	s4, a6
10001770: 63 00 42 71 00 39 00 00      	bne	s4, t2, 0x10001b00 <fail>
10001778: 13 16 00 00 00 00 00 00      	li	a1, 0x0
10001780: 17 18 00 00 00 01 00 00      	auipc	a2, 0x10
10001788: 0b 00 b2 c0 00 00 00 00      	vx_wspawn	a1, a2
10001790: 13 16 00 00 10 00 00 00      	li	a1, 0x1
10001798: 0b 00 b0 00 00 00 00 00      	vx_tmc	a1
100017a0: 73 16 04 00 10 cc 00 00      	csrr	a1, wid
100017a8: 13 16 be 00 e0 ff 0f 00      	andi	a1, a1, 0xfffe
100017b0: 63 00 b0 00 00 01 00 00      	beqz	a1, 0x100017c0 <test_7+0x238>
100017b8: 0b 00 00 00 00 00 00 00      	vx_tmc	zero
100017c0: 13 20 00 00 00 00 00 00      	li	a6, 0x0
100017c8: 73 1a 04 00 40 f1 00 00      	csrr	a3, mhartid
100017d0: 73 16 04 00 00 fc 00 00      	csrr	a1, nt
100017d8: 73 18 04 00 10 fc 00 00      	csrr	a2, nw
100017e0: 33 16 b0 c0 00 00 10 00      	mul	a1, a1, a2
100017e8: 33 1a d8 b0 00 00 10 00      	div	a3, a3, a1
100017f0: 33 1a d0 b0 00 00 10 00      	mul	a3, a3, a1
100017f8: 13 1a d2 00 20 00 00 00      	slli	a3, a3, 0x2
10001800: 17 16 00 00 00 80 01 00      	auipc	a1, 0x1800
10001808: 33 16 b0 d0 00 00 00 00      	add	a1, a1, a3
10001810: 13 18 00 00 00 00 00 00      	li	a2, 0x0
10001818: 13 1a 00 00 00 02 00 00      	li	a3, 0x20
10001820: 63 00 c0 d0 00 05 00 00      	beq	a2, a3, 0x10001870 <test_7+0x2e8>
10001828: 13 1c c2 00 20 00 00 00      	slli	a4, a2, 0x2
10001830: 33 1c b0 e0 00 00 00 00      	add	a4, a1, a4
10001838: 03 1e e4 00 00 00 00 00      	lw.global	a5, 0x0(a4)
10001840: 23 00 e4 00 00 00 00 00      	sw.global	zero, 0x0(a4)
10001848: 13 1e fe 00 10 00 00 00      	andi	a5, a5, 0x1
10001850: 33 1e f2 c0 00 00 00 00      	sll	a5, a5, a2
10001858: 33 20 0c f1 00 00 00 00      	or	a6, a6, a5
10001860: 13 18 c0 00 10 00 00 00      	addi	a2, a2, 0x1
10001868: 6f 00 00 f0 8f fb ff 0f      	j	0x10001820 <test_7+0x298>
10001870: 13 28 00 01 00 00 00 00      	mv	s4, a6
10001878: 63 00 42 71 80 28 00 00      	bne	s4, t2, 0x10001b00 <fail>
10001880: 13 3e 00 00 40 00 00 00      	li	t6, 0x4
10001888: 5b 00 02 f0 01 00 d0 0f      	nu.invoke.ri.pw.sync	zero, zero, t6, zero, zero, 0x40
10001890: 17 16 00 00 00 77 01 00      	auipc	a1, 0x1770
10001898: 73 18 04 00 40 f1 00 00      	csrr	a2, mhartid
100018a0: 13 18 c2 00 20 00 00 00      	slli	a2, a2, 0x2
100018a8: 33 16 b0 c0 00 00 00 00      	add	a1, a1, a2
100018b0: 13 1a 00 00 10 00 00 00      	li	a3, 0x1
100018b8: 23 00 b4 d0 00 00 00 00      	sw.global	a3, 0x0(a1)
100018c0: 13 16 00 00 80 0c 00 00      	li	a1, 0xc8
100018c8: 13 16 b0 f0 ff ff ff 0f      	addi	a1, a1, -0x1
100018d0: 63 fe bb 00 80 ff ff 0f      	bgez	a1, 0x100018c8 <test_7+0x340>
100018d8: 13 16 00 00 40 00 00 00      	li	a1, 0x4
100018e0: 17 18 00 00 00 01 00 00      	auipc	a2, 0x10
100018e8: 0b 00 b2 c0 00 00 00 00      	vx_wspawn	a1, a2
100018f0: 13 16 00 00 10 00 00 00      	li	a1, 0x1
100018f8: 0b 00 b0 00 00 00 00 00      	vx_tmc	a1
10001900: 73 16 04 00 10 cc 00 00      	csrr	a1, wid
10001908: 13 16 be 00 f0 ff 0f 00      	andi	a1, a1, 0xffff
10001910: 63 00 b0 00 00 01 00 00      	beqz	a1, 0x10001920 <test_7+0x398>
10001918: 0b 00 00 00 00 00 00 00      	vx_tmc	zero
10001920: 13 20 00 00 00 00 00 00      	li	a6, 0x0
10001928: 73 1a 04 00 40 f1 00 00      	csrr	a3, mhartid
10001930: 73 16 04 00 00 fc 00 00      	csrr	a1, nt
10001938: 73 18 04 00 10 fc 00 00      	csrr	a2, nw
10001940: 33 16 b0 c0 00 00 10 00      	mul	a1, a1, a2
10001948: 33 1a d8 b0 00 00 10 00      	div	a3, a3, a1
10001950: 33 1a d0 b0 00 00 10 00      	mul	a3, a3, a1
10001958: 13 1a d2 00 20 00 00 00      	slli	a3, a3, 0x2
10001960: 17 16 00 00 00 72 01 00      	auipc	a1, 0x1720
10001968: 33 16 b0 d0 00 00 00 00      	add	a1, a1, a3
10001970: 13 18 00 00 00 00 00 00      	li	a2, 0x0
10001978: 13 1a 00 00 00 02 00 00      	li	a3, 0x20
10001980: 63 00 c0 d0 00 05 00 00      	beq	a2, a3, 0x100019d0 <test_7+0x448>
10001988: 13 1c c2 00 20 00 00 00      	slli	a4, a2, 0x2
10001990: 33 1c b0 e0 00 00 00 00      	add	a4, a1, a4
10001998: 03 1e e4 00 00 00 00 00      	lw.global	a5, 0x0(a4)
100019a0: 23 00 e4 00 00 00 00 00      	sw.global	zero, 0x0(a4)
100019a8: 13 1e fe 00 10 00 00 00      	andi	a5, a5, 0x1
100019b0: 33 1e f2 c0 00 00 00 00      	sll	a5, a5, a2
100019b8: 33 20 0c f1 00 00 00 00      	or	a6, a6, a5
100019c0: 13 18 c0 00 10 00 00 00      	addi	a2, a2, 0x1
100019c8: 6f 00 00 f0 8f fb ff 0f      	j	0x10001980 <test_7+0x3f8>
100019d0: 13 28 00 01 00 00 00 00      	mv	s4, a6
100019d8: 13 0e 00 00 00 00 00 00      	li	t2, 0x0
100019e0: 63 00 42 71 00 12 00 00      	bne	s4, t2, 0x10001b00 <fail>
100019e8: 13 16 00 00 40 00 00 00      	li	a1, 0x4
100019f0: 17 18 00 00 00 01 00 00      	auipc	a2, 0x10
100019f8: 0b 00 b2 c0 00 00 00 00      	vx_wspawn	a1, a2
10001a00: 13 16 00 00 10 00 00 00      	li	a1, 0x1
10001a08: 0b 00 b0 00 00 00 00 00      	vx_tmc	a1
10001a10: 73 16 04 00 10 cc 00 00      	csrr	a1, wid
10001a18: 13 16 be 00 f0 ff 0f 00      	andi	a1, a1, 0xffff
10001a20: 63 00 b0 00 00 01 00 00      	beqz	a1, 0x10001a30 <test_7+0x4a8>
10001a28: 0b 00 00 00 00 00 00 00      	vx_tmc	zero
10001a30: 13 20 00 00 00 00 00 00      	li	a6, 0x0
10001a38: 73 1a 04 00 40 f1 00 00      	csrr	a3, mhartid
10001a40: 73 16 04 00 00 fc 00 00      	csrr	a1, nt
10001a48: 73 18 04 00 10 fc 00 00      	csrr	a2, nw
10001a50: 33 16 b0 c0 00 00 10 00      	mul	a1, a1, a2
10001a58: 33 1a d8 b0 00 00 10 00      	div	a3, a3, a1
10001a60: 33 1a d0 b0 00 00 10 00      	mul	a3, a3, a1
10001a68: 13 1a d2 00 20 00 00 00      	slli	a3, a3, 0x2
10001a70: 17 16 00 00 00 59 01 00      	auipc	a1, 0x1590
10001a78: 33 16 b0 d0 00 00 00 00      	add	a1, a1, a3
10001a80: 13 18 00 00 00 00 00 00      	li	a2, 0x0
10001a88: 13 1a 00 00 00 02 00 00      	li	a3, 0x20
10001a90: 63 00 c0 d0 00 05 00 00      	beq	a2, a3, 0x10001ae0 <test_7+0x558>
10001a98: 13 1c c2 00 20 00 00 00      	slli	a4, a2, 0x2
10001aa0: 33 1c b0 e0 00 00 00 00      	add	a4, a1, a4
10001aa8: 03 1e e4 00 00 00 00 00      	lw.global	a5, 0x0(a4)
10001ab0: 23 00 e4 00 00 00 00 00      	sw.global	zero, 0x0(a4)
10001ab8: 13 1e fe 00 10 00 00 00      	andi	a5, a5, 0x1
10001ac0: 33 1e f2 c0 00 00 00 00      	sll	a5, a5, a2
10001ac8: 33 20 0c f1 00 00 00 00      	or	a6, a6, a5
10001ad0: 13 18 c0 00 10 00 00 00      	addi	a2, a2, 0x1
10001ad8: 6f 00 00 f0 8f fb ff 0f      	j	0x10001a90 <test_7+0x508>
10001ae0: 13 28 00 01 00 00 00 00      	mv	s4, a6
10001ae8: 13 0e 00 00 10 00 10 00      	li	t2, 0x10001
10001af0: 63 00 42 71 00 01 00 00      	bne	s4, t2, 0x10001b00 <fail>
10001af8: 63 00 02 30 80 03 00 00      	bne	zero, gp, 0x10001b30 <pass>

10001b00 <fail>:
10001b00: 0f 00 00 00 f0 0f 00 00      	fence
10001b08: 63 00 30 00 00 00 00 00      	beqz	gp, 0x10001b08 <fail+0x8>
10001b10: 13 06 32 00 10 00 00 00      	slli	gp, gp, 0x1
10001b18: 13 06 3c 00 10 00 00 00      	ori	gp, gp, 0x1
10001b20: 13 14 30 00 00 00 00 00      	mv	a0, gp
10001b28: 73 00 a0 00 20 00 00 00      	tohost	a0

10001b30 <pass>:
10001b30: 0f 00 00 00 f0 0f 00 00      	fence
10001b38: 13 06 00 00 10 00 00 00      	li	gp, 0x1
10001b40: 13 14 00 00 00 00 00 00      	li	a0, 0x0
10001b48: 73 00 a0 00 20 00 00 00      	tohost	a0
10001b50: 13 00 00 00 00 00 00 00      	nop
10001b58: 13 00 00 00 00 00 00 00      	nop
10001b60: 73 00 02 00 00 c0 00 00      	unimp

Disassembly of section .tohost:

10002000 <tohost>:
		...

10002040 <fromhost>:
		...

Disassembly of section .data:

10003000 <begin_signature>:
		...

10003100 <bar>:
		...

Disassembly of section .riscv.attributes:

00000000 <.riscv.attributes>:
       0: 41 30        	<unknown>
       2: 00 00        	<unknown>
       4: 00 72        	<unknown>
       6: 69 73        	<unknown>
       8: 63 76 00 01 26 00 00 00      	beq	a6, t7, 0x3b00000a <_end+0x2affc00a>
      10: 05 72        	<unknown>
      12: 76 33        	<unknown>
      14: 32 69        	<unknown>
      16: 32 70        	<unknown>
      18: 31 5f        	<unknown>
      1a: 6d 32        	<unknown>
      1c: 70 30        	<unknown>
      1e: 5f 7a 69 63 73 72 32 70      	<unknown>
      26: 30 5f        	<unknown>
      28: 7a 66        	<unknown>
      2a: 69 6e        	<unknown>
      2c: 78 31        	<unknown>
      2e: 70 30        	<unknown>
      30: 00           	<unknown>

Disassembly of section .comment:

00000000 <.comment>:
       0: 4c 69        	<unknown>
       2: 6e 6b        	<unknown>
       4: 65 72        	<unknown>
       6: 3a 20        	<unknown>
       8: 4c 4c        	<unknown>
       a: 44 20        	<unknown>
       c: 31 38        	<unknown>
       e: 2e 31        	<unknown>
      10: 2e 37        	<unknown>
      12: 00           	<unknown>

Disassembly of section .symtab:

00000000 <.symtab>:
		...
      10: 01 00        	<unknown>
      12: 00 00        	<unknown>
      14: 00 00        	<unknown>
      16: 00 10        	<unknown>
      18: 00 00        	<unknown>
      1a: 00 00        	<unknown>
      1c: 00 00        	<unknown>
      1e: 01 00        	<unknown>
      20: 06 00        	<unknown>
      22: 00 00        	<unknown>
      24: 38 00        	<unknown>
      26: 00 10        	<unknown>
      28: 00 00        	<unknown>
      2a: 00 00        	<unknown>
      2c: 00 00        	<unknown>
      2e: 01 00        	<unknown>
      30: 13 00 00 00 08 00 00 10      	<unknown>
      38: 00 00        	<unknown>
      3a: 00 00        	<unknown>
      3c: 00 00        	<unknown>
      3e: 01 00        	<unknown>
      40: 24 00        	<unknown>
      42: 00 00        	<unknown>
      44: 08 00        	<unknown>
      46: 00 10        	<unknown>
      48: 00 00        	<unknown>
      4a: 00 00        	<unknown>
      4c: 00 00        	<unknown>
      4e: 01 00        	<unknown>
      50: 34 00        	<unknown>
      52: 00 00        	<unknown>
      54: 10 00        	<unknown>
      56: 00 10        	<unknown>
      58: 00 00        	<unknown>
      5a: 00 00        	<unknown>
      5c: 00 00        	<unknown>
      5e: 01 00        	<unknown>
      60: 41 00        	<unknown>
      62: 00 00        	<unknown>
      64: b0 04        	<unknown>
      66: 00 10        	<unknown>
      68: 00 00        	<unknown>
      6a: 00 00        	<unknown>
      6c: 00 00        	<unknown>
      6e: 01 00        	<unknown>
      70: 48 00        	<unknown>
      72: 00 00        	<unknown>
      74: 00 30        	<unknown>
      76: 00 10        	<unknown>
      78: 00 00        	<unknown>
      7a: 00 00        	<unknown>
      7c: 00 00        	<unknown>
      7e: 04 00        	<unknown>
      80: 4e 00        	<unknown>
      82: 00 00        	<unknown>
      84: 00 1b        	<unknown>
      86: 00 10        	<unknown>
      88: 00 00        	<unknown>
      8a: 00 00        	<unknown>
      8c: 00 00        	<unknown>
      8e: 01 00        	<unknown>
      90: 53 00 00 00 90 07 00 10      	<unknown>
      98: 00 00        	<unknown>
      9a: 00 00        	<unknown>
      9c: 00 00        	<unknown>
      9e: 01 00        	<unknown>
      a0: 5a 00        	<unknown>
      a2: 00 00        	<unknown>
      a4: 70 0a        	<unknown>
      a6: 00 10        	<unknown>
      a8: 00 00        	<unknown>
      aa: 00 00        	<unknown>
      ac: 00 00        	<unknown>
      ae: 01 00        	<unknown>
      b0: 61 00        	<unknown>
      b2: 00 00        	<unknown>
      b4: 50 0d        	<unknown>
      b6: 00 10        	<unknown>
      b8: 00 00        	<unknown>
      ba: 00 00        	<unknown>
      bc: 00 00        	<unknown>
      be: 01 00        	<unknown>
      c0: 68 00        	<unknown>
      c2: 00 00        	<unknown>
      c4: 30 10        	<unknown>
      c6: 00 10        	<unknown>
      c8: 00 00        	<unknown>
      ca: 00 00        	<unknown>
      cc: 00 00        	<unknown>
      ce: 01 00        	<unknown>
      d0: 6f 00 00 00 88 15 00 10      	<unknown>
      d8: 00 00        	<unknown>
      da: 00 00        	<unknown>
      dc: 00 00        	<unknown>
      de: 01 00        	<unknown>
      e0: 76 00        	<unknown>
      e2: 00 00        	<unknown>
      e4: 30 1b        	<unknown>
      e6: 00 10        	<unknown>
      e8: 00 00        	<unknown>
      ea: 00 00        	<unknown>
      ec: 00 00        	<unknown>
      ee: 01 00        	<unknown>
      f0: 7b 00 00 00 00 20 00 10      	<unknown>
      f8: 00 00        	<unknown>
      fa: 00 00        	<unknown>
      fc: 00 00        	<unknown>
      fe: 02 00        	<unknown>
     100: 80 00        	<unknown>
     102: 00 00        	<unknown>
     104: 00 31        	<unknown>
     106: 00 10        	<unknown>
     108: 00 00        	<unknown>
     10a: 00 00        	<unknown>
     10c: 00 00        	<unknown>
     10e: 04 00        	<unknown>
     110: 84 00        	<unknown>
		...
     11e: f1 ff        	<unknown>
     120: 89 00        	<unknown>
     122: 00 00        	<unknown>
     124: 00 00        	<unknown>
     126: 00 10        	<unknown>
     128: 00 00        	<unknown>
     12a: 00 00        	<unknown>
     12c: 10 00        	<unknown>
     12e: 01 00        	<unknown>
     130: 90 00        	<unknown>
     132: 00 00        	<unknown>
     134: 00 20        	<unknown>
     136: 00 10        	<unknown>
     138: 08 00        	<unknown>
     13a: 00 00        	<unknown>
     13c: 10 00        	<unknown>
     13e: 02 00        	<unknown>
     140: 97 00 00 00 40 20 00 10      	<unknown>
     148: 08 00        	<unknown>
     14a: 00 00        	<unknown>
     14c: 10 00        	<unknown>
     14e: 02 00        	<unknown>
     150: a0 00        	<unknown>
     152: 00 00        	<unknown>
     154: 00 30        	<unknown>
     156: 00 10        	<unknown>
     158: 00 00        	<unknown>
     15a: 00 00        	<unknown>
     15c: 10 00        	<unknown>
     15e: 04 00        	<unknown>
     160: b0 00        	<unknown>
     162: 00 00        	<unknown>
     164: 10 31        	<unknown>
     166: 00 10        	<unknown>
     168: 00 00        	<unknown>
     16a: 00 00        	<unknown>
     16c: 10 00        	<unknown>
     16e: 04 00        	<unknown>
     170: be 00        	<unknown>
     172: 00 00        	<unknown>
     174: 00 40        	<unknown>
     176: 00 10        	<unknown>
     178: 00 00        	<unknown>
     17a: 00 00        	<unknown>
     17c: 10 00        	<unknown>
     17e: 04 00        	<unknown>
     180: cf 00 00 00 00 40 00 10      	<unknown>
     188: 00 00        	<unknown>
     18a: 00 00        	<unknown>
     18c: 10 00        	<unknown>
     18e: 04 00        	<unknown>

Disassembly of section .shstrtab:

00000000 <.shstrtab>:
       0: 00 2e        	<unknown>
       2: 74 65        	<unknown>
       4: 78 74        	<unknown>
       6: 2e 69        	<unknown>
       8: 6e 69        	<unknown>
       a: 74 00        	<unknown>
       c: 2e 74        	<unknown>
       e: 6f 68 6f 73 74 00 2e 74      	<unknown>
      16: 65 78        	<unknown>
      18: 74 00        	<unknown>
      1a: 2e 64        	<unknown>
      1c: 61 74        	<unknown>
      1e: 61 00        	<unknown>
      20: 2e 72        	<unknown>
      22: 69 73        	<unknown>
      24: 63 76 2e 61 74 74 72 69      	<unknown>
      2c: 62 75        	<unknown>
      2e: 74 65        	<unknown>
      30: 73 00 2e 63 6f 6d 6d 65      	<unknown>
      38: 6e 74        	<unknown>
      3a: 00 2e        	<unknown>
      3c: 73 79 6d 74 61 62 00 2e      	<unknown>
      44: 73 68 73 74 72 74 61 62      	<unknown>
      4c: 00 2e        	<unknown>
      4e: 73           	<unknown>
      4f: 74 72        	<unknown>
      51: 74 61        	<unknown>
      53: 62 00        	<unknown>

Disassembly of section .strtab:

00000000 <.strtab>:
       0: 00 24        	<unknown>
       2: 78 2e        	<unknown>
       4: 30 00        	<unknown>
       6: 72 65        	<unknown>
       8: 73 65 74 5f 76 65 63 74      	<unknown>
      10: 6f 72 00 68 61 6e 64 6c      	<unknown>
      18: 65 5f        	<unknown>
      1a: 65 78        	<unknown>
      1c: 63 65 70 74 69 6f 6e 00      	<unknown>
      24: 6f 74 68 65 72 5f 65 78      	<unknown>
      2c: 63 65 70 74 69 6f 6e 00      	<unknown>
      34: 77 72 69 74 65 5f 74 6f      	<unknown>
      3c: 68 6f        	<unknown>
      3e: 73 74 00 74 65 73 74 5f      	<unknown>
      46: 32 00        	<unknown>
      48: 61 6c        	<unknown>
      4a: 69 76        	<unknown>
      4c: 65 00        	<unknown>
      4e: 66 61        	<unknown>
      50: 69 6c        	<unknown>
      52: 00 74        	<unknown>
      54: 65 73        	<unknown>
      56: 74 5f        	<unknown>
      58: 33 00 74 65 73 74 5f 34      	<unknown>
      60: 00 74        	<unknown>
      62: 65 73        	<unknown>
      64: 74 5f        	<unknown>
      66: 35 00        	<unknown>
      68: 74 65        	<unknown>
      6a: 73 74 5f 36 00 74 65 73      	<unknown>
      72: 74 5f        	<unknown>
      74: 37 00 70 61 73 73 00 24      	<unknown>
      7c: 64 2e        	<unknown>
      7e: 31 00        	<unknown>
      80: 62 61        	<unknown>
      82: 72 00        	<unknown>
      84: 24 64        	<unknown>
      86: 2e 32        	<unknown>
      88: 00 5f        	<unknown>
      8a: 73 74 61 72 74 00 74 6f      	<unknown>
      92: 68 6f        	<unknown>
      94: 73 74 00 66 72 6f 6d 68      	<unknown>
      9c: 6f 73 74 00 62 65 67 69      	<unknown>
      a4: 6e 5f        	<unknown>
      a6: 73 69 67 6e 61 74 75 72      	<unknown>
      ae: 65 00        	<unknown>
      b0: 65 6e        	<unknown>
      b2: 64 5f        	<unknown>
      b4: 73 69 67 6e 61 74 75 72      	<unknown>
      bc: 65 00        	<unknown>
      be: 5f 5f 67 6c 6f 62 61 6c      	<unknown>
      c6: 5f 70 6f 69 6e 74 65 72      	<unknown>
      ce: 00 5f        	<unknown>
      d0: 65 6e        	<unknown>
      d2: 64 00        	<unknown>
