
vx32-p-wspawn:	file format elf32-littleriscv

Disassembly of section .text.init:

10000000 <_start>:
10000000: 6f 00 00 00 80 03 00 00      	j	0x10000038 <reset_vector>

10000008 <other_exception>:
10000008: 13 06 3c 00 90 53 00 00      	ori	gp, gp, 0x539

10000010 <write_tohost>:
10000010: 17 3c 00 00 00 00 00 00      	auipc	t5, 0x0
10000018: 23 00 e4 31 00 ff 01 00      	sw.global	gp, 0x1ff0(t5)
10000020: 17 3c 00 00 00 00 00 00      	auipc	t5, 0x0
10000028: 23 00 e4 01 40 fe 01 00      	sw.global	zero, 0x1fe4(t5)
10000030: 6f 00 00 f0 0f fe ff 0f      	j	0x10000010 <write_tohost>

10000038 <reset_vector>:
10000038: 13 0a 00 00 10 00 00 00      	li	t0, 0x1
10000040: 0b 00 50 00 00 00 00 00      	vx_tmc	t0
10000048: 13 02 00 00 00 00 00 00      	li	ra, 0x0
10000050: 13 04 00 00 00 00 00 00      	li	sp, 0x0
10000058: 13 06 00 00 00 00 00 00      	li	gp, 0x0
10000060: 13 08 00 00 00 00 00 00      	li	tp, 0x0
10000068: 13 0a 00 00 00 00 00 00      	li	t0, 0x0
10000070: 13 0c 00 00 00 00 00 00      	li	t1, 0x0
10000078: 13 0e 00 00 00 00 00 00      	li	t2, 0x0
10000080: 13 10 00 00 00 00 00 00      	li	s0, 0x0
10000088: 13 12 00 00 00 00 00 00      	li	s1, 0x0
10000090: 13 14 00 00 00 00 00 00      	li	a0, 0x0
10000098: 13 16 00 00 00 00 00 00      	li	a1, 0x0
100000a0: 13 18 00 00 00 00 00 00      	li	a2, 0x0
100000a8: 13 1a 00 00 00 00 00 00      	li	a3, 0x0
100000b0: 13 1c 00 00 00 00 00 00      	li	a4, 0x0
100000b8: 13 1e 00 00 00 00 00 00      	li	a5, 0x0
100000c0: 13 20 00 00 00 00 00 00      	li	a6, 0x0
100000c8: 13 22 00 00 00 00 00 00      	li	a7, 0x0
100000d0: 13 24 00 00 00 00 00 00      	li	s2, 0x0
100000d8: 13 26 00 00 00 00 00 00      	li	s3, 0x0
100000e0: 13 28 00 00 00 00 00 00      	li	s4, 0x0
100000e8: 13 2a 00 00 00 00 00 00      	li	s5, 0x0
100000f0: 13 2c 00 00 00 00 00 00      	li	s6, 0x0
100000f8: 13 2e 00 00 00 00 00 00      	li	s7, 0x0
10000100: 13 30 00 00 00 00 00 00      	li	s8, 0x0
10000108: 13 32 00 00 00 00 00 00      	li	s9, 0x0
10000110: 13 34 00 00 00 00 00 00      	li	s10, 0x0
10000118: 13 36 00 00 00 00 00 00      	li	s11, 0x0
10000120: 13 38 00 00 00 00 00 00      	li	t3, 0x0
10000128: 13 3a 00 00 00 00 00 00      	li	t4, 0x0
10000130: 13 3c 00 00 00 00 00 00      	li	t5, 0x0
10000138: 13 3e 00 00 00 00 00 00      	li	t6, 0x0
10000140: 13 40 00 00 00 00 00 00      	li	a8, 0x0
10000148: 13 42 00 00 00 00 00 00      	li	a9, 0x0
10000150: 13 44 00 00 00 00 00 00      	li	a10, 0x0
10000158: 13 46 00 00 00 00 00 00      	li	a11, 0x0
10000160: 13 48 00 00 00 00 00 00      	li	a12, 0x0
10000168: 13 4a 00 00 00 00 00 00      	li	a13, 0x0
10000170: 13 4c 00 00 00 00 00 00      	li	a14, 0x0
10000178: 13 4e 00 00 00 00 00 00      	li	a15, 0x0
10000180: 13 50 00 00 00 00 00 00      	li	a16, 0x0
10000188: 13 52 00 00 00 00 00 00      	li	a17, 0x0
10000190: 13 54 00 00 00 00 00 00      	li	a18, 0x0
10000198: 13 56 00 00 00 00 00 00      	li	a19, 0x0
100001a0: 13 58 00 00 00 00 00 00      	li	a20, 0x0
100001a8: 13 5a 00 00 00 00 00 00      	li	a21, 0x0
100001b0: 13 5c 00 00 00 00 00 00      	li	a22, 0x0
100001b8: 13 5e 00 00 00 00 00 00      	li	a23, 0x0
100001c0: 13 60 00 00 00 00 00 00      	li	s12, 0x0
100001c8: 13 62 00 00 00 00 00 00      	li	s13, 0x0
100001d0: 13 64 00 00 00 00 00 00      	li	s14, 0x0
100001d8: 13 66 00 00 00 00 00 00      	li	s15, 0x0
100001e0: 13 68 00 00 00 00 00 00      	li	s16, 0x0
100001e8: 13 6a 00 00 00 00 00 00      	li	s17, 0x0
100001f0: 13 6c 00 00 00 00 00 00      	li	s18, 0x0
100001f8: 13 6e 00 00 00 00 00 00      	li	s19, 0x0
10000200: 13 70 00 00 00 00 00 00      	li	s20, 0x0
10000208: 13 72 00 00 00 00 00 00      	li	s21, 0x0
10000210: 13 74 00 00 00 00 00 00      	li	s22, 0x0
10000218: 13 76 00 00 00 00 00 00      	li	s23, 0x0
10000220: 13 78 00 00 00 00 00 00      	li	s24, 0x0
10000228: 13 7a 00 00 00 00 00 00      	li	s25, 0x0
10000230: 13 7c 00 00 00 00 00 00      	li	s26, 0x0
10000238: 13 7e 00 00 00 00 00 00      	li	s27, 0x0
10000240: 13 80 00 00 00 00 00 00      	li	s28, 0x0
10000248: 13 82 00 00 00 00 00 00      	li	s29, 0x0
10000250: 13 84 00 00 00 00 00 00      	li	s30, 0x0
10000258: 13 86 00 00 00 00 00 00      	li	s31, 0x0
10000260: 13 88 00 00 00 00 00 00      	li	s32, 0x0
10000268: 13 8a 00 00 00 00 00 00      	li	s33, 0x0
10000270: 13 8c 00 00 00 00 00 00      	li	s34, 0x0
10000278: 13 8e 00 00 00 00 00 00      	li	s35, 0x0
10000280: 13 90 00 00 00 00 00 00      	li	s36, 0x0
10000288: 13 92 00 00 00 00 00 00      	li	s37, 0x0
10000290: 13 94 00 00 00 00 00 00      	li	s38, 0x0
10000298: 13 96 00 00 00 00 00 00      	li	s39, 0x0
100002a0: 13 98 00 00 00 00 00 00      	li	s40, 0x0
100002a8: 13 9a 00 00 00 00 00 00      	li	s41, 0x0
100002b0: 13 9c 00 00 00 00 00 00      	li	s42, 0x0
100002b8: 13 9e 00 00 00 00 00 00      	li	s43, 0x0
100002c0: 13 a0 00 00 00 00 00 00      	li	s44, 0x0
100002c8: 13 a2 00 00 00 00 00 00      	li	s45, 0x0
100002d0: 13 a4 00 00 00 00 00 00      	li	s46, 0x0
100002d8: 13 a6 00 00 00 00 00 00      	li	s47, 0x0
100002e0: 13 a8 00 00 00 00 00 00      	li	s48, 0x0
100002e8: 13 aa 00 00 00 00 00 00      	li	s49, 0x0
100002f0: 13 ac 00 00 00 00 00 00      	li	s50, 0x0
100002f8: 13 ae 00 00 00 00 00 00      	li	s51, 0x0
10000300: 13 b0 00 00 00 00 00 00      	li	s52, 0x0
10000308: 13 b2 00 00 00 00 00 00      	li	s53, 0x0
10000310: 13 b4 00 00 00 00 00 00      	li	s54, 0x0
10000318: 13 b6 00 00 00 00 00 00      	li	s55, 0x0
10000320: 13 b8 00 00 00 00 00 00      	li	s56, 0x0
10000328: 13 ba 00 00 00 00 00 00      	li	s57, 0x0
10000330: 13 bc 00 00 00 00 00 00      	li	s58, 0x0
10000338: 13 be 00 00 00 00 00 00      	li	s59, 0x0
10000340: 13 c0 00 00 00 00 00 00      	li	t7, 0x0
10000348: 13 c2 00 00 00 00 00 00      	li	t8, 0x0
10000350: 13 c4 00 00 00 00 00 00      	li	t9, 0x0
10000358: 13 c6 00 00 00 00 00 00      	li	t10, 0x0
10000360: 13 c8 00 00 00 00 00 00      	li	t11, 0x0
10000368: 13 ca 00 00 00 00 00 00      	li	t12, 0x0
10000370: 13 cc 00 00 00 00 00 00      	li	t13, 0x0
10000378: 13 ce 00 00 00 00 00 00      	li	t14, 0x0
10000380: 13 d0 00 00 00 00 00 00      	li	t15, 0x0
10000388: 13 d2 00 00 00 00 00 00      	li	t16, 0x0
10000390: 13 d4 00 00 00 00 00 00      	li	t17, 0x0
10000398: 13 d6 00 00 00 00 00 00      	li	t18, 0x0
100003a0: 13 d8 00 00 00 00 00 00      	li	t19, 0x0
100003a8: 13 da 00 00 00 00 00 00      	li	t20, 0x0
100003b0: 13 dc 00 00 00 00 00 00      	li	t21, 0x0
100003b8: 13 de 00 00 00 00 00 00      	li	t22, 0x0
100003c0: 13 e0 00 00 00 00 00 00      	li	t23, 0x0
100003c8: 13 e2 00 00 00 00 00 00      	li	t24, 0x0
100003d0: 13 e4 00 00 00 00 00 00      	li	t25, 0x0
100003d8: 13 e6 00 00 00 00 00 00      	li	t26, 0x0
100003e0: 13 e8 00 00 00 00 00 00      	li	t27, 0x0
100003e8: 13 ea 00 00 00 00 00 00      	li	t28, 0x0
100003f0: 13 ec 00 00 00 00 00 00      	li	t29, 0x0
100003f8: 13 ee 00 00 00 00 00 00      	li	t30, 0x0
10000400: 13 f0 00 00 00 00 00 00      	li	t31, 0x0
10000408: 13 f2 00 00 00 00 00 00      	li	t32, 0x0
10000410: 13 f4 00 00 00 00 00 00      	li	t33, 0x0
10000418: 13 f6 00 00 00 00 00 00      	li	t34, 0x0
10000420: 13 f8 00 00 00 00 00 00      	li	t35, 0x0
10000428: 13 fa 00 00 00 00 00 00      	li	t36, 0x0
10000430: 13 fc 00 00 00 00 00 00      	li	t37, 0x0
10000438: 13 fe 00 00 00 00 00 00      	li	t38, 0x0
10000440: 13 06 00 00 00 00 00 00      	li	gp, 0x0
10000448: 13 14 00 00 10 00 00 00      	li	a0, 0x1
10000450: 13 14 a2 00 f0 01 00 00      	slli	a0, a0, 0x1f
10000458: 63 00 a8 00 80 03 00 00      	bltz	a0, 0x10000490 <reset_vector+0x458>
10000460: 0f 00 00 00 f0 0f 00 00      	fence
10000468: 13 06 00 00 10 00 00 00      	li	gp, 0x1
10000470: 13 14 00 00 00 00 00 00      	li	a0, 0x0
10000478: 73 00 a0 00 20 00 00 00      	tohost	a0
10000480: 13 00 00 00 00 00 00 00      	nop
10000488: 13 00 00 00 00 00 00 00      	nop
10000490: 6f 00 00 00 80 00 00 00      	j	0x10000498 <reset_vector+0x460>
10000498: 17 16 00 00 80 b6 02 00      	auipc	a1, 0x2b68
100004a0: 13 18 00 00 00 04 00 00      	li	a2, 0x40
100004a8: 23 00 b4 00 00 00 00 00      	sw.global	zero, 0x0(a1)
100004b0: 23 00 b4 00 40 00 00 00      	sw.global	zero, 0x4(a1)
100004b8: 23 00 b4 00 80 00 00 00      	sw.global	zero, 0x8(a1)
100004c0: 23 00 b4 00 c0 00 00 00      	sw.global	zero, 0xc(a1)
100004c8: 13 16 b0 00 00 01 00 00      	addi	a1, a1, 0x10
100004d0: 13 18 c0 f0 cf ff ff 0f      	addi	a2, a2, -0x4
100004d8: 63 fe c3 00 00 fd ff 0f      	bnez	a2, 0x100004a8 <reset_vector+0x470>

100004e0 <test_2>:
100004e0: 13 06 00 00 20 00 00 00      	li	gp, 0x2
100004e8: 13 16 00 00 10 00 00 00      	li	a1, 0x1
100004f0: 17 18 00 00 00 01 00 00      	auipc	a2, 0x10
100004f8: 0b 00 b2 c0 00 00 00 00      	vx_wspawn	a1, a2
10000500: 13 28 00 f0 ff ff ff 0f      	li	s4, -0x1
10000508: 0b 00 40 01 00 00 00 00      	vx_tmc	s4
10000510: 13 06 00 00 20 00 00 00      	li	gp, 0x2
10000518: 17 16 00 00 80 ae 02 00      	auipc	a1, 0x2ae8
10000520: 73 18 04 00 40 f1 00 00      	csrr	a2, mhartid
10000528: 13 18 c2 00 20 00 00 00      	slli	a2, a2, 0x2
10000530: 33 16 b0 c0 00 00 00 00      	add	a1, a1, a2
10000538: 13 1a 00 00 10 00 00 00      	li	a3, 0x1
10000540: 23 00 b4 d0 00 00 00 00      	sw.global	a3, 0x0(a1)
10000548: 13 16 00 00 80 0c 00 00      	li	a1, 0xc8
10000550: 13 16 b0 f0 ff ff ff 0f      	addi	a1, a1, -0x1
10000558: 63 fe bb 00 80 ff ff 0f      	bgez	a1, 0x10000550 <test_2+0x70>
10000560: 13 16 00 00 10 00 00 00      	li	a1, 0x1
10000568: 17 18 00 00 00 01 00 00      	auipc	a2, 0x10
10000570: 0b 00 b2 c0 00 00 00 00      	vx_wspawn	a1, a2
10000578: 13 16 00 00 10 00 00 00      	li	a1, 0x1
10000580: 0b 00 b0 00 00 00 00 00      	vx_tmc	a1
10000588: 73 16 04 00 10 cc 00 00      	csrr	a1, wid
10000590: 63 00 b0 00 00 01 00 00      	beqz	a1, 0x100005a0 <test_2+0xc0>
10000598: 0b 00 00 00 00 00 00 00      	vx_tmc	zero
100005a0: 13 20 00 00 00 00 00 00      	li	a6, 0x0
100005a8: 73 1a 04 00 40 f1 00 00      	csrr	a3, mhartid
100005b0: 73 16 04 00 00 fc 00 00      	csrr	a1, nt
100005b8: 73 18 04 00 10 fc 00 00      	csrr	a2, nw
100005c0: 33 16 b0 c0 00 00 10 00      	mul	a1, a1, a2
100005c8: 33 1a d8 b0 00 00 10 00      	div	a3, a3, a1
100005d0: 33 1a d0 b0 00 00 10 00      	mul	a3, a3, a1
100005d8: 13 1a d2 00 20 00 00 00      	slli	a3, a3, 0x2
100005e0: 17 16 00 00 00 aa 02 00      	auipc	a1, 0x2aa0
100005e8: 33 16 b0 d0 00 00 00 00      	add	a1, a1, a3
100005f0: 13 18 00 00 00 00 00 00      	li	a2, 0x0
100005f8: 13 1a 00 00 00 02 00 00      	li	a3, 0x20
10000600: 63 00 c0 d0 00 05 00 00      	beq	a2, a3, 0x10000650 <test_2+0x170>
10000608: 13 1c c2 00 20 00 00 00      	slli	a4, a2, 0x2
10000610: 33 1c b0 e0 00 00 00 00      	add	a4, a1, a4
10000618: 03 1e e4 00 00 00 00 00      	lw.global	a5, 0x0(a4)
10000620: 23 00 e4 00 00 00 00 00      	sw.global	zero, 0x0(a4)
10000628: 13 1e fe 00 10 00 00 00      	andi	a5, a5, 0x1
10000630: 33 1e f2 c0 00 00 00 00      	sll	a5, a5, a2
10000638: 33 20 0c f1 00 00 00 00      	or	a6, a6, a5
10000640: 13 18 c0 00 10 00 00 00      	addi	a2, a2, 0x1
10000648: 6f 00 00 f0 8f fb ff 0f      	j	0x10000600 <test_2+0x120>
10000650: 13 28 00 01 00 00 00 00      	mv	s4, a6
10000658: 13 0e 00 00 00 00 00 00      	li	t2, 0x0
10000660: 63 00 42 71 80 71 01 00      	bne	s4, t2, 0x10001d78 <fail>
10000668: 13 16 00 00 10 00 00 00      	li	a1, 0x1
10000670: 17 18 00 00 00 01 00 00      	auipc	a2, 0x10
10000678: 0b 00 b2 c0 00 00 00 00      	vx_wspawn	a1, a2
10000680: 13 16 00 00 10 00 00 00      	li	a1, 0x1
10000688: 0b 00 b0 00 00 00 00 00      	vx_tmc	a1
10000690: 73 16 04 00 10 cc 00 00      	csrr	a1, wid
10000698: 63 00 b0 00 00 01 00 00      	beqz	a1, 0x100006a8 <test_2+0x1c8>
100006a0: 0b 00 00 00 00 00 00 00      	vx_tmc	zero
100006a8: 13 20 00 00 00 00 00 00      	li	a6, 0x0
100006b0: 73 1a 04 00 40 f1 00 00      	csrr	a3, mhartid
100006b8: 73 16 04 00 00 fc 00 00      	csrr	a1, nt
100006c0: 73 18 04 00 10 fc 00 00      	csrr	a2, nw
100006c8: 33 16 b0 c0 00 00 10 00      	mul	a1, a1, a2
100006d0: 33 1a d8 b0 00 00 10 00      	div	a3, a3, a1
100006d8: 33 1a d0 b0 00 00 10 00      	mul	a3, a3, a1
100006e0: 13 1a d2 00 20 00 00 00      	slli	a3, a3, 0x2
100006e8: 17 16 00 00 80 91 02 00      	auipc	a1, 0x2918
100006f0: 33 16 b0 d0 00 00 00 00      	add	a1, a1, a3
100006f8: 13 18 00 00 00 00 00 00      	li	a2, 0x0
10000700: 13 1a 00 00 00 02 00 00      	li	a3, 0x20
10000708: 63 00 c0 d0 00 05 00 00      	beq	a2, a3, 0x10000758 <test_2+0x278>
10000710: 13 1c c2 00 20 00 00 00      	slli	a4, a2, 0x2
10000718: 33 1c b0 e0 00 00 00 00      	add	a4, a1, a4
10000720: 03 1e e4 00 00 00 00 00      	lw.global	a5, 0x0(a4)
10000728: 23 00 e4 00 00 00 00 00      	sw.global	zero, 0x0(a4)
10000730: 13 1e fe 00 10 00 00 00      	andi	a5, a5, 0x1
10000738: 33 1e f2 c0 00 00 00 00      	sll	a5, a5, a2
10000740: 33 20 0c f1 00 00 00 00      	or	a6, a6, a5
10000748: 13 18 c0 00 10 00 00 00      	addi	a2, a2, 0x1
10000750: 6f 00 00 f0 8f fb ff 0f      	j	0x10000708 <test_2+0x228>
10000758: 13 28 00 01 00 00 00 00      	mv	s4, a6
10000760: 13 0e 00 00 f0 ff 0f 00      	li	t2, 0xffff
10000768: 63 00 42 71 00 61 01 00      	bne	s4, t2, 0x10001d78 <fail>

10000770 <test_3>:
10000770: 13 06 00 00 30 00 00 00      	li	gp, 0x3
10000778: 13 16 00 00 10 00 00 00      	li	a1, 0x1
10000780: 17 18 00 00 00 01 00 00      	auipc	a2, 0x10
10000788: 0b 00 b2 c0 00 00 00 00      	vx_wspawn	a1, a2
10000790: 13 28 00 f0 ff ff ff 0f      	li	s4, -0x1
10000798: 0b 00 40 01 00 00 00 00      	vx_tmc	s4
100007a0: 13 06 00 00 30 00 00 00      	li	gp, 0x3
100007a8: 13 0a 00 00 20 00 00 00      	li	t0, 0x2
100007b0: 17 0c 00 00 00 01 00 00      	auipc	t1, 0x10
100007b8: 0b 00 52 60 00 00 00 00      	vx_wspawn	t0, t1
100007c0: 13 00 00 00 00 00 00 00      	nop
100007c8: 17 16 00 00 80 83 02 00      	auipc	a1, 0x2838
100007d0: 73 18 04 00 40 f1 00 00      	csrr	a2, mhartid
100007d8: 13 18 c2 00 20 00 00 00      	slli	a2, a2, 0x2
100007e0: 33 16 b0 c0 00 00 00 00      	add	a1, a1, a2
100007e8: 13 1a 00 00 10 00 00 00      	li	a3, 0x1
100007f0: 23 00 b4 d0 00 00 00 00      	sw.global	a3, 0x0(a1)
100007f8: 13 16 00 00 80 0c 00 00      	li	a1, 0xc8
10000800: 13 16 b0 f0 ff ff ff 0f      	addi	a1, a1, -0x1
10000808: 63 fe bb 00 80 ff ff 0f      	bgez	a1, 0x10000800 <test_3+0x90>
10000810: 13 16 00 00 10 00 00 00      	li	a1, 0x1
10000818: 17 18 00 00 00 01 00 00      	auipc	a2, 0x10
10000820: 0b 00 b2 c0 00 00 00 00      	vx_wspawn	a1, a2
10000828: 13 16 00 00 10 00 00 00      	li	a1, 0x1
10000830: 0b 00 b0 00 00 00 00 00      	vx_tmc	a1
10000838: 73 16 04 00 10 cc 00 00      	csrr	a1, wid
10000840: 63 00 b0 00 00 01 00 00      	beqz	a1, 0x10000850 <test_3+0xe0>
10000848: 0b 00 00 00 00 00 00 00      	vx_tmc	zero
10000850: 13 20 00 00 00 00 00 00      	li	a6, 0x0
10000858: 73 1a 04 00 40 f1 00 00      	csrr	a3, mhartid
10000860: 73 16 04 00 00 fc 00 00      	csrr	a1, nt
10000868: 73 18 04 00 10 fc 00 00      	csrr	a2, nw
10000870: 33 16 b0 c0 00 00 10 00      	mul	a1, a1, a2
10000878: 33 1a d8 b0 00 00 10 00      	div	a3, a3, a1
10000880: 33 1a d0 b0 00 00 10 00      	mul	a3, a3, a1
10000888: 13 1a d2 00 20 00 00 00      	slli	a3, a3, 0x2
10000890: 17 16 00 00 00 7f 02 00      	auipc	a1, 0x27f0
10000898: 33 16 b0 d0 00 00 00 00      	add	a1, a1, a3
100008a0: 13 18 00 00 00 00 00 00      	li	a2, 0x0
100008a8: 13 1a 00 00 00 02 00 00      	li	a3, 0x20
100008b0: 63 00 c0 d0 00 05 00 00      	beq	a2, a3, 0x10000900 <test_3+0x190>
100008b8: 13 1c c2 00 20 00 00 00      	slli	a4, a2, 0x2
100008c0: 33 1c b0 e0 00 00 00 00      	add	a4, a1, a4
100008c8: 03 1e e4 00 00 00 00 00      	lw.global	a5, 0x0(a4)
100008d0: 23 00 e4 00 00 00 00 00      	sw.global	zero, 0x0(a4)
100008d8: 13 1e fe 00 10 00 00 00      	andi	a5, a5, 0x1
100008e0: 33 1e f2 c0 00 00 00 00      	sll	a5, a5, a2
100008e8: 33 20 0c f1 00 00 00 00      	or	a6, a6, a5
100008f0: 13 18 c0 00 10 00 00 00      	addi	a2, a2, 0x1
100008f8: 6f 00 00 f0 8f fb ff 0f      	j	0x100008b0 <test_3+0x140>
10000900: 13 28 00 01 00 00 00 00      	mv	s4, a6
10000908: 13 0e 00 00 00 00 00 00      	li	t2, 0x0
10000910: 63 00 42 71 80 46 01 00      	bne	s4, t2, 0x10001d78 <fail>
10000918: 13 16 00 00 10 00 00 00      	li	a1, 0x1
10000920: 17 18 00 00 00 01 00 00      	auipc	a2, 0x10
10000928: 0b 00 b2 c0 00 00 00 00      	vx_wspawn	a1, a2
10000930: 13 16 00 00 10 00 00 00      	li	a1, 0x1
10000938: 0b 00 b0 00 00 00 00 00      	vx_tmc	a1
10000940: 73 16 04 00 10 cc 00 00      	csrr	a1, wid
10000948: 63 00 b0 00 00 01 00 00      	beqz	a1, 0x10000958 <test_3+0x1e8>
10000950: 0b 00 00 00 00 00 00 00      	vx_tmc	zero
10000958: 13 20 00 00 00 00 00 00      	li	a6, 0x0
10000960: 73 1a 04 00 40 f1 00 00      	csrr	a3, mhartid
10000968: 73 16 04 00 00 fc 00 00      	csrr	a1, nt
10000970: 73 18 04 00 10 fc 00 00      	csrr	a2, nw
10000978: 33 16 b0 c0 00 00 10 00      	mul	a1, a1, a2
10000980: 33 1a d8 b0 00 00 10 00      	div	a3, a3, a1
10000988: 33 1a d0 b0 00 00 10 00      	mul	a3, a3, a1
10000990: 13 1a d2 00 20 00 00 00      	slli	a3, a3, 0x2
10000998: 17 16 00 00 80 66 02 00      	auipc	a1, 0x2668
100009a0: 33 16 b0 d0 00 00 00 00      	add	a1, a1, a3
100009a8: 13 18 00 00 00 00 00 00      	li	a2, 0x0
100009b0: 13 1a 00 00 00 02 00 00      	li	a3, 0x20
100009b8: 63 00 c0 d0 00 05 00 00      	beq	a2, a3, 0x10000a08 <test_3+0x298>
100009c0: 13 1c c2 00 20 00 00 00      	slli	a4, a2, 0x2
100009c8: 33 1c b0 e0 00 00 00 00      	add	a4, a1, a4
100009d0: 03 1e e4 00 00 00 00 00      	lw.global	a5, 0x0(a4)
100009d8: 23 00 e4 00 00 00 00 00      	sw.global	zero, 0x0(a4)
100009e0: 13 1e fe 00 10 00 00 00      	andi	a5, a5, 0x1
100009e8: 33 1e f2 c0 00 00 00 00      	sll	a5, a5, a2
100009f0: 33 20 0c f1 00 00 00 00      	or	a6, a6, a5
100009f8: 13 18 c0 00 10 00 00 00      	addi	a2, a2, 0x1
10000a00: 6f 00 00 f0 8f fb ff 0f      	j	0x100009b8 <test_3+0x248>
10000a08: 13 28 00 01 00 00 00 00      	mv	s4, a6
10000a10: 13 0e 00 f0 ff ff ff 0f      	li	t2, -0x1
10000a18: 63 00 42 71 00 36 01 00      	bne	s4, t2, 0x10001d78 <fail>

10000a20 <test_4>:
10000a20: 13 06 00 00 40 00 00 00      	li	gp, 0x4
10000a28: 13 16 00 00 10 00 00 00      	li	a1, 0x1
10000a30: 17 18 00 00 00 01 00 00      	auipc	a2, 0x10
10000a38: 0b 00 b2 c0 00 00 00 00      	vx_wspawn	a1, a2
10000a40: 13 28 00 f0 ff ff ff 0f      	li	s4, -0x1
10000a48: 0b 00 40 01 00 00 00 00      	vx_tmc	s4
10000a50: 13 06 00 00 40 00 00 00      	li	gp, 0x4
10000a58: 13 0a 00 00 40 00 00 00      	li	t0, 0x4
10000a60: 17 0c 00 00 00 01 00 00      	auipc	t1, 0x10
10000a68: 0b 00 52 60 00 00 00 00      	vx_wspawn	t0, t1
10000a70: 13 00 00 00 00 00 00 00      	nop
10000a78: 17 16 00 00 80 58 02 00      	auipc	a1, 0x2588
10000a80: 73 18 04 00 40 f1 00 00      	csrr	a2, mhartid
10000a88: 13 18 c2 00 20 00 00 00      	slli	a2, a2, 0x2
10000a90: 33 16 b0 c0 00 00 00 00      	add	a1, a1, a2
10000a98: 13 1a 00 00 10 00 00 00      	li	a3, 0x1
10000aa0: 23 00 b4 d0 00 00 00 00      	sw.global	a3, 0x0(a1)
10000aa8: 13 16 00 00 80 0c 00 00      	li	a1, 0xc8
10000ab0: 13 16 b0 f0 ff ff ff 0f      	addi	a1, a1, -0x1
10000ab8: 63 fe bb 00 80 ff ff 0f      	bgez	a1, 0x10000ab0 <test_4+0x90>
10000ac0: 13 16 00 00 10 00 00 00      	li	a1, 0x1
10000ac8: 17 18 00 00 00 01 00 00      	auipc	a2, 0x10
10000ad0: 0b 00 b2 c0 00 00 00 00      	vx_wspawn	a1, a2
10000ad8: 13 16 00 00 10 00 00 00      	li	a1, 0x1
10000ae0: 0b 00 b0 00 00 00 00 00      	vx_tmc	a1
10000ae8: 73 16 04 00 10 cc 00 00      	csrr	a1, wid
10000af0: 63 00 b0 00 00 01 00 00      	beqz	a1, 0x10000b00 <test_4+0xe0>
10000af8: 0b 00 00 00 00 00 00 00      	vx_tmc	zero
10000b00: 13 20 00 00 00 00 00 00      	li	a6, 0x0
10000b08: 73 1a 04 00 40 f1 00 00      	csrr	a3, mhartid
10000b10: 73 16 04 00 00 fc 00 00      	csrr	a1, nt
10000b18: 73 18 04 00 10 fc 00 00      	csrr	a2, nw
10000b20: 33 16 b0 c0 00 00 10 00      	mul	a1, a1, a2
10000b28: 33 1a d8 b0 00 00 10 00      	div	a3, a3, a1
10000b30: 33 1a d0 b0 00 00 10 00      	mul	a3, a3, a1
10000b38: 13 1a d2 00 20 00 00 00      	slli	a3, a3, 0x2
10000b40: 17 16 00 00 00 54 02 00      	auipc	a1, 0x2540
10000b48: 33 16 b0 d0 00 00 00 00      	add	a1, a1, a3
10000b50: 13 18 00 00 00 00 00 00      	li	a2, 0x0
10000b58: 13 1a 00 00 00 02 00 00      	li	a3, 0x20
10000b60: 63 00 c0 d0 00 05 00 00      	beq	a2, a3, 0x10000bb0 <test_4+0x190>
10000b68: 13 1c c2 00 20 00 00 00      	slli	a4, a2, 0x2
10000b70: 33 1c b0 e0 00 00 00 00      	add	a4, a1, a4
10000b78: 03 1e e4 00 00 00 00 00      	lw.global	a5, 0x0(a4)
10000b80: 23 00 e4 00 00 00 00 00      	sw.global	zero, 0x0(a4)
10000b88: 13 1e fe 00 10 00 00 00      	andi	a5, a5, 0x1
10000b90: 33 1e f2 c0 00 00 00 00      	sll	a5, a5, a2
10000b98: 33 20 0c f1 00 00 00 00      	or	a6, a6, a5
10000ba0: 13 18 c0 00 10 00 00 00      	addi	a2, a2, 0x1
10000ba8: 6f 00 00 f0 8f fb ff 0f      	j	0x10000b60 <test_4+0x140>
10000bb0: 13 28 00 01 00 00 00 00      	mv	s4, a6
10000bb8: 13 0e 00 f0 ff ff ff 0f      	li	t2, -0x1
10000bc0: 63 00 42 71 80 1b 01 00      	bne	s4, t2, 0x10001d78 <fail>
10000bc8: 13 16 00 00 10 00 00 00      	li	a1, 0x1
10000bd0: 17 18 00 00 00 01 00 00      	auipc	a2, 0x10
10000bd8: 0b 00 b2 c0 00 00 00 00      	vx_wspawn	a1, a2
10000be0: 13 16 00 00 10 00 00 00      	li	a1, 0x1
10000be8: 0b 00 b0 00 00 00 00 00      	vx_tmc	a1
10000bf0: 73 16 04 00 10 cc 00 00      	csrr	a1, wid
10000bf8: 63 00 b0 00 00 01 00 00      	beqz	a1, 0x10000c08 <test_4+0x1e8>
10000c00: 0b 00 00 00 00 00 00 00      	vx_tmc	zero
10000c08: 13 20 00 00 00 00 00 00      	li	a6, 0x0
10000c10: 73 1a 04 00 40 f1 00 00      	csrr	a3, mhartid
10000c18: 73 16 04 00 00 fc 00 00      	csrr	a1, nt
10000c20: 73 18 04 00 10 fc 00 00      	csrr	a2, nw
10000c28: 33 16 b0 c0 00 00 10 00      	mul	a1, a1, a2
10000c30: 33 1a d8 b0 00 00 10 00      	div	a3, a3, a1
10000c38: 33 1a d0 b0 00 00 10 00      	mul	a3, a3, a1
10000c40: 13 1a d2 00 20 00 00 00      	slli	a3, a3, 0x2
10000c48: 17 16 00 00 80 3b 02 00      	auipc	a1, 0x23b8
10000c50: 33 16 b0 d0 00 00 00 00      	add	a1, a1, a3
10000c58: 13 18 00 00 00 00 00 00      	li	a2, 0x0
10000c60: 13 1a 00 00 00 02 00 00      	li	a3, 0x20
10000c68: 63 00 c0 d0 00 05 00 00      	beq	a2, a3, 0x10000cb8 <test_4+0x298>
10000c70: 13 1c c2 00 20 00 00 00      	slli	a4, a2, 0x2
10000c78: 33 1c b0 e0 00 00 00 00      	add	a4, a1, a4
10000c80: 03 1e e4 00 00 00 00 00      	lw.global	a5, 0x0(a4)
10000c88: 23 00 e4 00 00 00 00 00      	sw.global	zero, 0x0(a4)
10000c90: 13 1e fe 00 10 00 00 00      	andi	a5, a5, 0x1
10000c98: 33 1e f2 c0 00 00 00 00      	sll	a5, a5, a2
10000ca0: 33 20 0c f1 00 00 00 00      	or	a6, a6, a5
10000ca8: 13 18 c0 00 10 00 00 00      	addi	a2, a2, 0x1
10000cb0: 6f 00 00 f0 8f fb ff 0f      	j	0x10000c68 <test_4+0x248>
10000cb8: 13 28 00 01 00 00 00 00      	mv	s4, a6
10000cc0: 13 0e 00 f0 ff ff ff 0f      	li	t2, -0x1
10000cc8: 63 00 42 71 00 0b 01 00      	bne	s4, t2, 0x10001d78 <fail>

10000cd0 <test_5>:
10000cd0: 13 06 00 00 50 00 00 00      	li	gp, 0x5
10000cd8: 13 16 00 00 10 00 00 00      	li	a1, 0x1
10000ce0: 17 18 00 00 00 01 00 00      	auipc	a2, 0x10
10000ce8: 0b 00 b2 c0 00 00 00 00      	vx_wspawn	a1, a2
10000cf0: 13 28 00 f0 ff ff ff 0f      	li	s4, -0x1
10000cf8: 0b 00 40 01 00 00 00 00      	vx_tmc	s4
10000d00: 13 06 00 00 50 00 00 00      	li	gp, 0x5
10000d08: 13 0a 00 00 40 00 00 00      	li	t0, 0x4
10000d10: 17 0c 00 00 80 01 00 00      	auipc	t1, 0x18
10000d18: 0b 00 52 60 00 00 00 00      	vx_wspawn	t0, t1
10000d20: 0b 00 00 00 00 00 00 00      	vx_tmc	zero
10000d28: 13 00 00 00 00 00 00 00      	nop
10000d30: 17 16 00 00 00 2d 02 00      	auipc	a1, 0x22d0
10000d38: 73 18 04 00 40 f1 00 00      	csrr	a2, mhartid
10000d40: 13 18 c2 00 20 00 00 00      	slli	a2, a2, 0x2
10000d48: 33 16 b0 c0 00 00 00 00      	add	a1, a1, a2
10000d50: 13 1a 00 00 10 00 00 00      	li	a3, 0x1
10000d58: 23 00 b4 d0 00 00 00 00      	sw.global	a3, 0x0(a1)
10000d60: 13 16 00 00 80 0c 00 00      	li	a1, 0xc8
10000d68: 13 16 b0 f0 ff ff ff 0f      	addi	a1, a1, -0x1
10000d70: 63 fe bb 00 80 ff ff 0f      	bgez	a1, 0x10000d68 <test_5+0x98>
10000d78: 13 16 00 00 10 00 00 00      	li	a1, 0x1
10000d80: 17 18 00 00 00 01 00 00      	auipc	a2, 0x10
10000d88: 0b 00 b2 c0 00 00 00 00      	vx_wspawn	a1, a2
10000d90: 13 16 00 00 10 00 00 00      	li	a1, 0x1
10000d98: 0b 00 b0 00 00 00 00 00      	vx_tmc	a1
10000da0: 73 16 04 00 10 cc 00 00      	csrr	a1, wid
10000da8: 63 00 b0 00 00 01 00 00      	beqz	a1, 0x10000db8 <test_5+0xe8>
10000db0: 0b 00 00 00 00 00 00 00      	vx_tmc	zero
10000db8: 13 20 00 00 00 00 00 00      	li	a6, 0x0
10000dc0: 73 1a 04 00 40 f1 00 00      	csrr	a3, mhartid
10000dc8: 73 16 04 00 00 fc 00 00      	csrr	a1, nt
10000dd0: 73 18 04 00 10 fc 00 00      	csrr	a2, nw
10000dd8: 33 16 b0 c0 00 00 10 00      	mul	a1, a1, a2
10000de0: 33 1a d8 b0 00 00 10 00      	div	a3, a3, a1
10000de8: 33 1a d0 b0 00 00 10 00      	mul	a3, a3, a1
10000df0: 13 1a d2 00 20 00 00 00      	slli	a3, a3, 0x2
10000df8: 17 16 00 00 80 28 02 00      	auipc	a1, 0x2288
10000e00: 33 16 b0 d0 00 00 00 00      	add	a1, a1, a3
10000e08: 13 18 00 00 00 00 00 00      	li	a2, 0x0
10000e10: 13 1a 00 00 00 02 00 00      	li	a3, 0x20
10000e18: 63 00 c0 d0 00 05 00 00      	beq	a2, a3, 0x10000e68 <test_5+0x198>
10000e20: 13 1c c2 00 20 00 00 00      	slli	a4, a2, 0x2
10000e28: 33 1c b0 e0 00 00 00 00      	add	a4, a1, a4
10000e30: 03 1e e4 00 00 00 00 00      	lw.global	a5, 0x0(a4)
10000e38: 23 00 e4 00 00 00 00 00      	sw.global	zero, 0x0(a4)
10000e40: 13 1e fe 00 10 00 00 00      	andi	a5, a5, 0x1
10000e48: 33 1e f2 c0 00 00 00 00      	sll	a5, a5, a2
10000e50: 33 20 0c f1 00 00 00 00      	or	a6, a6, a5
10000e58: 13 18 c0 00 10 00 00 00      	addi	a2, a2, 0x1
10000e60: 6f 00 00 f0 8f fb ff 0f      	j	0x10000e18 <test_5+0x148>
10000e68: 13 28 00 01 00 00 00 00      	mv	s4, a6
10000e70: 13 0e 00 f0 ff ff ff 0f      	li	t2, -0x1
10000e78: 63 00 42 71 00 f0 00 00      	bne	s4, t2, 0x10001d78 <fail>
10000e80: 13 16 00 00 10 00 00 00      	li	a1, 0x1
10000e88: 17 18 00 00 00 01 00 00      	auipc	a2, 0x10
10000e90: 0b 00 b2 c0 00 00 00 00      	vx_wspawn	a1, a2
10000e98: 13 16 00 00 10 00 00 00      	li	a1, 0x1
10000ea0: 0b 00 b0 00 00 00 00 00      	vx_tmc	a1
10000ea8: 73 16 04 00 10 cc 00 00      	csrr	a1, wid
10000eb0: 63 00 b0 00 00 01 00 00      	beqz	a1, 0x10000ec0 <test_5+0x1f0>
10000eb8: 0b 00 00 00 00 00 00 00      	vx_tmc	zero
10000ec0: 13 20 00 00 00 00 00 00      	li	a6, 0x0
10000ec8: 73 1a 04 00 40 f1 00 00      	csrr	a3, mhartid
10000ed0: 73 16 04 00 00 fc 00 00      	csrr	a1, nt
10000ed8: 73 18 04 00 10 fc 00 00      	csrr	a2, nw
10000ee0: 33 16 b0 c0 00 00 10 00      	mul	a1, a1, a2
10000ee8: 33 1a d8 b0 00 00 10 00      	div	a3, a3, a1
10000ef0: 33 1a d0 b0 00 00 10 00      	mul	a3, a3, a1
10000ef8: 13 1a d2 00 20 00 00 00      	slli	a3, a3, 0x2
10000f00: 17 16 00 00 00 10 02 00      	auipc	a1, 0x2100
10000f08: 33 16 b0 d0 00 00 00 00      	add	a1, a1, a3
10000f10: 13 18 00 00 00 00 00 00      	li	a2, 0x0
10000f18: 13 1a 00 00 00 02 00 00      	li	a3, 0x20
10000f20: 63 00 c0 d0 00 05 00 00      	beq	a2, a3, 0x10000f70 <test_5+0x2a0>
10000f28: 13 1c c2 00 20 00 00 00      	slli	a4, a2, 0x2
10000f30: 33 1c b0 e0 00 00 00 00      	add	a4, a1, a4
10000f38: 03 1e e4 00 00 00 00 00      	lw.global	a5, 0x0(a4)
10000f40: 23 00 e4 00 00 00 00 00      	sw.global	zero, 0x0(a4)
10000f48: 13 1e fe 00 10 00 00 00      	andi	a5, a5, 0x1
10000f50: 33 1e f2 c0 00 00 00 00      	sll	a5, a5, a2
10000f58: 33 20 0c f1 00 00 00 00      	or	a6, a6, a5
10000f60: 13 18 c0 00 10 00 00 00      	addi	a2, a2, 0x1
10000f68: 6f 00 00 f0 8f fb ff 0f      	j	0x10000f20 <test_5+0x250>
10000f70: 13 28 00 01 00 00 00 00      	mv	s4, a6
10000f78: 13 0e 00 f0 ff ff ff 0f      	li	t2, -0x1
10000f80: 63 00 42 71 80 df 00 00      	bne	s4, t2, 0x10001d78 <fail>

10000f88 <test_6>:
10000f88: 13 06 00 00 60 00 00 00      	li	gp, 0x6
10000f90: 13 16 00 00 10 00 00 00      	li	a1, 0x1
10000f98: 17 18 00 00 00 01 00 00      	auipc	a2, 0x10
10000fa0: 0b 00 b2 c0 00 00 00 00      	vx_wspawn	a1, a2
10000fa8: 13 28 00 f0 ff ff ff 0f      	li	s4, -0x1
10000fb0: 0b 00 40 01 00 00 00 00      	vx_tmc	s4
10000fb8: 13 06 00 00 60 00 00 00      	li	gp, 0x6
10000fc0: 13 0a 00 f0 ff ff ff 0f      	li	t0, -0x1
10000fc8: 0b 00 50 00 00 00 00 00      	vx_tmc	t0
10000fd0: 73 0a 04 00 00 cc 00 00      	csrr	t0, tid
10000fd8: 13 0a 50 00 20 00 00 00      	addi	t0, t0, 0x2
10000fe0: 17 0c 00 00 80 01 00 00      	auipc	t1, 0x18
10000fe8: 0b 00 52 60 00 00 00 00      	vx_wspawn	t0, t1
10000ff0: 0b 00 00 00 00 00 00 00      	vx_tmc	zero
10000ff8: 13 00 00 00 00 00 00 00      	nop
10001000: 17 16 00 00 00 00 02 00      	auipc	a1, 0x2000
10001008: 73 18 04 00 40 f1 00 00      	csrr	a2, mhartid
10001010: 13 18 c2 00 20 00 00 00      	slli	a2, a2, 0x2
10001018: 33 16 b0 c0 00 00 00 00      	add	a1, a1, a2
10001020: 13 1a 00 00 10 00 00 00      	li	a3, 0x1
10001028: 23 00 b4 d0 00 00 00 00      	sw.global	a3, 0x0(a1)
10001030: 13 16 00 00 80 0c 00 00      	li	a1, 0xc8
10001038: 13 16 b0 f0 ff ff ff 0f      	addi	a1, a1, -0x1
10001040: 63 fe bb 00 80 ff ff 0f      	bgez	a1, 0x10001038 <test_6+0xb0>
10001048: 13 16 00 00 10 00 00 00      	li	a1, 0x1
10001050: 17 18 00 00 00 01 00 00      	auipc	a2, 0x10
10001058: 0b 00 b2 c0 00 00 00 00      	vx_wspawn	a1, a2
10001060: 13 16 00 00 10 00 00 00      	li	a1, 0x1
10001068: 0b 00 b0 00 00 00 00 00      	vx_tmc	a1
10001070: 73 16 04 00 10 cc 00 00      	csrr	a1, wid
10001078: 63 00 b0 00 00 01 00 00      	beqz	a1, 0x10001088 <test_6+0x100>
10001080: 0b 00 00 00 00 00 00 00      	vx_tmc	zero
10001088: 13 20 00 00 00 00 00 00      	li	a6, 0x0
10001090: 73 1a 04 00 40 f1 00 00      	csrr	a3, mhartid
10001098: 73 16 04 00 00 fc 00 00      	csrr	a1, nt
100010a0: 73 18 04 00 10 fc 00 00      	csrr	a2, nw
100010a8: 33 16 b0 c0 00 00 10 00      	mul	a1, a1, a2
100010b0: 33 1a d8 b0 00 00 10 00      	div	a3, a3, a1
100010b8: 33 1a d0 b0 00 00 10 00      	mul	a3, a3, a1
100010c0: 13 1a d2 00 20 00 00 00      	slli	a3, a3, 0x2
100010c8: 17 16 00 00 80 fb 01 00      	auipc	a1, 0x1fb8
100010d0: 33 16 b0 d0 00 00 00 00      	add	a1, a1, a3
100010d8: 13 18 00 00 00 00 00 00      	li	a2, 0x0
100010e0: 13 1a 00 00 00 02 00 00      	li	a3, 0x20
100010e8: 63 00 c0 d0 00 05 00 00      	beq	a2, a3, 0x10001138 <test_6+0x1b0>
100010f0: 13 1c c2 00 20 00 00 00      	slli	a4, a2, 0x2
100010f8: 33 1c b0 e0 00 00 00 00      	add	a4, a1, a4
10001100: 03 1e e4 00 00 00 00 00      	lw.global	a5, 0x0(a4)
10001108: 23 00 e4 00 00 00 00 00      	sw.global	zero, 0x0(a4)
10001110: 13 1e fe 00 10 00 00 00      	andi	a5, a5, 0x1
10001118: 33 1e f2 c0 00 00 00 00      	sll	a5, a5, a2
10001120: 33 20 0c f1 00 00 00 00      	or	a6, a6, a5
10001128: 13 18 c0 00 10 00 00 00      	addi	a2, a2, 0x1
10001130: 6f 00 00 f0 8f fb ff 0f      	j	0x100010e8 <test_6+0x160>
10001138: 13 28 00 01 00 00 00 00      	mv	s4, a6
10001140: 13 0e 00 00 00 00 00 00      	li	t2, 0x0
10001148: 63 00 42 71 00 c3 00 00      	bne	s4, t2, 0x10001d78 <fail>
10001150: 13 16 00 00 10 00 00 00      	li	a1, 0x1
10001158: 17 18 00 00 00 01 00 00      	auipc	a2, 0x10
10001160: 0b 00 b2 c0 00 00 00 00      	vx_wspawn	a1, a2
10001168: 13 16 00 00 10 00 00 00      	li	a1, 0x1
10001170: 0b 00 b0 00 00 00 00 00      	vx_tmc	a1
10001178: 73 16 04 00 10 cc 00 00      	csrr	a1, wid
10001180: 63 00 b0 00 00 01 00 00      	beqz	a1, 0x10001190 <test_6+0x208>
10001188: 0b 00 00 00 00 00 00 00      	vx_tmc	zero
10001190: 13 20 00 00 00 00 00 00      	li	a6, 0x0
10001198: 73 1a 04 00 40 f1 00 00      	csrr	a3, mhartid
100011a0: 73 16 04 00 00 fc 00 00      	csrr	a1, nt
100011a8: 73 18 04 00 10 fc 00 00      	csrr	a2, nw
100011b0: 33 16 b0 c0 00 00 10 00      	mul	a1, a1, a2
100011b8: 33 1a d8 b0 00 00 10 00      	div	a3, a3, a1
100011c0: 33 1a d0 b0 00 00 10 00      	mul	a3, a3, a1
100011c8: 13 1a d2 00 20 00 00 00      	slli	a3, a3, 0x2
100011d0: 17 16 00 00 00 e3 01 00      	auipc	a1, 0x1e30
100011d8: 33 16 b0 d0 00 00 00 00      	add	a1, a1, a3
100011e0: 13 18 00 00 00 00 00 00      	li	a2, 0x0
100011e8: 13 1a 00 00 00 02 00 00      	li	a3, 0x20
100011f0: 63 00 c0 d0 00 05 00 00      	beq	a2, a3, 0x10001240 <test_6+0x2b8>
100011f8: 13 1c c2 00 20 00 00 00      	slli	a4, a2, 0x2
10001200: 33 1c b0 e0 00 00 00 00      	add	a4, a1, a4
10001208: 03 1e e4 00 00 00 00 00      	lw.global	a5, 0x0(a4)
10001210: 23 00 e4 00 00 00 00 00      	sw.global	zero, 0x0(a4)
10001218: 13 1e fe 00 10 00 00 00      	andi	a5, a5, 0x1
10001220: 33 1e f2 c0 00 00 00 00      	sll	a5, a5, a2
10001228: 33 20 0c f1 00 00 00 00      	or	a6, a6, a5
10001230: 13 18 c0 00 10 00 00 00      	addi	a2, a2, 0x1
10001238: 6f 00 00 f0 8f fb ff 0f      	j	0x100011f0 <test_6+0x268>
10001240: 13 28 00 01 00 00 00 00      	mv	s4, a6
10001248: 13 0e 00 f0 ff ff ff 0f      	li	t2, -0x1
10001250: 63 00 42 71 80 b2 00 00      	bne	s4, t2, 0x10001d78 <fail>

10001258 <test_7>:
10001258: 13 06 00 00 70 00 00 00      	li	gp, 0x7
10001260: 13 16 00 00 10 00 00 00      	li	a1, 0x1
10001268: 17 18 00 00 00 01 00 00      	auipc	a2, 0x10
10001270: 0b 00 b2 c0 00 00 00 00      	vx_wspawn	a1, a2
10001278: 13 28 00 f0 ff ff ff 0f      	li	s4, -0x1
10001280: 0b 00 40 01 00 00 00 00      	vx_tmc	s4
10001288: 13 06 00 00 70 00 00 00      	li	gp, 0x7
10001290: 13 0a 00 00 c0 ff 0f 00      	li	t0, 0xfffc
10001298: 0b 00 50 00 00 00 00 00      	vx_tmc	t0
100012a0: 73 0a 04 00 00 cc 00 00      	csrr	t0, tid
100012a8: 17 0c 00 00 80 01 00 00      	auipc	t1, 0x18
100012b0: 0b 00 52 60 00 00 00 00      	vx_wspawn	t0, t1
100012b8: 0b 00 00 00 00 00 00 00      	vx_tmc	zero
100012c0: 13 00 00 00 00 00 00 00      	nop
100012c8: 17 16 00 00 80 d3 01 00      	auipc	a1, 0x1d38
100012d0: 73 18 04 00 40 f1 00 00      	csrr	a2, mhartid
100012d8: 13 18 c2 00 20 00 00 00      	slli	a2, a2, 0x2
100012e0: 33 16 b0 c0 00 00 00 00      	add	a1, a1, a2
100012e8: 13 1a 00 00 10 00 00 00      	li	a3, 0x1
100012f0: 23 00 b4 d0 00 00 00 00      	sw.global	a3, 0x0(a1)
100012f8: 13 16 00 00 80 0c 00 00      	li	a1, 0xc8
10001300: 13 16 b0 f0 ff ff ff 0f      	addi	a1, a1, -0x1
10001308: 63 fe bb 00 80 ff ff 0f      	bgez	a1, 0x10001300 <test_7+0xa8>
10001310: 13 16 00 00 10 00 00 00      	li	a1, 0x1
10001318: 17 18 00 00 00 01 00 00      	auipc	a2, 0x10
10001320: 0b 00 b2 c0 00 00 00 00      	vx_wspawn	a1, a2
10001328: 13 16 00 00 10 00 00 00      	li	a1, 0x1
10001330: 0b 00 b0 00 00 00 00 00      	vx_tmc	a1
10001338: 73 16 04 00 10 cc 00 00      	csrr	a1, wid
10001340: 63 00 b0 00 00 01 00 00      	beqz	a1, 0x10001350 <test_7+0xf8>
10001348: 0b 00 00 00 00 00 00 00      	vx_tmc	zero
10001350: 13 20 00 00 00 00 00 00      	li	a6, 0x0
10001358: 73 1a 04 00 40 f1 00 00      	csrr	a3, mhartid
10001360: 73 16 04 00 00 fc 00 00      	csrr	a1, nt
10001368: 73 18 04 00 10 fc 00 00      	csrr	a2, nw
10001370: 33 16 b0 c0 00 00 10 00      	mul	a1, a1, a2
10001378: 33 1a d8 b0 00 00 10 00      	div	a3, a3, a1
10001380: 33 1a d0 b0 00 00 10 00      	mul	a3, a3, a1
10001388: 13 1a d2 00 20 00 00 00      	slli	a3, a3, 0x2
10001390: 17 16 00 00 00 cf 01 00      	auipc	a1, 0x1cf0
10001398: 33 16 b0 d0 00 00 00 00      	add	a1, a1, a3
100013a0: 13 18 00 00 00 00 00 00      	li	a2, 0x0
100013a8: 13 1a 00 00 00 02 00 00      	li	a3, 0x20
100013b0: 63 00 c0 d0 00 05 00 00      	beq	a2, a3, 0x10001400 <test_7+0x1a8>
100013b8: 13 1c c2 00 20 00 00 00      	slli	a4, a2, 0x2
100013c0: 33 1c b0 e0 00 00 00 00      	add	a4, a1, a4
100013c8: 03 1e e4 00 00 00 00 00      	lw.global	a5, 0x0(a4)
100013d0: 23 00 e4 00 00 00 00 00      	sw.global	zero, 0x0(a4)
100013d8: 13 1e fe 00 10 00 00 00      	andi	a5, a5, 0x1
100013e0: 33 1e f2 c0 00 00 00 00      	sll	a5, a5, a2
100013e8: 33 20 0c f1 00 00 00 00      	or	a6, a6, a5
100013f0: 13 18 c0 00 10 00 00 00      	addi	a2, a2, 0x1
100013f8: 6f 00 00 f0 8f fb ff 0f      	j	0x100013b0 <test_7+0x158>
10001400: 13 28 00 01 00 00 00 00      	mv	s4, a6
10001408: 13 0e 00 00 00 00 00 00      	li	t2, 0x0
10001410: 63 00 42 71 80 96 00 00      	bne	s4, t2, 0x10001d78 <fail>
10001418: 13 16 00 00 10 00 00 00      	li	a1, 0x1
10001420: 17 18 00 00 00 01 00 00      	auipc	a2, 0x10
10001428: 0b 00 b2 c0 00 00 00 00      	vx_wspawn	a1, a2
10001430: 13 16 00 00 10 00 00 00      	li	a1, 0x1
10001438: 0b 00 b0 00 00 00 00 00      	vx_tmc	a1
10001440: 73 16 04 00 10 cc 00 00      	csrr	a1, wid
10001448: 63 00 b0 00 00 01 00 00      	beqz	a1, 0x10001458 <test_7+0x200>
10001450: 0b 00 00 00 00 00 00 00      	vx_tmc	zero
10001458: 13 20 00 00 00 00 00 00      	li	a6, 0x0
10001460: 73 1a 04 00 40 f1 00 00      	csrr	a3, mhartid
10001468: 73 16 04 00 00 fc 00 00      	csrr	a1, nt
10001470: 73 18 04 00 10 fc 00 00      	csrr	a2, nw
10001478: 33 16 b0 c0 00 00 10 00      	mul	a1, a1, a2
10001480: 33 1a d8 b0 00 00 10 00      	div	a3, a3, a1
10001488: 33 1a d0 b0 00 00 10 00      	mul	a3, a3, a1
10001490: 13 1a d2 00 20 00 00 00      	slli	a3, a3, 0x2
10001498: 17 16 00 00 80 b6 01 00      	auipc	a1, 0x1b68
100014a0: 33 16 b0 d0 00 00 00 00      	add	a1, a1, a3
100014a8: 13 18 00 00 00 00 00 00      	li	a2, 0x0
100014b0: 13 1a 00 00 00 02 00 00      	li	a3, 0x20
100014b8: 63 00 c0 d0 00 05 00 00      	beq	a2, a3, 0x10001508 <test_7+0x2b0>
100014c0: 13 1c c2 00 20 00 00 00      	slli	a4, a2, 0x2
100014c8: 33 1c b0 e0 00 00 00 00      	add	a4, a1, a4
100014d0: 03 1e e4 00 00 00 00 00      	lw.global	a5, 0x0(a4)
100014d8: 23 00 e4 00 00 00 00 00      	sw.global	zero, 0x0(a4)
100014e0: 13 1e fe 00 10 00 00 00      	andi	a5, a5, 0x1
100014e8: 33 1e f2 c0 00 00 00 00      	sll	a5, a5, a2
100014f0: 33 20 0c f1 00 00 00 00      	or	a6, a6, a5
100014f8: 13 18 c0 00 10 00 00 00      	addi	a2, a2, 0x1
10001500: 6f 00 00 f0 8f fb ff 0f      	j	0x100014b8 <test_7+0x260>
10001508: 13 28 00 01 00 00 00 00      	mv	s4, a6
10001510: 13 0e 00 f0 cf ff ff 0f      	li	t2, -0x4
10001518: 63 00 42 71 00 86 00 00      	bne	s4, t2, 0x10001d78 <fail>

10001520 <test_8>:
10001520: 13 06 00 00 80 00 00 00      	li	gp, 0x8
10001528: 13 16 00 00 10 00 00 00      	li	a1, 0x1
10001530: 17 18 00 00 00 01 00 00      	auipc	a2, 0x10
10001538: 0b 00 b2 c0 00 00 00 00      	vx_wspawn	a1, a2
10001540: 13 28 00 f0 ff ff ff 0f      	li	s4, -0x1
10001548: 0b 00 40 01 00 00 00 00      	vx_tmc	s4
10001550: 13 06 00 00 80 00 00 00      	li	gp, 0x8
10001558: 13 0a 00 00 40 00 00 00      	li	t0, 0x4
10001560: 17 0c 00 00 80 01 00 00      	auipc	t1, 0x18
10001568: 0b 00 52 60 00 00 00 00      	vx_wspawn	t0, t1
10001570: 0b 00 00 00 00 00 00 00      	vx_tmc	zero
10001578: 13 0a 00 00 10 00 00 00      	li	t0, 0x1
10001580: 0b 00 50 00 00 00 00 00      	vx_tmc	t0
10001588: 17 16 00 00 80 a7 01 00      	auipc	a1, 0x1a78
10001590: 73 18 04 00 40 f1 00 00      	csrr	a2, mhartid
10001598: 13 18 c2 00 20 00 00 00      	slli	a2, a2, 0x2
100015a0: 33 16 b0 c0 00 00 00 00      	add	a1, a1, a2
100015a8: 13 1a 00 00 10 00 00 00      	li	a3, 0x1
100015b0: 23 00 b4 d0 00 00 00 00      	sw.global	a3, 0x0(a1)
100015b8: 13 16 00 00 80 0c 00 00      	li	a1, 0xc8
100015c0: 13 16 b0 f0 ff ff ff 0f      	addi	a1, a1, -0x1
100015c8: 63 fe bb 00 80 ff ff 0f      	bgez	a1, 0x100015c0 <test_8+0xa0>
100015d0: 13 16 00 00 10 00 00 00      	li	a1, 0x1
100015d8: 17 18 00 00 00 01 00 00      	auipc	a2, 0x10
100015e0: 0b 00 b2 c0 00 00 00 00      	vx_wspawn	a1, a2
100015e8: 13 16 00 00 10 00 00 00      	li	a1, 0x1
100015f0: 0b 00 b0 00 00 00 00 00      	vx_tmc	a1
100015f8: 73 16 04 00 10 cc 00 00      	csrr	a1, wid
10001600: 63 00 b0 00 00 01 00 00      	beqz	a1, 0x10001610 <test_8+0xf0>
10001608: 0b 00 00 00 00 00 00 00      	vx_tmc	zero
10001610: 13 20 00 00 00 00 00 00      	li	a6, 0x0
10001618: 73 1a 04 00 40 f1 00 00      	csrr	a3, mhartid
10001620: 73 16 04 00 00 fc 00 00      	csrr	a1, nt
10001628: 73 18 04 00 10 fc 00 00      	csrr	a2, nw
10001630: 33 16 b0 c0 00 00 10 00      	mul	a1, a1, a2
10001638: 33 1a d8 b0 00 00 10 00      	div	a3, a3, a1
10001640: 33 1a d0 b0 00 00 10 00      	mul	a3, a3, a1
10001648: 13 1a d2 00 20 00 00 00      	slli	a3, a3, 0x2
10001650: 17 16 00 00 00 a3 01 00      	auipc	a1, 0x1a30
10001658: 33 16 b0 d0 00 00 00 00      	add	a1, a1, a3
10001660: 13 18 00 00 00 00 00 00      	li	a2, 0x0
10001668: 13 1a 00 00 00 02 00 00      	li	a3, 0x20
10001670: 63 00 c0 d0 00 05 00 00      	beq	a2, a3, 0x100016c0 <test_8+0x1a0>
10001678: 13 1c c2 00 20 00 00 00      	slli	a4, a2, 0x2
10001680: 33 1c b0 e0 00 00 00 00      	add	a4, a1, a4
10001688: 03 1e e4 00 00 00 00 00      	lw.global	a5, 0x0(a4)
10001690: 23 00 e4 00 00 00 00 00      	sw.global	zero, 0x0(a4)
10001698: 13 1e fe 00 10 00 00 00      	andi	a5, a5, 0x1
100016a0: 33 1e f2 c0 00 00 00 00      	sll	a5, a5, a2
100016a8: 33 20 0c f1 00 00 00 00      	or	a6, a6, a5
100016b0: 13 18 c0 00 10 00 00 00      	addi	a2, a2, 0x1
100016b8: 6f 00 00 f0 8f fb ff 0f      	j	0x10001670 <test_8+0x150>
100016c0: 13 28 00 01 00 00 00 00      	mv	s4, a6
100016c8: 13 0e 00 00 10 00 10 00      	li	t2, 0x10001
100016d0: 63 00 42 71 80 6a 00 00      	bne	s4, t2, 0x10001d78 <fail>
100016d8: 13 16 00 00 10 00 00 00      	li	a1, 0x1
100016e0: 17 18 00 00 00 01 00 00      	auipc	a2, 0x10
100016e8: 0b 00 b2 c0 00 00 00 00      	vx_wspawn	a1, a2
100016f0: 13 16 00 00 10 00 00 00      	li	a1, 0x1
100016f8: 0b 00 b0 00 00 00 00 00      	vx_tmc	a1
10001700: 73 16 04 00 10 cc 00 00      	csrr	a1, wid
10001708: 63 00 b0 00 00 01 00 00      	beqz	a1, 0x10001718 <test_8+0x1f8>
10001710: 0b 00 00 00 00 00 00 00      	vx_tmc	zero
10001718: 13 20 00 00 00 00 00 00      	li	a6, 0x0
10001720: 73 1a 04 00 40 f1 00 00      	csrr	a3, mhartid
10001728: 73 16 04 00 00 fc 00 00      	csrr	a1, nt
10001730: 73 18 04 00 10 fc 00 00      	csrr	a2, nw
10001738: 33 16 b0 c0 00 00 10 00      	mul	a1, a1, a2
10001740: 33 1a d8 b0 00 00 10 00      	div	a3, a3, a1
10001748: 33 1a d0 b0 00 00 10 00      	mul	a3, a3, a1
10001750: 13 1a d2 00 20 00 00 00      	slli	a3, a3, 0x2
10001758: 17 16 00 00 80 8a 01 00      	auipc	a1, 0x18a8
10001760: 33 16 b0 d0 00 00 00 00      	add	a1, a1, a3
10001768: 13 18 00 00 00 00 00 00      	li	a2, 0x0
10001770: 13 1a 00 00 00 02 00 00      	li	a3, 0x20
10001778: 63 00 c0 d0 00 05 00 00      	beq	a2, a3, 0x100017c8 <test_8+0x2a8>
10001780: 13 1c c2 00 20 00 00 00      	slli	a4, a2, 0x2
10001788: 33 1c b0 e0 00 00 00 00      	add	a4, a1, a4
10001790: 03 1e e4 00 00 00 00 00      	lw.global	a5, 0x0(a4)
10001798: 23 00 e4 00 00 00 00 00      	sw.global	zero, 0x0(a4)
100017a0: 13 1e fe 00 10 00 00 00      	andi	a5, a5, 0x1
100017a8: 33 1e f2 c0 00 00 00 00      	sll	a5, a5, a2
100017b0: 33 20 0c f1 00 00 00 00      	or	a6, a6, a5
100017b8: 13 18 c0 00 10 00 00 00      	addi	a2, a2, 0x1
100017c0: 6f 00 00 f0 8f fb ff 0f      	j	0x10001778 <test_8+0x258>
100017c8: 13 28 00 01 00 00 00 00      	mv	s4, a6
100017d0: 13 0e 00 00 10 00 10 00      	li	t2, 0x10001
100017d8: 63 00 42 71 00 5a 00 00      	bne	s4, t2, 0x10001d78 <fail>

100017e0 <test_9>:
100017e0: 13 06 00 00 90 00 00 00      	li	gp, 0x9
100017e8: 13 16 00 00 10 00 00 00      	li	a1, 0x1
100017f0: 17 18 00 00 00 01 00 00      	auipc	a2, 0x10
100017f8: 0b 00 b2 c0 00 00 00 00      	vx_wspawn	a1, a2
10001800: 13 28 00 f0 ff ff ff 0f      	li	s4, -0x1
10001808: 0b 00 40 01 00 00 00 00      	vx_tmc	s4
10001810: 13 06 00 00 90 00 00 00      	li	gp, 0x9
10001818: 13 0a 00 00 20 00 00 00      	li	t0, 0x2
10001820: 13 0c 00 00 30 00 00 00      	li	t1, 0x3
10001828: 17 0e 00 00 00 02 00 00      	auipc	t2, 0x20
10001830: 17 38 00 00 00 02 00 00      	auipc	t3, 0x20
10001838: 0b 00 52 70 00 00 00 00      	vx_wspawn	t0, t2
10001840: 0b 00 00 00 00 00 00 00      	vx_tmc	zero
10001848: 0b 00 62 c0 01 00 00 00      	vx_wspawn	t1, t3
10001850: 13 00 00 00 00 00 00 00      	nop
10001858: 17 16 00 00 80 7a 01 00      	auipc	a1, 0x17a8
10001860: 73 18 04 00 40 f1 00 00      	csrr	a2, mhartid
10001868: 13 18 c2 00 20 00 00 00      	slli	a2, a2, 0x2
10001870: 33 16 b0 c0 00 00 00 00      	add	a1, a1, a2
10001878: 13 1a 00 00 10 00 00 00      	li	a3, 0x1
10001880: 23 00 b4 d0 00 00 00 00      	sw.global	a3, 0x0(a1)
10001888: 13 16 00 00 80 0c 00 00      	li	a1, 0xc8
10001890: 13 16 b0 f0 ff ff ff 0f      	addi	a1, a1, -0x1
10001898: 63 fe bb 00 80 ff ff 0f      	bgez	a1, 0x10001890 <test_9+0xb0>
100018a0: 13 16 00 00 10 00 00 00      	li	a1, 0x1
100018a8: 17 18 00 00 00 01 00 00      	auipc	a2, 0x10
100018b0: 0b 00 b2 c0 00 00 00 00      	vx_wspawn	a1, a2
100018b8: 13 16 00 00 10 00 00 00      	li	a1, 0x1
100018c0: 0b 00 b0 00 00 00 00 00      	vx_tmc	a1
100018c8: 73 16 04 00 10 cc 00 00      	csrr	a1, wid
100018d0: 63 00 b0 00 00 01 00 00      	beqz	a1, 0x100018e0 <test_9+0x100>
100018d8: 0b 00 00 00 00 00 00 00      	vx_tmc	zero
100018e0: 13 20 00 00 00 00 00 00      	li	a6, 0x0
100018e8: 73 1a 04 00 40 f1 00 00      	csrr	a3, mhartid
100018f0: 73 16 04 00 00 fc 00 00      	csrr	a1, nt
100018f8: 73 18 04 00 10 fc 00 00      	csrr	a2, nw
10001900: 33 16 b0 c0 00 00 10 00      	mul	a1, a1, a2
10001908: 33 1a d8 b0 00 00 10 00      	div	a3, a3, a1
10001910: 33 1a d0 b0 00 00 10 00      	mul	a3, a3, a1
10001918: 13 1a d2 00 20 00 00 00      	slli	a3, a3, 0x2
10001920: 17 16 00 00 00 76 01 00      	auipc	a1, 0x1760
10001928: 33 16 b0 d0 00 00 00 00      	add	a1, a1, a3
10001930: 13 18 00 00 00 00 00 00      	li	a2, 0x0
10001938: 13 1a 00 00 00 02 00 00      	li	a3, 0x20
10001940: 63 00 c0 d0 00 05 00 00      	beq	a2, a3, 0x10001990 <test_9+0x1b0>
10001948: 13 1c c2 00 20 00 00 00      	slli	a4, a2, 0x2
10001950: 33 1c b0 e0 00 00 00 00      	add	a4, a1, a4
10001958: 03 1e e4 00 00 00 00 00      	lw.global	a5, 0x0(a4)
10001960: 23 00 e4 00 00 00 00 00      	sw.global	zero, 0x0(a4)
10001968: 13 1e fe 00 10 00 00 00      	andi	a5, a5, 0x1
10001970: 33 1e f2 c0 00 00 00 00      	sll	a5, a5, a2
10001978: 33 20 0c f1 00 00 00 00      	or	a6, a6, a5
10001980: 13 18 c0 00 10 00 00 00      	addi	a2, a2, 0x1
10001988: 6f 00 00 f0 8f fb ff 0f      	j	0x10001940 <test_9+0x160>
10001990: 13 28 00 01 00 00 00 00      	mv	s4, a6
10001998: 13 0e 00 00 f0 ff 0f 00      	li	t2, 0xffff
100019a0: 63 00 42 71 80 3d 00 00      	bne	s4, t2, 0x10001d78 <fail>
100019a8: 13 16 00 00 10 00 00 00      	li	a1, 0x1
100019b0: 17 18 00 00 00 01 00 00      	auipc	a2, 0x10
100019b8: 0b 00 b2 c0 00 00 00 00      	vx_wspawn	a1, a2
100019c0: 13 16 00 00 10 00 00 00      	li	a1, 0x1
100019c8: 0b 00 b0 00 00 00 00 00      	vx_tmc	a1
100019d0: 73 16 04 00 10 cc 00 00      	csrr	a1, wid
100019d8: 63 00 b0 00 00 01 00 00      	beqz	a1, 0x100019e8 <test_9+0x208>
100019e0: 0b 00 00 00 00 00 00 00      	vx_tmc	zero
100019e8: 13 20 00 00 00 00 00 00      	li	a6, 0x0
100019f0: 73 1a 04 00 40 f1 00 00      	csrr	a3, mhartid
100019f8: 73 16 04 00 00 fc 00 00      	csrr	a1, nt
10001a00: 73 18 04 00 10 fc 00 00      	csrr	a2, nw
10001a08: 33 16 b0 c0 00 00 10 00      	mul	a1, a1, a2
10001a10: 33 1a d8 b0 00 00 10 00      	div	a3, a3, a1
10001a18: 33 1a d0 b0 00 00 10 00      	mul	a3, a3, a1
10001a20: 13 1a d2 00 20 00 00 00      	slli	a3, a3, 0x2
10001a28: 17 16 00 00 80 5d 01 00      	auipc	a1, 0x15d8
10001a30: 33 16 b0 d0 00 00 00 00      	add	a1, a1, a3
10001a38: 13 18 00 00 00 00 00 00      	li	a2, 0x0
10001a40: 13 1a 00 00 00 02 00 00      	li	a3, 0x20
10001a48: 63 00 c0 d0 00 05 00 00      	beq	a2, a3, 0x10001a98 <test_9+0x2b8>
10001a50: 13 1c c2 00 20 00 00 00      	slli	a4, a2, 0x2
10001a58: 33 1c b0 e0 00 00 00 00      	add	a4, a1, a4
10001a60: 03 1e e4 00 00 00 00 00      	lw.global	a5, 0x0(a4)
10001a68: 23 00 e4 00 00 00 00 00      	sw.global	zero, 0x0(a4)
10001a70: 13 1e fe 00 10 00 00 00      	andi	a5, a5, 0x1
10001a78: 33 1e f2 c0 00 00 00 00      	sll	a5, a5, a2
10001a80: 33 20 0c f1 00 00 00 00      	or	a6, a6, a5
10001a88: 13 18 c0 00 10 00 00 00      	addi	a2, a2, 0x1
10001a90: 6f 00 00 f0 8f fb ff 0f      	j	0x10001a48 <test_9+0x268>
10001a98: 13 28 00 01 00 00 00 00      	mv	s4, a6
10001aa0: 13 0e 00 f0 ff ff ff 0f      	li	t2, -0x1
10001aa8: 63 00 42 71 00 2d 00 00      	bne	s4, t2, 0x10001d78 <fail>

10001ab0 <test_10>:
10001ab0: 13 06 00 00 a0 00 00 00      	li	gp, 0xa
10001ab8: 13 16 00 00 10 00 00 00      	li	a1, 0x1
10001ac0: 17 18 00 00 00 01 00 00      	auipc	a2, 0x10
10001ac8: 0b 00 b2 c0 00 00 00 00      	vx_wspawn	a1, a2
10001ad0: 13 28 00 f0 ff ff ff 0f      	li	s4, -0x1
10001ad8: 0b 00 40 01 00 00 00 00      	vx_tmc	s4
10001ae0: 13 06 00 00 a0 00 00 00      	li	gp, 0xa
10001ae8: 73 0a 04 00 00 cc 00 00      	csrr	t0, tid
10001af0: 17 0c 00 00 00 02 00 00      	auipc	t1, 0x20
10001af8: 13 0e 00 00 40 00 00 00      	li	t2, 0x4
10001b00: 0b 00 70 00 00 00 00 00      	vx_tmc	t2
10001b08: 0b 00 52 60 00 00 00 00      	vx_wspawn	t0, t1
10001b10: 13 00 00 00 00 00 00 00      	nop
10001b18: 17 16 00 00 80 4e 01 00      	auipc	a1, 0x14e8
10001b20: 73 18 04 00 40 f1 00 00      	csrr	a2, mhartid
10001b28: 13 18 c2 00 20 00 00 00      	slli	a2, a2, 0x2
10001b30: 33 16 b0 c0 00 00 00 00      	add	a1, a1, a2
10001b38: 13 1a 00 00 10 00 00 00      	li	a3, 0x1
10001b40: 23 00 b4 d0 00 00 00 00      	sw.global	a3, 0x0(a1)
10001b48: 13 16 00 00 80 0c 00 00      	li	a1, 0xc8
10001b50: 13 16 b0 f0 ff ff ff 0f      	addi	a1, a1, -0x1
10001b58: 63 fe bb 00 80 ff ff 0f      	bgez	a1, 0x10001b50 <test_10+0xa0>
10001b60: 13 16 00 00 10 00 00 00      	li	a1, 0x1
10001b68: 17 18 00 00 00 01 00 00      	auipc	a2, 0x10
10001b70: 0b 00 b2 c0 00 00 00 00      	vx_wspawn	a1, a2
10001b78: 13 16 00 00 10 00 00 00      	li	a1, 0x1
10001b80: 0b 00 b0 00 00 00 00 00      	vx_tmc	a1
10001b88: 73 16 04 00 10 cc 00 00      	csrr	a1, wid
10001b90: 63 00 b0 00 00 01 00 00      	beqz	a1, 0x10001ba0 <test_10+0xf0>
10001b98: 0b 00 00 00 00 00 00 00      	vx_tmc	zero
10001ba0: 13 20 00 00 00 00 00 00      	li	a6, 0x0
10001ba8: 73 1a 04 00 40 f1 00 00      	csrr	a3, mhartid
10001bb0: 73 16 04 00 00 fc 00 00      	csrr	a1, nt
10001bb8: 73 18 04 00 10 fc 00 00      	csrr	a2, nw
10001bc0: 33 16 b0 c0 00 00 10 00      	mul	a1, a1, a2
10001bc8: 33 1a d8 b0 00 00 10 00      	div	a3, a3, a1
10001bd0: 33 1a d0 b0 00 00 10 00      	mul	a3, a3, a1
10001bd8: 13 1a d2 00 20 00 00 00      	slli	a3, a3, 0x2
10001be0: 17 16 00 00 00 4a 01 00      	auipc	a1, 0x14a0
10001be8: 33 16 b0 d0 00 00 00 00      	add	a1, a1, a3
10001bf0: 13 18 00 00 00 00 00 00      	li	a2, 0x0
10001bf8: 13 1a 00 00 00 02 00 00      	li	a3, 0x20
10001c00: 63 00 c0 d0 00 05 00 00      	beq	a2, a3, 0x10001c50 <test_10+0x1a0>
10001c08: 13 1c c2 00 20 00 00 00      	slli	a4, a2, 0x2
10001c10: 33 1c b0 e0 00 00 00 00      	add	a4, a1, a4
10001c18: 03 1e e4 00 00 00 00 00      	lw.global	a5, 0x0(a4)
10001c20: 23 00 e4 00 00 00 00 00      	sw.global	zero, 0x0(a4)
10001c28: 13 1e fe 00 10 00 00 00      	andi	a5, a5, 0x1
10001c30: 33 1e f2 c0 00 00 00 00      	sll	a5, a5, a2
10001c38: 33 20 0c f1 00 00 00 00      	or	a6, a6, a5
10001c40: 13 18 c0 00 10 00 00 00      	addi	a2, a2, 0x1
10001c48: 6f 00 00 f0 8f fb ff 0f      	j	0x10001c00 <test_10+0x150>
10001c50: 13 28 00 01 00 00 00 00      	mv	s4, a6
10001c58: 13 0e 00 00 00 00 00 00      	li	t2, 0x0
10001c60: 63 00 42 71 80 11 00 00      	bne	s4, t2, 0x10001d78 <fail>
10001c68: 13 16 00 00 10 00 00 00      	li	a1, 0x1
10001c70: 17 18 00 00 00 01 00 00      	auipc	a2, 0x10
10001c78: 0b 00 b2 c0 00 00 00 00      	vx_wspawn	a1, a2
10001c80: 13 16 00 00 10 00 00 00      	li	a1, 0x1
10001c88: 0b 00 b0 00 00 00 00 00      	vx_tmc	a1
10001c90: 73 16 04 00 10 cc 00 00      	csrr	a1, wid
10001c98: 63 00 b0 00 00 01 00 00      	beqz	a1, 0x10001ca8 <test_10+0x1f8>
10001ca0: 0b 00 00 00 00 00 00 00      	vx_tmc	zero
10001ca8: 13 20 00 00 00 00 00 00      	li	a6, 0x0
10001cb0: 73 1a 04 00 40 f1 00 00      	csrr	a3, mhartid
10001cb8: 73 16 04 00 00 fc 00 00      	csrr	a1, nt
10001cc0: 73 18 04 00 10 fc 00 00      	csrr	a2, nw
10001cc8: 33 16 b0 c0 00 00 10 00      	mul	a1, a1, a2
10001cd0: 33 1a d8 b0 00 00 10 00      	div	a3, a3, a1
10001cd8: 33 1a d0 b0 00 00 10 00      	mul	a3, a3, a1
10001ce0: 13 1a d2 00 20 00 00 00      	slli	a3, a3, 0x2
10001ce8: 17 16 00 00 80 31 01 00      	auipc	a1, 0x1318
10001cf0: 33 16 b0 d0 00 00 00 00      	add	a1, a1, a3
10001cf8: 13 18 00 00 00 00 00 00      	li	a2, 0x0
10001d00: 13 1a 00 00 00 02 00 00      	li	a3, 0x20
10001d08: 63 00 c0 d0 00 05 00 00      	beq	a2, a3, 0x10001d58 <test_10+0x2a8>
10001d10: 13 1c c2 00 20 00 00 00      	slli	a4, a2, 0x2
10001d18: 33 1c b0 e0 00 00 00 00      	add	a4, a1, a4
10001d20: 03 1e e4 00 00 00 00 00      	lw.global	a5, 0x0(a4)
10001d28: 23 00 e4 00 00 00 00 00      	sw.global	zero, 0x0(a4)
10001d30: 13 1e fe 00 10 00 00 00      	andi	a5, a5, 0x1
10001d38: 33 1e f2 c0 00 00 00 00      	sll	a5, a5, a2
10001d40: 33 20 0c f1 00 00 00 00      	or	a6, a6, a5
10001d48: 13 18 c0 00 10 00 00 00      	addi	a2, a2, 0x1
10001d50: 6f 00 00 f0 8f fb ff 0f      	j	0x10001d08 <test_10+0x258>
10001d58: 13 28 00 01 00 00 00 00      	mv	s4, a6
10001d60: 13 0e 00 f0 4f 00 f0 0f      	li	t2, -0xfffc
10001d68: 63 00 42 71 00 01 00 00      	bne	s4, t2, 0x10001d78 <fail>
10001d70: 63 00 02 30 80 03 00 00      	bne	zero, gp, 0x10001da8 <pass>

10001d78 <fail>:
10001d78: 0f 00 00 00 f0 0f 00 00      	fence
10001d80: 63 00 30 00 00 00 00 00      	beqz	gp, 0x10001d80 <fail+0x8>
10001d88: 13 06 32 00 10 00 00 00      	slli	gp, gp, 0x1
10001d90: 13 06 3c 00 10 00 00 00      	ori	gp, gp, 0x1
10001d98: 13 14 30 00 00 00 00 00      	mv	a0, gp
10001da0: 73 00 a0 00 20 00 00 00      	tohost	a0

10001da8 <pass>:
10001da8: 0f 00 00 00 f0 0f 00 00      	fence
10001db0: 13 06 00 00 10 00 00 00      	li	gp, 0x1
10001db8: 13 14 00 00 00 00 00 00      	li	a0, 0x0
10001dc0: 73 00 a0 00 20 00 00 00      	tohost	a0
10001dc8: 13 00 00 00 00 00 00 00      	nop
10001dd0: 13 00 00 00 00 00 00 00      	nop
10001dd8: 73 00 02 00 00 c0 00 00      	unimp
