
/home/shashank/radiance/radiance-kernels/muon-isa-tests/isa/rv32ui-p-slli:	file format elf32-littleriscv

Disassembly of section .text.init:

10000000 <_start>:
10000000: 6f 00 00 00 80 03 00 00      	j	0x10000038 <reset_vector>

10000008 <other_exception>:
10000008: 13 06 3c 00 90 53 00 00      	ori	gp, gp, 0x539

10000010 <write_tohost>:
10000010: 17 3c 00 00 00 00 00 00      	auipc	t5, 0x0
10000018: 23 00 e4 31 00 ff 00 00      	sw.global	gp, 0xff0(t5)
10000020: 17 3c 00 00 00 00 00 00      	auipc	t5, 0x0
10000028: 23 00 e4 01 40 fe 00 00      	sw.global	zero, 0xfe4(t5)
10000030: 6f 00 00 f0 0f fe ff 0f      	j	0x10000010 <write_tohost>

10000038 <reset_vector>:
10000038: 13 0a 00 00 10 00 00 00      	li	t0, 0x1
10000040: 0b 00 50 00 00 00 00 00      	vx_tmc	t0
10000048: 13 02 00 00 00 00 00 00      	li	ra, 0x0
10000050: 13 04 00 00 00 00 00 00      	li	sp, 0x0
10000058: 13 06 00 00 00 00 00 00      	li	gp, 0x0
10000060: 13 08 00 00 00 00 00 00      	li	tp, 0x0
10000068: 13 0a 00 00 00 00 00 00      	li	t0, 0x0
10000070: 13 0c 00 00 00 00 00 00      	li	t1, 0x0
10000078: 13 0e 00 00 00 00 00 00      	li	t2, 0x0
10000080: 13 10 00 00 00 00 00 00      	li	s0, 0x0
10000088: 13 12 00 00 00 00 00 00      	li	s1, 0x0
10000090: 13 14 00 00 00 00 00 00      	li	a0, 0x0
10000098: 13 16 00 00 00 00 00 00      	li	a1, 0x0
100000a0: 13 18 00 00 00 00 00 00      	li	a2, 0x0
100000a8: 13 1a 00 00 00 00 00 00      	li	a3, 0x0
100000b0: 13 1c 00 00 00 00 00 00      	li	a4, 0x0
100000b8: 13 1e 00 00 00 00 00 00      	li	a5, 0x0
100000c0: 13 20 00 00 00 00 00 00      	li	a6, 0x0
100000c8: 13 22 00 00 00 00 00 00      	li	a7, 0x0
100000d0: 13 24 00 00 00 00 00 00      	li	s2, 0x0
100000d8: 13 26 00 00 00 00 00 00      	li	s3, 0x0
100000e0: 13 28 00 00 00 00 00 00      	li	s4, 0x0
100000e8: 13 2a 00 00 00 00 00 00      	li	s5, 0x0
100000f0: 13 2c 00 00 00 00 00 00      	li	s6, 0x0
100000f8: 13 2e 00 00 00 00 00 00      	li	s7, 0x0
10000100: 13 30 00 00 00 00 00 00      	li	s8, 0x0
10000108: 13 32 00 00 00 00 00 00      	li	s9, 0x0
10000110: 13 34 00 00 00 00 00 00      	li	s10, 0x0
10000118: 13 36 00 00 00 00 00 00      	li	s11, 0x0
10000120: 13 38 00 00 00 00 00 00      	li	t3, 0x0
10000128: 13 3a 00 00 00 00 00 00      	li	t4, 0x0
10000130: 13 3c 00 00 00 00 00 00      	li	t5, 0x0
10000138: 13 3e 00 00 00 00 00 00      	li	t6, 0x0
10000140: 13 40 00 00 00 00 00 00      	li	a8, 0x0
10000148: 13 42 00 00 00 00 00 00      	li	a9, 0x0
10000150: 13 44 00 00 00 00 00 00      	li	a10, 0x0
10000158: 13 46 00 00 00 00 00 00      	li	a11, 0x0
10000160: 13 48 00 00 00 00 00 00      	li	a12, 0x0
10000168: 13 4a 00 00 00 00 00 00      	li	a13, 0x0
10000170: 13 4c 00 00 00 00 00 00      	li	a14, 0x0
10000178: 13 4e 00 00 00 00 00 00      	li	a15, 0x0
10000180: 13 50 00 00 00 00 00 00      	li	a16, 0x0
10000188: 13 52 00 00 00 00 00 00      	li	a17, 0x0
10000190: 13 54 00 00 00 00 00 00      	li	a18, 0x0
10000198: 13 56 00 00 00 00 00 00      	li	a19, 0x0
100001a0: 13 58 00 00 00 00 00 00      	li	a20, 0x0
100001a8: 13 5a 00 00 00 00 00 00      	li	a21, 0x0
100001b0: 13 5c 00 00 00 00 00 00      	li	a22, 0x0
100001b8: 13 5e 00 00 00 00 00 00      	li	a23, 0x0
100001c0: 13 60 00 00 00 00 00 00      	li	s12, 0x0
100001c8: 13 62 00 00 00 00 00 00      	li	s13, 0x0
100001d0: 13 64 00 00 00 00 00 00      	li	s14, 0x0
100001d8: 13 66 00 00 00 00 00 00      	li	s15, 0x0
100001e0: 13 68 00 00 00 00 00 00      	li	s16, 0x0
100001e8: 13 6a 00 00 00 00 00 00      	li	s17, 0x0
100001f0: 13 6c 00 00 00 00 00 00      	li	s18, 0x0
100001f8: 13 6e 00 00 00 00 00 00      	li	s19, 0x0
10000200: 13 70 00 00 00 00 00 00      	li	s20, 0x0
10000208: 13 72 00 00 00 00 00 00      	li	s21, 0x0
10000210: 13 74 00 00 00 00 00 00      	li	s22, 0x0
10000218: 13 76 00 00 00 00 00 00      	li	s23, 0x0
10000220: 13 78 00 00 00 00 00 00      	li	s24, 0x0
10000228: 13 7a 00 00 00 00 00 00      	li	s25, 0x0
10000230: 13 7c 00 00 00 00 00 00      	li	s26, 0x0
10000238: 13 7e 00 00 00 00 00 00      	li	s27, 0x0
10000240: 13 80 00 00 00 00 00 00      	li	s28, 0x0
10000248: 13 82 00 00 00 00 00 00      	li	s29, 0x0
10000250: 13 84 00 00 00 00 00 00      	li	s30, 0x0
10000258: 13 86 00 00 00 00 00 00      	li	s31, 0x0
10000260: 13 88 00 00 00 00 00 00      	li	s32, 0x0
10000268: 13 8a 00 00 00 00 00 00      	li	s33, 0x0
10000270: 13 8c 00 00 00 00 00 00      	li	s34, 0x0
10000278: 13 8e 00 00 00 00 00 00      	li	s35, 0x0
10000280: 13 90 00 00 00 00 00 00      	li	s36, 0x0
10000288: 13 92 00 00 00 00 00 00      	li	s37, 0x0
10000290: 13 94 00 00 00 00 00 00      	li	s38, 0x0
10000298: 13 96 00 00 00 00 00 00      	li	s39, 0x0
100002a0: 13 98 00 00 00 00 00 00      	li	s40, 0x0
100002a8: 13 9a 00 00 00 00 00 00      	li	s41, 0x0
100002b0: 13 9c 00 00 00 00 00 00      	li	s42, 0x0
100002b8: 13 9e 00 00 00 00 00 00      	li	s43, 0x0
100002c0: 13 a0 00 00 00 00 00 00      	li	s44, 0x0
100002c8: 13 a2 00 00 00 00 00 00      	li	s45, 0x0
100002d0: 13 a4 00 00 00 00 00 00      	li	s46, 0x0
100002d8: 13 a6 00 00 00 00 00 00      	li	s47, 0x0
100002e0: 13 a8 00 00 00 00 00 00      	li	s48, 0x0
100002e8: 13 aa 00 00 00 00 00 00      	li	s49, 0x0
100002f0: 13 ac 00 00 00 00 00 00      	li	s50, 0x0
100002f8: 13 ae 00 00 00 00 00 00      	li	s51, 0x0
10000300: 13 b0 00 00 00 00 00 00      	li	s52, 0x0
10000308: 13 b2 00 00 00 00 00 00      	li	s53, 0x0
10000310: 13 b4 00 00 00 00 00 00      	li	s54, 0x0
10000318: 13 b6 00 00 00 00 00 00      	li	s55, 0x0
10000320: 13 b8 00 00 00 00 00 00      	li	s56, 0x0
10000328: 13 ba 00 00 00 00 00 00      	li	s57, 0x0
10000330: 13 bc 00 00 00 00 00 00      	li	s58, 0x0
10000338: 13 be 00 00 00 00 00 00      	li	s59, 0x0
10000340: 13 c0 00 00 00 00 00 00      	li	t7, 0x0
10000348: 13 c2 00 00 00 00 00 00      	li	t8, 0x0
10000350: 13 c4 00 00 00 00 00 00      	li	t9, 0x0
10000358: 13 c6 00 00 00 00 00 00      	li	t10, 0x0
10000360: 13 c8 00 00 00 00 00 00      	li	t11, 0x0
10000368: 13 ca 00 00 00 00 00 00      	li	t12, 0x0
10000370: 13 cc 00 00 00 00 00 00      	li	t13, 0x0
10000378: 13 ce 00 00 00 00 00 00      	li	t14, 0x0
10000380: 13 d0 00 00 00 00 00 00      	li	t15, 0x0
10000388: 13 d2 00 00 00 00 00 00      	li	t16, 0x0
10000390: 13 d4 00 00 00 00 00 00      	li	t17, 0x0
10000398: 13 d6 00 00 00 00 00 00      	li	t18, 0x0
100003a0: 13 d8 00 00 00 00 00 00      	li	t19, 0x0
100003a8: 13 da 00 00 00 00 00 00      	li	t20, 0x0
100003b0: 13 dc 00 00 00 00 00 00      	li	t21, 0x0
100003b8: 13 de 00 00 00 00 00 00      	li	t22, 0x0
100003c0: 13 e0 00 00 00 00 00 00      	li	t23, 0x0
100003c8: 13 e2 00 00 00 00 00 00      	li	t24, 0x0
100003d0: 13 e4 00 00 00 00 00 00      	li	t25, 0x0
100003d8: 13 e6 00 00 00 00 00 00      	li	t26, 0x0
100003e0: 13 e8 00 00 00 00 00 00      	li	t27, 0x0
100003e8: 13 ea 00 00 00 00 00 00      	li	t28, 0x0
100003f0: 13 ec 00 00 00 00 00 00      	li	t29, 0x0
100003f8: 13 ee 00 00 00 00 00 00      	li	t30, 0x0
10000400: 13 f0 00 00 00 00 00 00      	li	t31, 0x0
10000408: 13 f2 00 00 00 00 00 00      	li	t32, 0x0
10000410: 13 f4 00 00 00 00 00 00      	li	t33, 0x0
10000418: 13 f6 00 00 00 00 00 00      	li	t34, 0x0
10000420: 13 f8 00 00 00 00 00 00      	li	t35, 0x0
10000428: 13 fa 00 00 00 00 00 00      	li	t36, 0x0
10000430: 13 fc 00 00 00 00 00 00      	li	t37, 0x0
10000438: 13 fe 00 00 00 00 00 00      	li	t38, 0x0
10000440: 13 06 00 00 00 00 00 00      	li	gp, 0x0
10000448: 13 14 00 00 10 00 00 00      	li	a0, 0x1
10000450: 13 14 a2 00 f0 01 00 00      	slli	a0, a0, 0x1f
10000458: 63 00 a8 00 80 03 00 00      	bltz	a0, 0x10000490 <reset_vector+0x458>
10000460: 0f 00 00 00 f0 0f 00 00      	fence
10000468: 13 06 00 00 10 00 00 00      	li	gp, 0x1
10000470: 13 14 00 00 00 00 00 00      	li	a0, 0x0
10000478: 73 00 a0 00 20 00 00 00      	tohost	a0
10000480: 13 00 00 00 00 00 00 00      	nop
10000488: 13 00 00 00 00 00 00 00      	nop
10000490: 6f 00 00 00 80 00 00 00      	j	0x10000498 <test_2>

10000498 <test_2>:
10000498: 13 06 00 00 20 00 00 00      	li	gp, 0x2
100004a0: 13 1a 00 00 10 00 00 00      	li	a3, 0x1
100004a8: 13 1c d2 00 00 00 00 00      	slli	a4, a3, 0x0
100004b0: 13 0e 00 00 10 00 00 00      	li	t2, 0x1
100004b8: 63 00 e2 70 80 4a 00 00      	bne	a4, t2, 0x10000960 <fail>

100004c0 <test_3>:
100004c0: 13 06 00 00 30 00 00 00      	li	gp, 0x3
100004c8: 13 1a 00 00 10 00 00 00      	li	a3, 0x1
100004d0: 13 1c d2 00 10 00 00 00      	slli	a4, a3, 0x1
100004d8: 13 0e 00 00 20 00 00 00      	li	t2, 0x2
100004e0: 63 00 e2 70 00 48 00 00      	bne	a4, t2, 0x10000960 <fail>

100004e8 <test_4>:
100004e8: 13 06 00 00 40 00 00 00      	li	gp, 0x4
100004f0: 13 1a 00 00 10 00 00 00      	li	a3, 0x1
100004f8: 13 1c d2 00 70 00 00 00      	slli	a4, a3, 0x7
10000500: 13 0e 00 00 00 08 00 00      	li	t2, 0x80
10000508: 63 00 e2 70 80 45 00 00      	bne	a4, t2, 0x10000960 <fail>

10000510 <test_5>:
10000510: 13 06 00 00 50 00 00 00      	li	gp, 0x5
10000518: 13 1a 00 00 10 00 00 00      	li	a3, 0x1
10000520: 13 1c d2 00 e0 00 00 00      	slli	a4, a3, 0xe
10000528: 13 0e 00 00 00 00 04 00      	li	t2, 0x4000
10000530: 63 00 e2 70 00 43 00 00      	bne	a4, t2, 0x10000960 <fail>

10000538 <test_6>:
10000538: 13 06 00 00 60 00 00 00      	li	gp, 0x6
10000540: 13 1a 00 00 10 00 00 00      	li	a3, 0x1
10000548: 13 1c d2 00 f0 01 00 00      	slli	a4, a3, 0x1f
10000550: 13 0e 00 00 08 00 00 00      	li	t2, -0x80000000
10000558: 63 00 e2 70 80 40 00 00      	bne	a4, t2, 0x10000960 <fail>

10000560 <test_7>:
10000560: 13 06 00 00 70 00 00 00      	li	gp, 0x7
10000568: 13 1a 00 f0 ff ff ff 0f      	li	a3, -0x1
10000570: 13 1c d2 00 00 00 00 00      	slli	a4, a3, 0x0
10000578: 13 0e 00 f0 ff ff ff 0f      	li	t2, -0x1
10000580: 63 00 e2 70 00 3e 00 00      	bne	a4, t2, 0x10000960 <fail>

10000588 <test_8>:
10000588: 13 06 00 00 80 00 00 00      	li	gp, 0x8
10000590: 13 1a 00 f0 ff ff ff 0f      	li	a3, -0x1
10000598: 13 1c d2 00 10 00 00 00      	slli	a4, a3, 0x1
100005a0: 13 0e 00 f0 ef ff ff 0f      	li	t2, -0x2
100005a8: 63 00 e2 70 80 3b 00 00      	bne	a4, t2, 0x10000960 <fail>

100005b0 <test_9>:
100005b0: 13 06 00 00 90 00 00 00      	li	gp, 0x9
100005b8: 13 1a 00 f0 ff ff ff 0f      	li	a3, -0x1
100005c0: 13 1c d2 00 70 00 00 00      	slli	a4, a3, 0x7
100005c8: 13 0e 00 f0 0f f8 ff 0f      	li	t2, -0x80
100005d0: 63 00 e2 70 00 39 00 00      	bne	a4, t2, 0x10000960 <fail>

100005d8 <test_10>:
100005d8: 13 06 00 00 a0 00 00 00      	li	gp, 0xa
100005e0: 13 1a 00 f0 ff ff ff 0f      	li	a3, -0x1
100005e8: 13 1c d2 00 e0 00 00 00      	slli	a4, a3, 0xe
100005f0: 13 0e 00 f0 0f 00 fc 0f      	li	t2, -0x4000
100005f8: 63 00 e2 70 80 36 00 00      	bne	a4, t2, 0x10000960 <fail>

10000600 <test_11>:
10000600: 13 06 00 00 b0 00 00 00      	li	gp, 0xb
10000608: 13 1a 00 f0 ff ff ff 0f      	li	a3, -0x1
10000610: 13 1c d2 00 f0 01 00 00      	slli	a4, a3, 0x1f
10000618: 13 0e 00 00 08 00 00 00      	li	t2, -0x80000000
10000620: 63 00 e2 70 00 34 00 00      	bne	a4, t2, 0x10000960 <fail>

10000628 <test_12>:
10000628: 13 06 00 00 c0 00 00 00      	li	gp, 0xc
10000630: 13 1a 00 10 12 12 12 02      	li	a3, 0x21212121
10000638: 13 1c d2 00 00 00 00 00      	slli	a4, a3, 0x0
10000640: 13 0e 00 10 12 12 12 02      	li	t2, 0x21212121
10000648: 63 00 e2 70 80 31 00 00      	bne	a4, t2, 0x10000960 <fail>

10000650 <test_13>:
10000650: 13 06 00 00 d0 00 00 00      	li	gp, 0xd
10000658: 13 1a 00 10 12 12 12 02      	li	a3, 0x21212121
10000660: 13 1c d2 00 10 00 00 00      	slli	a4, a3, 0x1
10000668: 13 0e 00 20 24 24 24 04      	li	t2, 0x42424242
10000670: 63 00 e2 70 00 2f 00 00      	bne	a4, t2, 0x10000960 <fail>

10000678 <test_14>:
10000678: 13 06 00 00 e0 00 00 00      	li	gp, 0xe
10000680: 13 1a 00 10 12 12 12 02      	li	a3, 0x21212121
10000688: 13 1c d2 00 70 00 00 00      	slli	a4, a3, 0x7
10000690: 13 0e 00 00 09 08 09 09      	li	t2, -0x6f6f6f80
10000698: 63 00 e2 70 80 2c 00 00      	bne	a4, t2, 0x10000960 <fail>

100006a0 <test_15>:
100006a0: 13 06 00 00 f0 00 00 00      	li	gp, 0xf
100006a8: 13 1a 00 10 12 12 12 02      	li	a3, 0x21212121
100006b0: 13 1c d2 00 e0 00 00 00      	slli	a4, a3, 0xe
100006b8: 13 0e 00 80 04 00 84 04      	li	t2, 0x48484000
100006c0: 63 00 e2 70 00 2a 00 00      	bne	a4, t2, 0x10000960 <fail>

100006c8 <test_16>:
100006c8: 13 06 00 00 00 01 00 00      	li	gp, 0x10
100006d0: 13 1a 00 10 12 12 12 02      	li	a3, 0x21212121
100006d8: 13 1c d2 00 f0 01 00 00      	slli	a4, a3, 0x1f
100006e0: 13 0e 00 00 08 00 00 00      	li	t2, -0x80000000
100006e8: 63 00 e2 70 80 27 00 00      	bne	a4, t2, 0x10000960 <fail>

100006f0 <test_17>:
100006f0: 13 06 00 00 10 01 00 00      	li	gp, 0x11
100006f8: 13 16 00 00 10 00 00 00      	li	a1, 0x1
10000700: 13 16 b2 00 70 00 00 00      	slli	a1, a1, 0x7
10000708: 13 0e 00 00 00 08 00 00      	li	t2, 0x80
10000710: 63 00 b2 70 00 25 00 00      	bne	a1, t2, 0x10000960 <fail>

10000718 <test_18>:
10000718: 13 06 00 00 20 01 00 00      	li	gp, 0x12
10000720: 13 08 00 00 00 00 00 00      	li	tp, 0x0
10000728: 13 02 00 00 10 00 00 00      	li	ra, 0x1
10000730: 13 1c 12 00 70 00 00 00      	slli	a4, ra, 0x7
10000738: 13 0c e0 00 00 00 00 00      	mv	t1, a4
10000740: 13 08 40 00 10 00 00 00      	addi	tp, tp, 0x1
10000748: 13 0a 00 00 20 00 00 00      	li	t0, 0x2
10000750: 63 fe 43 50 80 fd ff 0f      	bne	tp, t0, 0x10000728 <test_18+0x10>
10000758: 13 0e 00 00 00 08 00 00      	li	t2, 0x80
10000760: 63 00 62 70 00 20 00 00      	bne	t1, t2, 0x10000960 <fail>

10000768 <test_19>:
10000768: 13 06 00 00 30 01 00 00      	li	gp, 0x13
10000770: 13 08 00 00 00 00 00 00      	li	tp, 0x0
10000778: 13 02 00 00 10 00 00 00      	li	ra, 0x1
10000780: 13 1c 12 00 e0 00 00 00      	slli	a4, ra, 0xe
10000788: 13 00 00 00 00 00 00 00      	nop
10000790: 13 0c e0 00 00 00 00 00      	mv	t1, a4
10000798: 13 08 40 00 10 00 00 00      	addi	tp, tp, 0x1
100007a0: 13 0a 00 00 20 00 00 00      	li	t0, 0x2
100007a8: 63 fe 43 50 00 fd ff 0f      	bne	tp, t0, 0x10000778 <test_19+0x10>
100007b0: 13 0e 00 00 00 00 04 00      	li	t2, 0x4000
100007b8: 63 00 62 70 80 1a 00 00      	bne	t1, t2, 0x10000960 <fail>

100007c0 <test_20>:
100007c0: 13 06 00 00 40 01 00 00      	li	gp, 0x14
100007c8: 13 08 00 00 00 00 00 00      	li	tp, 0x0
100007d0: 13 02 00 00 10 00 00 00      	li	ra, 0x1
100007d8: 13 1c 12 00 f0 01 00 00      	slli	a4, ra, 0x1f
100007e0: 13 00 00 00 00 00 00 00      	nop
100007e8: 13 00 00 00 00 00 00 00      	nop
100007f0: 13 0c e0 00 00 00 00 00      	mv	t1, a4
100007f8: 13 08 40 00 10 00 00 00      	addi	tp, tp, 0x1
10000800: 13 0a 00 00 20 00 00 00      	li	t0, 0x2
10000808: 63 fe 43 50 80 fc ff 0f      	bne	tp, t0, 0x100007d0 <test_20+0x10>
10000810: 13 0e 00 00 08 00 00 00      	li	t2, -0x80000000
10000818: 63 00 62 70 80 14 00 00      	bne	t1, t2, 0x10000960 <fail>

10000820 <test_21>:
10000820: 13 06 00 00 50 01 00 00      	li	gp, 0x15
10000828: 13 08 00 00 00 00 00 00      	li	tp, 0x0
10000830: 13 02 00 00 10 00 00 00      	li	ra, 0x1
10000838: 13 1c 12 00 70 00 00 00      	slli	a4, ra, 0x7
10000840: 13 08 40 00 10 00 00 00      	addi	tp, tp, 0x1
10000848: 13 0a 00 00 20 00 00 00      	li	t0, 0x2
10000850: 63 fe 43 50 00 fe ff 0f      	bne	tp, t0, 0x10000830 <test_21+0x10>
10000858: 13 0e 00 00 00 08 00 00      	li	t2, 0x80
10000860: 63 00 e2 70 00 10 00 00      	bne	a4, t2, 0x10000960 <fail>

10000868 <test_22>:
10000868: 13 06 00 00 60 01 00 00      	li	gp, 0x16
10000870: 13 08 00 00 00 00 00 00      	li	tp, 0x0
10000878: 13 02 00 00 10 00 00 00      	li	ra, 0x1
10000880: 13 00 00 00 00 00 00 00      	nop
10000888: 13 1c 12 00 e0 00 00 00      	slli	a4, ra, 0xe
10000890: 13 08 40 00 10 00 00 00      	addi	tp, tp, 0x1
10000898: 13 0a 00 00 20 00 00 00      	li	t0, 0x2
100008a0: 63 fe 43 50 80 fd ff 0f      	bne	tp, t0, 0x10000878 <test_22+0x10>
100008a8: 13 0e 00 00 00 00 04 00      	li	t2, 0x4000
100008b0: 63 00 e2 70 00 0b 00 00      	bne	a4, t2, 0x10000960 <fail>

100008b8 <test_23>:
100008b8: 13 06 00 00 70 01 00 00      	li	gp, 0x17
100008c0: 13 08 00 00 00 00 00 00      	li	tp, 0x0
100008c8: 13 02 00 00 10 00 00 00      	li	ra, 0x1
100008d0: 13 00 00 00 00 00 00 00      	nop
100008d8: 13 00 00 00 00 00 00 00      	nop
100008e0: 13 1c 12 00 f0 01 00 00      	slli	a4, ra, 0x1f
100008e8: 13 08 40 00 10 00 00 00      	addi	tp, tp, 0x1
100008f0: 13 0a 00 00 20 00 00 00      	li	t0, 0x2
100008f8: 63 fe 43 50 00 fd ff 0f      	bne	tp, t0, 0x100008c8 <test_23+0x10>
10000900: 13 0e 00 00 08 00 00 00      	li	t2, -0x80000000
10000908: 63 00 e2 70 80 05 00 00      	bne	a4, t2, 0x10000960 <fail>

10000910 <test_24>:
10000910: 13 06 00 00 80 01 00 00      	li	gp, 0x18
10000918: 13 02 02 00 f0 01 00 00      	slli	ra, zero, 0x1f
10000920: 13 0e 00 00 00 00 00 00      	li	t2, 0x0
10000928: 63 00 12 70 80 03 00 00      	bne	ra, t2, 0x10000960 <fail>

10000930 <test_25>:
10000930: 13 06 00 00 90 01 00 00      	li	gp, 0x19
10000938: 13 02 00 00 10 02 00 00      	li	ra, 0x21
10000940: 13 00 12 00 40 01 00 00      	slli	zero, ra, 0x14
10000948: 13 0e 00 00 00 00 00 00      	li	t2, 0x0
10000950: 63 00 02 70 00 01 00 00      	bne	zero, t2, 0x10000960 <fail>
10000958: 63 00 02 30 80 03 00 00      	bne	zero, gp, 0x10000990 <pass>

10000960 <fail>:
10000960: 0f 00 00 00 f0 0f 00 00      	fence
10000968: 63 00 30 00 00 00 00 00      	beqz	gp, 0x10000968 <fail+0x8>
10000970: 13 06 32 00 10 00 00 00      	slli	gp, gp, 0x1
10000978: 13 06 3c 00 10 00 00 00      	ori	gp, gp, 0x1
10000980: 13 14 30 00 00 00 00 00      	mv	a0, gp
10000988: 73 00 a0 00 20 00 00 00      	tohost	a0

10000990 <pass>:
10000990: 0f 00 00 00 f0 0f 00 00      	fence
10000998: 13 06 00 00 10 00 00 00      	li	gp, 0x1
100009a0: 13 14 00 00 00 00 00 00      	li	a0, 0x0
100009a8: 73 00 a0 00 20 00 00 00      	tohost	a0
100009b0: 13 00 00 00 00 00 00 00      	nop
100009b8: 13 00 00 00 00 00 00 00      	nop
100009c0: 73 00 02 00 00 c0 00 00      	unimp
